;--------------------------------------------------------
; File Created by SDCC : free open source ISO C Compiler 
; Version 4.2.2 #13350 (MINGW64)
;--------------------------------------------------------
	.module main
	.optsdcc -msm83
	
;--------------------------------------------------------
; Public variables in this module
;--------------------------------------------------------
	.globl _main
	.globl _game
	.globl _level1
	.globl _generalUpdate
	.globl _collision
	.globl _squarePatternR
	.globl _squarePattern
	.globl _enemyUpdate
	.globl _enemyInit
	.globl _goToNode
	.globl _deactivateEnemy
	.globl _activateEnemy
	.globl _moveEnemy
	.globl _level1_bkg_update
	.globl _level1_bkg_init
	.globl _interruptLCD
	.globl _scoreInit
	.globl _scoreUpdate
	.globl _scoreDisplay
	.globl _playerUpdate
	.globl _bulletUpdate
	.globl _playerMovement
	.globl _playerInit
	.globl _set_sprite_data
	.globl _set_bkg_tiles
	.globl _set_bkg_data
	.globl _wait_vbl_done
	.globl _set_interrupts
	.globl _joypad
	.globl _delay
	.globl _add_LCD
	.globl _sprites
	.globl _titleSprites
	.globl _titleScreen
	.globl _level1_map
	.globl _selection
	.globl _state
	.globl _frame
	.globl _seconds
	.globl _skulls
	.globl _background_offset_3
	.globl _background_offset_2
	.globl _background_offset_1
	.globl _timer
	.globl _score10000
	.globl _score1000
	.globl _score100
	.globl _score10
	.globl _score1
	.globl _bullets
	.globl _player
	.globl _reload
	.globl _currentBullet
	.globl _level1_tiles
;--------------------------------------------------------
; special function registers
;--------------------------------------------------------
;--------------------------------------------------------
; ram data
;--------------------------------------------------------
	.area _DATA
_currentBullet::
	.ds 1
_reload::
	.ds 1
_player::
	.ds 4
_bullets::
	.ds 15
_score1::
	.ds 1
_score10::
	.ds 1
_score100::
	.ds 1
_score1000::
	.ds 1
_score10000::
	.ds 1
_timer::
	.ds 1
_background_offset_1::
	.ds 1
_background_offset_2::
	.ds 1
_background_offset_3::
	.ds 1
_skulls::
	.ds 320
_seconds::
	.ds 1
_frame::
	.ds 1
_state::
	.ds 1
_selection::
	.ds 1
;--------------------------------------------------------
; ram data
;--------------------------------------------------------
	.area _INITIALIZED
_level1_map::
	.ds 1520
_titleScreen::
	.ds 360
_titleSprites::
	.ds 2048
_sprites::
	.ds 2048
;--------------------------------------------------------
; absolute external ram data
;--------------------------------------------------------
	.area _DABS (ABS)
;--------------------------------------------------------
; global & static initialisations
;--------------------------------------------------------
	.area _HOME
	.area _GSINIT
	.area _GSFINAL
	.area _GSINIT
;--------------------------------------------------------
; Home
;--------------------------------------------------------
	.area _HOME
	.area _HOME
;--------------------------------------------------------
; code
;--------------------------------------------------------
	.area _CODE
;src/player.c:18: void playerInit() {
;	---------------------------------
; Function playerInit
; ---------------------------------
_playerInit::
	add	sp, #-4
;src/player.c:19: reload          =   0;
	ld	hl, #_reload
	ld	(hl), #0x00
;src/player.c:20: player.x        =  50;
	ld	hl, #_player
	ld	(hl), #0x32
;src/player.c:21: player.y        =  50;
	ld	hl, #(_player + 1)
	ld	(hl), #0x32
;src/player.c:22: player.id       =  20;
	ld	hl, #(_player + 2)
	ld	(hl), #0x14
;src/player.c:23: player.shooting = FALSE;
	ld	hl, #(_player + 3)
	ld	(hl), #0x00
;src/player.c:24: currentBullet   =   1;
	ld	hl, #_currentBullet
	ld	(hl), #0x01
;src/player.c:26: for (int i = 0; i < NUM_BULLETS; i++) {
	ld	bc, #0x0000
00104$:
	ld	a, c
	sub	a, #0x03
	ld	a, b
	rla
	ccf
	rra
	sbc	a, #0x80
	jr	NC, 00106$
;src/player.c:27: bullets[i].ready = TRUE;
	ld	l, c
	ld	h, b
	add	hl, hl
	add	hl, hl
	add	hl, bc
	inc	sp
	inc	sp
	ld	e, l
	ld	d, h
	push	de
	ld	hl, #_bullets
	add	hl, de
	push	hl
	ld	a, l
	ldhl	sp,	#4
	ld	(hl), a
	pop	hl
	ld	a, h
	ldhl	sp,	#3
	ld	(hl-), a
	ld	a, (hl+)
	ld	e, a
	ld	d, (hl)
	ld	hl, #0x0004
	add	hl, de
	ld	(hl), #0x01
;src/player.c:28: bullets[i].x     = 200;   
	ldhl	sp,	#2
	ld	a,	(hl+)
	ld	h, (hl)
	ld	l, a
	ld	(hl), #0xc8
;src/player.c:29: bullets[i].y     = 0;
	ldhl	sp,	#2
	ld	a, (hl+)
	ld	e, a
;src/player.c:30: bullets[i].id    = i + 1;  
	ld	a, (hl-)
	ld	d, a
	inc	de
	xor	a, a
	ld	(de), a
	ld	a, (hl+)
	ld	e, a
	ld	d, (hl)
	inc	de
	inc	de
	ld	a, c
	inc	a
	ld	(de), a
;src/player.c:31: bullets[i].tile  = 2;
;	spillPairReg hl
;	spillPairReg hl
	ld	a, (hl-)
	ld	l, (hl)
	ld	h, a
;	spillPairReg hl
;	spillPairReg hl
	inc	hl
	inc	hl
	inc	hl
	ld	(hl), #0x02
;src/player.c:32: set_sprite_tile(bullets[i].id, bullets[i].tile);
	ld	a, (hl)
	ldhl	sp,	#3
	ld	(hl), a
	ld	a, (de)
	ld	e, a
;c:/gbdk/include/gb/gb.h:1602: shadow_OAM[nb].tile=tile;
	ld	h, #0x00
;	spillPairReg hl
;	spillPairReg hl
	ld	l, e
	add	hl, hl
	add	hl, hl
	ld	de, #_shadow_OAM
	add	hl, de
	inc	hl
	inc	hl
	ld	e, l
	ld	d, h
	ldhl	sp,	#3
	ld	a, (hl)
	ld	(de), a
;src/player.c:26: for (int i = 0; i < NUM_BULLETS; i++) {
	inc	bc
	jr	00104$
00106$:
;src/player.c:34: }
	add	sp, #4
	ret
;src/player.c:37: void playerMovement() {
;	---------------------------------
; Function playerMovement
; ---------------------------------
_playerMovement::
	dec	sp
	dec	sp
;src/player.c:38: move_sprite( player.id , player.x , player.y );
	ld	a, (#(_player + 1) + 0)
	ldhl	sp,	#0
	ld	(hl), a
	ld	a, (#_player + 0)
	ldhl	sp,	#1
	ld	(hl), a
	ld	bc, #_player + 2
	ld	a, (bc)
	ld	e, a
;c:/gbdk/include/gb/gb.h:1675: OAM_item_t * itm = &shadow_OAM[nb];
	ld	h, #0x00
;	spillPairReg hl
;	spillPairReg hl
	ld	l, e
	add	hl, hl
	add	hl, hl
	ld	de, #_shadow_OAM
	add	hl, de
	ld	e, l
	ld	d, h
;c:/gbdk/include/gb/gb.h:1676: itm->y=y, itm->x=x;
	ldhl	sp,	#0
	ld	a, (hl+)
	ld	(de), a
	inc	de
	ld	a, (hl)
	ld	(de), a
;src/player.c:39: if (joypad() & J_UP   ) { player.y -- ; if ( player.y < MIN_Y ) { player.y = MIN_Y; } }
	call	_joypad
	bit	2, a
	jr	Z, 00104$
	ld	a, (#(_player + 1) + 0)
	dec	a
	ld	hl, #(_player + 1)
	ld	(hl), a
	sub	a, #0x10
	jr	NC, 00104$
	ld	(hl), #0x10
00104$:
;src/player.c:40: if (joypad() & J_DOWN ) { player.y ++ ; if ( player.y > MAX_Y ) { player.y = MAX_Y; } }
	call	_joypad
	bit	3, a
	jr	Z, 00108$
	ld	a, (#(_player + 1) + 0)
	inc	a
	ldhl	sp,	#1
	ld	(hl), a
	ld	de, #(_player + 1)
	ld	a, (hl)
	ld	(de), a
	ld	a, #0x88
	sub	a, (hl)
	jr	NC, 00108$
	ld	hl, #(_player + 1)
	ld	(hl), #0x88
00108$:
;src/player.c:41: if (joypad() & J_LEFT ) { player.x -- ; if ( player.x < MIN_X ) { player.x = MIN_X; } }
	call	_joypad
	bit	1, a
	jr	Z, 00112$
	ld	a, (#_player + 0)
	dec	a
	ld	hl, #_player
	ld	(hl), a
	sub	a, #0x08
	jr	NC, 00112$
	ld	(hl), #0x08
00112$:
;src/player.c:42: if (joypad() & J_RIGHT) { player.x ++ ; if ( player.x > MAX_X ) { player.x = MAX_X; } }
	call	_joypad
	rrca
	jr	NC, 00116$
	ld	a, (#_player + 0)
	inc	a
	ldhl	sp,	#1
	ld	(hl), a
	ld	de, #_player
	ld	a, (hl)
	ld	(de), a
	ld	a, #0xa0
	sub	a, (hl)
	jr	NC, 00116$
	ld	hl, #_player
	ld	(hl), #0xa0
00116$:
;src/player.c:43: if (joypad() & J_A    ) { player.shooting = TRUE; } else { player.shooting = FALSE; } 
	call	_joypad
	ld	e, a
	ld	hl, #_player + 3
	bit	4, e
	jr	Z, 00118$
	ld	(hl), #0x01
	jr	00119$
00118$:
	ld	(hl), #0x00
00119$:
;src/player.c:44: if (joypad() & J_LEFT   ) { set_sprite_tile(player.id,0);} else { set_sprite_tile(player.id,1);}
	call	_joypad
	ld	e, a
;src/player.c:38: move_sprite( player.id , player.x , player.y );
	ld	a, (bc)
	ld	c, a
;src/player.c:44: if (joypad() & J_LEFT   ) { set_sprite_tile(player.id,0);} else { set_sprite_tile(player.id,1);}
	bit	1, e
	jr	Z, 00121$
;c:/gbdk/include/gb/gb.h:1602: shadow_OAM[nb].tile=tile;
	ld	h, #0x00
;	spillPairReg hl
;	spillPairReg hl
	ld	l, c
	add	hl, hl
	add	hl, hl
	ld	de, #_shadow_OAM
	add	hl, de
	inc	hl
	inc	hl
	ld	(hl), #0x00
;src/player.c:44: if (joypad() & J_LEFT   ) { set_sprite_tile(player.id,0);} else { set_sprite_tile(player.id,1);}
	jr	00126$
00121$:
;c:/gbdk/include/gb/gb.h:1602: shadow_OAM[nb].tile=tile;
	ld	de, #_shadow_OAM+0
	ld	l, c
;	spillPairReg hl
;	spillPairReg hl
	ld	h, #0x00
;	spillPairReg hl
;	spillPairReg hl
	add	hl, hl
	add	hl, hl
	add	hl, de
	inc	hl
	inc	hl
	ld	(hl), #0x01
;src/player.c:44: if (joypad() & J_LEFT   ) { set_sprite_tile(player.id,0);} else { set_sprite_tile(player.id,1);}
00126$:
;src/player.c:45: }
	inc	sp
	inc	sp
	ret
;src/player.c:47: void bulletUpdate() {
;	---------------------------------
; Function bulletUpdate
; ---------------------------------
_bulletUpdate::
	dec	sp
	dec	sp
;src/player.c:49: if (reload > 0) { reload --; }
	ld	hl, #_reload
	ld	a, (hl)
	or	a, a
	jr	Z, 00102$
	dec	(hl)
00102$:
;src/player.c:51: if (player.shooting && reload == 0) {
	ld	a, (#(_player + 3) + 0)
	or	a, a
	jr	Z, 00129$
	ld	a, (#_reload)
	or	a, a
	jr	NZ, 00129$
;src/player.c:52: for (int i = 0; i < NUM_BULLETS; i++) {
	ld	bc, #0x0000
00114$:
	ld	a, c
	sub	a, #0x03
	ld	a, b
	rla
	ccf
	rra
	sbc	a, #0x80
	jr	NC, 00129$
;src/player.c:53: if (currentBullet == i + 1) {
	ld	e, c
	ld	d, b
	inc	de
	ld	hl, #_currentBullet
	ld	l, (hl)
;	spillPairReg hl
;	spillPairReg hl
	ld	h, #0x00
;	spillPairReg hl
;	spillPairReg hl
	ld	a, l
	sub	a, e
	jr	NZ, 00115$
	ld	a, h
	sub	a, d
	jr	NZ, 00115$
;src/player.c:54: bullets[i].x     = player.x;
	ld	l, c
	ld	h, b
	add	hl, hl
	add	hl, hl
	add	hl, bc
	ld	bc,#_bullets
	add	hl,bc
	ld	c, l
	ld	b, h
	ld	a, (#_player + 0)
	ld	(bc), a
;src/player.c:55: bullets[i].y     = player.y;
	ld	e, c
	ld	d, b
	inc	de
	ld	a, (#_player + 1)
	ld	(de), a
;src/player.c:56: bullets[i].ready = FALSE;
	inc	bc
	inc	bc
	inc	bc
	inc	bc
	xor	a, a
	ld	(bc), a
;src/player.c:57: reload += RELOAD;
	ld	hl, #_reload
	ld	a, (hl)
	add	a, #0x0a
	ld	(hl), a
;src/player.c:58: currentBullet = (currentBullet % NUM_BULLETS) + 1;
	ld	hl, #_currentBullet
	ld	e, (hl)
	ld	d, #0x00
	ld	bc, #0x0003
	call	__modsint
	ld	a, c
	inc	a
	ld	(#_currentBullet),a
;src/player.c:59: break;
	jr	00129$
00115$:
;src/player.c:52: for (int i = 0; i < NUM_BULLETS; i++) {
	ld	c, e
	ld	b, d
	jr	00114$
;src/player.c:65: for (int i = 0; i < NUM_BULLETS; i++) {
00129$:
	ld	bc, #0x0000
00117$:
	ld	a, c
	sub	a, #0x03
	ld	a, b
	rla
	ccf
	rra
	sbc	a, #0x80
	jr	NC, 00119$
;src/player.c:66: if (bullets[i].x >= MAX_X) { bullets[i].x = 200; bullets[i].ready = TRUE; }
	ld	l, c
	ld	h, b
	add	hl, hl
	add	hl, hl
	add	hl, bc
	ld	a, l
	add	a, #<(_bullets)
	ld	e, a
	ld	a, h
	adc	a, #>(_bullets)
	ld	d, a
	ld	a, (de)
	sub	a, #0xa0
	jr	C, 00110$
	ld	a, #0xc8
	ld	(de), a
	ld	hl, #0x0004
	add	hl, de
	ld	(hl), #0x01
00110$:
;src/player.c:68: bullets[i].x += 5;
	ld	a, (de)
	add	a, #0x05
	ld	(de), a
;src/player.c:69: move_sprite(bullets[i].id, bullets[i].x, bullets[i].y);
	ld	l, e
;	spillPairReg hl
;	spillPairReg hl
	ld	h, d
;	spillPairReg hl
;	spillPairReg hl
	inc	hl
	ld	a, (hl)
	ldhl	sp,	#0
	ld	(hl), a
	ld	a, (de)
	ldhl	sp,	#1
	ld	(hl), a
	inc	de
	inc	de
	ld	a, (de)
	ld	e, a
;c:/gbdk/include/gb/gb.h:1675: OAM_item_t * itm = &shadow_OAM[nb];
	ld	h, #0x00
;	spillPairReg hl
;	spillPairReg hl
	ld	l, e
	add	hl, hl
	add	hl, hl
	ld	de, #_shadow_OAM
	add	hl, de
	ld	e, l
	ld	d, h
;c:/gbdk/include/gb/gb.h:1676: itm->y=y, itm->x=x;
	ldhl	sp,	#0
	ld	a, (hl+)
	ld	(de), a
	inc	de
	ld	a, (hl)
	ld	(de), a
;src/player.c:65: for (int i = 0; i < NUM_BULLETS; i++) {
	inc	bc
	jr	00117$
00119$:
;src/player.c:71: }
	inc	sp
	inc	sp
	ret
;src/player.c:73: void playerUpdate() { playerMovement(); bulletUpdate(); }
;	---------------------------------
; Function playerUpdate
; ---------------------------------
_playerUpdate::
	call	_playerMovement
	jp	_bulletUpdate
;src/score.c:9: void scoreDisplay(uint8_t s, uint8_t id, uint8_t x) { 
;	---------------------------------
; Function scoreDisplay
; ---------------------------------
_scoreDisplay::
;src/score.c:10: if (s == 0) { set_sprite_tile(id,100); }
	ld	d, a
	or	a, a
	jr	NZ, 00102$
;c:/gbdk/include/gb/gb.h:1602: shadow_OAM[nb].tile=tile;
	ld	bc, #_shadow_OAM+0
	ld	l, e
;	spillPairReg hl
;	spillPairReg hl
	ld	h, #0x00
;	spillPairReg hl
;	spillPairReg hl
	add	hl, hl
	add	hl, hl
	add	hl, bc
	inc	hl
	inc	hl
	ld	(hl), #0x64
;src/score.c:10: if (s == 0) { set_sprite_tile(id,100); }
00102$:
;src/score.c:11: if (s == 1) { set_sprite_tile(id,101); }
	ld	a, d
	dec	a
	jr	NZ, 00104$
;c:/gbdk/include/gb/gb.h:1602: shadow_OAM[nb].tile=tile;
	ld	bc, #_shadow_OAM+0
	ld	l, e
;	spillPairReg hl
;	spillPairReg hl
	ld	h, #0x00
;	spillPairReg hl
;	spillPairReg hl
	add	hl, hl
	add	hl, hl
	add	hl, bc
	inc	hl
	inc	hl
	ld	(hl), #0x65
;src/score.c:11: if (s == 1) { set_sprite_tile(id,101); }
00104$:
;src/score.c:12: if (s == 2) { set_sprite_tile(id,102); }
	ld	a, d
	sub	a, #0x02
	jr	NZ, 00106$
;c:/gbdk/include/gb/gb.h:1602: shadow_OAM[nb].tile=tile;
	ld	bc, #_shadow_OAM+0
	ld	l, e
;	spillPairReg hl
;	spillPairReg hl
	ld	h, #0x00
;	spillPairReg hl
;	spillPairReg hl
	add	hl, hl
	add	hl, hl
	add	hl, bc
	inc	hl
	inc	hl
	ld	(hl), #0x66
;src/score.c:12: if (s == 2) { set_sprite_tile(id,102); }
00106$:
;src/score.c:13: if (s == 3) { set_sprite_tile(id,103); }
	ld	a, d
	sub	a, #0x03
	jr	NZ, 00108$
;c:/gbdk/include/gb/gb.h:1602: shadow_OAM[nb].tile=tile;
	ld	bc, #_shadow_OAM+0
	ld	l, e
;	spillPairReg hl
;	spillPairReg hl
	ld	h, #0x00
;	spillPairReg hl
;	spillPairReg hl
	add	hl, hl
	add	hl, hl
	add	hl, bc
	inc	hl
	inc	hl
	ld	(hl), #0x67
;src/score.c:13: if (s == 3) { set_sprite_tile(id,103); }
00108$:
;src/score.c:14: if (s == 4) { set_sprite_tile(id,104); }
	ld	a, d
	sub	a, #0x04
	jr	NZ, 00110$
;c:/gbdk/include/gb/gb.h:1602: shadow_OAM[nb].tile=tile;
	ld	bc, #_shadow_OAM+0
	ld	l, e
;	spillPairReg hl
;	spillPairReg hl
	ld	h, #0x00
;	spillPairReg hl
;	spillPairReg hl
	add	hl, hl
	add	hl, hl
	add	hl, bc
	inc	hl
	inc	hl
	ld	(hl), #0x68
;src/score.c:14: if (s == 4) { set_sprite_tile(id,104); }
00110$:
;src/score.c:15: if (s == 5) { set_sprite_tile(id,105); }
	ld	a, d
	sub	a, #0x05
	jr	NZ, 00112$
;c:/gbdk/include/gb/gb.h:1602: shadow_OAM[nb].tile=tile;
	ld	bc, #_shadow_OAM+0
	ld	l, e
;	spillPairReg hl
;	spillPairReg hl
	ld	h, #0x00
;	spillPairReg hl
;	spillPairReg hl
	add	hl, hl
	add	hl, hl
	add	hl, bc
	inc	hl
	inc	hl
	ld	(hl), #0x69
;src/score.c:15: if (s == 5) { set_sprite_tile(id,105); }
00112$:
;src/score.c:16: if (s == 6) { set_sprite_tile(id,106); }
	ld	a, d
	sub	a, #0x06
	jr	NZ, 00114$
;c:/gbdk/include/gb/gb.h:1602: shadow_OAM[nb].tile=tile;
	ld	bc, #_shadow_OAM+0
	ld	l, e
;	spillPairReg hl
;	spillPairReg hl
	ld	h, #0x00
;	spillPairReg hl
;	spillPairReg hl
	add	hl, hl
	add	hl, hl
	add	hl, bc
	inc	hl
	inc	hl
	ld	(hl), #0x6a
;src/score.c:16: if (s == 6) { set_sprite_tile(id,106); }
00114$:
;src/score.c:17: if (s == 7) { set_sprite_tile(id,107); }
	ld	a, d
	sub	a, #0x07
	jr	NZ, 00116$
;c:/gbdk/include/gb/gb.h:1602: shadow_OAM[nb].tile=tile;
	ld	bc, #_shadow_OAM+0
	ld	l, e
;	spillPairReg hl
;	spillPairReg hl
	ld	h, #0x00
;	spillPairReg hl
;	spillPairReg hl
	add	hl, hl
	add	hl, hl
	add	hl, bc
	inc	hl
	inc	hl
	ld	(hl), #0x6b
;src/score.c:17: if (s == 7) { set_sprite_tile(id,107); }
00116$:
;src/score.c:18: if (s == 8) { set_sprite_tile(id,108); }
	ld	a, d
	sub	a, #0x08
	jr	NZ, 00118$
;c:/gbdk/include/gb/gb.h:1602: shadow_OAM[nb].tile=tile;
	ld	bc, #_shadow_OAM+0
	ld	l, e
;	spillPairReg hl
;	spillPairReg hl
	ld	h, #0x00
;	spillPairReg hl
;	spillPairReg hl
	add	hl, hl
	add	hl, hl
	add	hl, bc
	inc	hl
	inc	hl
	ld	(hl), #0x6c
;src/score.c:18: if (s == 8) { set_sprite_tile(id,108); }
00118$:
;src/score.c:19: if (s == 9) { set_sprite_tile(id,109); }
	ld	a, d
	sub	a, #0x09
	jr	NZ, 00120$
;c:/gbdk/include/gb/gb.h:1602: shadow_OAM[nb].tile=tile;
	ld	bc, #_shadow_OAM+0
	ld	l, e
;	spillPairReg hl
;	spillPairReg hl
	ld	h, #0x00
;	spillPairReg hl
;	spillPairReg hl
	add	hl, hl
	add	hl, hl
	add	hl, bc
	inc	hl
	inc	hl
	ld	(hl), #0x6d
;src/score.c:19: if (s == 9) { set_sprite_tile(id,109); }
00120$:
;src/score.c:20: move_sprite(id,x,152);
	ldhl	sp,	#2
	ld	c, (hl)
;c:/gbdk/include/gb/gb.h:1675: OAM_item_t * itm = &shadow_OAM[nb];
	ld	l, e
;	spillPairReg hl
;	spillPairReg hl
	ld	h, #0x00
;	spillPairReg hl
;	spillPairReg hl
	add	hl, hl
	add	hl, hl
	ld	de, #_shadow_OAM
	add	hl, de
;c:/gbdk/include/gb/gb.h:1676: itm->y=y, itm->x=x;
	ld	(hl), #0x98
	inc	hl
	ld	(hl), c
;src/score.c:20: move_sprite(id,x,152);
;src/score.c:21: }
	pop	hl
	inc	sp
	jp	(hl)
;src/score.c:23: void scoreUpdate() {
;	---------------------------------
; Function scoreUpdate
; ---------------------------------
_scoreUpdate::
;src/score.c:24: scoreDisplay(score10000, 30,  8);
	ld	a, #0x08
	push	af
	inc	sp
	ld	e, #0x1e
	ld	a, (#_score10000)
	call	_scoreDisplay
;src/score.c:25: scoreDisplay(score1000,  31, 16);
	ld	a, #0x10
	push	af
	inc	sp
	ld	e, #0x1f
	ld	a, (#_score1000)
	call	_scoreDisplay
;src/score.c:26: scoreDisplay(score100,   32, 24);
	ld	a, #0x18
	push	af
	inc	sp
	ld	e, #0x20
	ld	a, (#_score100)
	call	_scoreDisplay
;src/score.c:27: scoreDisplay(score10,    33, 32);
	ld	a, #0x20
	push	af
	inc	sp
	ld	e, #0x21
	ld	a, (#_score10)
	call	_scoreDisplay
;src/score.c:28: scoreDisplay(score1,     34, 40);
	ld	a, #0x28
	push	af
	inc	sp
	ld	e, #0x22
	ld	a, (#_score1)
	call	_scoreDisplay
;c:/gbdk/include/gb/gb.h:1602: shadow_OAM[nb].tile=tile;
	ld	hl, #(_shadow_OAM + 142)
	ld	(hl), #0x64
;c:/gbdk/include/gb/gb.h:1675: OAM_item_t * itm = &shadow_OAM[nb];
	ld	hl, #(_shadow_OAM + 140)
;c:/gbdk/include/gb/gb.h:1676: itm->y=y, itm->x=x;
	ld	a, #0x98
	ld	(hl+), a
	ld	(hl), #0x30
;src/score.c:31: if (score1 >= 10) { score10 ++; score1 -= 10;}
	ld	a, (#_score1)
	sub	a, #0x0a
	ret	C
	ld	hl, #_score10
	inc	(hl)
	ld	hl, #_score1
	ld	a, (hl)
	add	a, #0xf6
	ld	(hl), a
;src/score.c:32: }
	ret
;src/score.c:34: void scoreInit() {
;	---------------------------------
; Function scoreInit
; ---------------------------------
_scoreInit::
;src/score.c:35: score10000 = 0;
	ld	hl, #_score10000
	ld	(hl), #0x00
;src/score.c:36: score1000  = 0;
	ld	hl, #_score1000
	ld	(hl), #0x00
;src/score.c:37: score100   = 0;
	ld	hl, #_score100
	ld	(hl), #0x00
;src/score.c:38: score10    = 0;
	ld	hl, #_score10
	ld	(hl), #0x00
;src/score.c:39: score1     = 0;
	ld	hl, #_score1
	ld	(hl), #0x00
;src/score.c:40: }
	ret
;src/level1_background.c:10: void interruptLCD() {
;	---------------------------------
; Function interruptLCD
; ---------------------------------
_interruptLCD::
;src/level1_background.c:11: switch (LYC_REG) {
	ldh	a, (_LYC_REG + 0)
	or	a, a
	jr	Z, 00101$
	cp	a, #0x68
	jr	Z, 00102$
	sub	a, #0x70
	jr	Z, 00103$
	ret
;src/level1_background.c:12: case 0x00: move_bkg(background_offset_1,0); LYC_REG = 0x68; break;
00101$:
	ld	a, (#_background_offset_1)
	ldh	(_SCX_REG + 0), a
;c:/gbdk/include/gb/gb.h:1208: SCX_REG=x, SCY_REG=y;
	xor	a, a
	ldh	(_SCY_REG + 0), a
;src/level1_background.c:12: case 0x00: move_bkg(background_offset_1,0); LYC_REG = 0x68; break;
	ld	a, #0x68
	ldh	(_LYC_REG + 0), a
	ret
;src/level1_background.c:13: case 0x68: move_bkg(background_offset_2,0); LYC_REG = 0x70; break;
00102$:
	ld	a, (#_background_offset_2)
	ldh	(_SCX_REG + 0), a
;c:/gbdk/include/gb/gb.h:1208: SCX_REG=x, SCY_REG=y;
	xor	a, a
	ldh	(_SCY_REG + 0), a
;src/level1_background.c:13: case 0x68: move_bkg(background_offset_2,0); LYC_REG = 0x70; break;
	ld	a, #0x70
	ldh	(_LYC_REG + 0), a
	ret
;src/level1_background.c:14: case 0x70: move_bkg(background_offset_3,0); LYC_REG = 0x00; break;
00103$:
	ld	a, (#_background_offset_3)
	ldh	(_SCX_REG + 0), a
;c:/gbdk/include/gb/gb.h:1208: SCX_REG=x, SCY_REG=y;
	xor	a, a
	ldh	(_SCY_REG + 0), a
;src/level1_background.c:14: case 0x70: move_bkg(background_offset_3,0); LYC_REG = 0x00; break;
	xor	a, a
	ldh	(_LYC_REG + 0), a
;src/level1_background.c:15: }
;src/level1_background.c:16: }
	ret
_level1_tiles:
	.db #0x00	; 0
	.db #0x00	; 0
	.db #0x00	; 0
	.db #0x00	; 0
	.db #0x00	; 0
	.db #0x00	; 0
	.db #0x00	; 0
	.db #0x00	; 0
	.db #0x00	; 0
	.db #0x00	; 0
	.db #0x00	; 0
	.db #0x00	; 0
	.db #0x00	; 0
	.db #0x00	; 0
	.db #0x00	; 0
	.db #0x00	; 0
	.db #0xff	; 255
	.db #0xff	; 255
	.db #0xff	; 255
	.db #0xff	; 255
	.db #0xff	; 255
	.db #0xdf	; 223
	.db #0xef	; 239
	.db #0x9d	; 157
	.db #0xe5	; 229
	.db #0x1b	; 27
	.db #0xc4	; 196
	.db #0x3f	; 63
	.db #0x4f	; 79	'O'
	.db #0xff	; 255
	.db #0xff	; 255
	.db #0xff	; 255
	.db #0xff	; 255
	.db #0xff	; 255
	.db #0xff	; 255
	.db #0xdf	; 223
	.db #0xff	; 255
	.db #0xff	; 255
	.db #0xff	; 255
	.db #0xef	; 239
	.db #0xff	; 255
	.db #0xfd	; 253
	.db #0xff	; 255
	.db #0xff	; 255
	.db #0xff	; 255
	.db #0xbb	; 187
	.db #0xff	; 255
	.db #0xff	; 255
	.db #0xff	; 255
	.db #0xff	; 255
	.db #0xff	; 255
	.db #0xff	; 255
	.db #0xff	; 255
	.db #0xdf	; 223
	.db #0xef	; 239
	.db #0x9d	; 157
	.db #0xe4	; 228
	.db #0x1b	; 27
	.db #0xc4	; 196
	.db #0x3f	; 63
	.db #0x4f	; 79	'O'
	.db #0xff	; 255
	.db #0xff	; 255
	.db #0xff	; 255
	.db #0xff	; 255
	.db #0xff	; 255
	.db #0xff	; 255
	.db #0xff	; 255
	.db #0xff	; 255
	.db #0xfb	; 251
	.db #0xff	; 255
	.db #0xf1	; 241
	.db #0xff	; 255
	.db #0xe0	; 224
	.db #0xff	; 255
	.db #0xc0	; 192
	.db #0xfe	; 254
	.db #0x81	; 129
	.db #0xfc	; 252
	.db #0x03	; 3
	.db #0xff	; 255
	.db #0xff	; 255
	.db #0xff	; 255
	.db #0xff	; 255
	.db #0xff	; 255
	.db #0xff	; 255
	.db #0xff	; 255
	.db #0xff	; 255
	.db #0xff	; 255
	.db #0xfb	; 251
	.db #0x7f	; 127
	.db #0xf1	; 241
	.db #0x3f	; 63
	.db #0xe0	; 224
	.db #0x1f	; 31
	.db #0xe0	; 224
	.db #0xf8	; 248
	.db #0x07	; 7
	.db #0xf0	; 240
	.db #0x0f	; 15
	.db #0xe0	; 224
	.db #0x1f	; 31
	.db #0xc0	; 192
	.db #0x3f	; 63
	.db #0x90	; 144
	.db #0x7f	; 127
	.db #0x38	; 56	'8'
	.db #0xff	; 255
	.db #0xff	; 255
	.db #0xff	; 255
	.db #0xff	; 255
	.db #0xff	; 255
	.db #0x00	; 0
	.db #0xff	; 255
	.db #0x08	; 8
	.db #0xff	; 255
	.db #0x1c	; 28
	.db #0xff	; 255
	.db #0x3f	; 63
	.db #0xff	; 255
	.db #0x7f	; 127
	.db #0xff	; 255
	.db #0xff	; 255
	.db #0xff	; 255
	.db #0xff	; 255
	.db #0xff	; 255
	.db #0xff	; 255
	.db #0xff	; 255
	.db #0xff	; 255
	.db #0xff	; 255
	.db #0xff	; 255
	.db #0xdf	; 223
	.db #0xff	; 255
	.db #0xff	; 255
	.db #0xef	; 239
	.db #0xef	; 239
	.db #0xff	; 255
	.db #0xfd	; 253
	.db #0xff	; 255
	.db #0xff	; 255
	.db #0xfb	; 251
	.db #0xbb	; 187
	.db #0xff	; 255
	.db #0xff	; 255
	.db #0xff	; 255
	.db #0xff	; 255
	.db #0xff	; 255
	.db #0x7f	; 127
	.db #0xff	; 255
	.db #0xfb	; 251
	.db #0xff	; 255
	.db #0xff	; 255
	.db #0xf7	; 247
	.db #0xf7	; 247
	.db #0xff	; 255
	.db #0xfd	; 253
	.db #0xbf	; 191
	.db #0xbf	; 191
	.db #0xff	; 255
	.db #0xff	; 255
	.db #0xfe	; 254
	.db #0xfe	; 254
	.db #0xff	; 255
	.db #0xbf	; 191
	.db #0xf7	; 247
	.db #0xf7	; 247
	.db #0xff	; 255
	.db #0xdf	; 223
	.db #0xff	; 255
	.db #0xff	; 255
	.db #0xff	; 255
	.db #0xff	; 255
	.db #0xdf	; 223
	.db #0xdf	; 223
	.db #0xfd	; 253
	.db #0xfd	; 253
	.db #0xff	; 255
	.db #0xff	; 255
	.db #0xff	; 255
	.db #0xfd	; 253
	.db #0xff	; 255
	.db #0xbf	; 191
	.db #0xff	; 255
	.db #0xff	; 255
	.db #0xff	; 255
	.db #0xff	; 255
	.db #0xff	; 255
	.db #0xff	; 255
	.db #0xff	; 255
	.db #0xf7	; 247
	.db #0xff	; 255
	.db #0xbf	; 191
	.db #0xff	; 255
	.db #0xff	; 255
	.db #0xff	; 255
	.db #0xff	; 255
	.db #0xff	; 255
	.db #0xff	; 255
	.db #0xff	; 255
	.db #0xff	; 255
	.db #0xff	; 255
	.db #0xff	; 255
	.db #0xff	; 255
	.db #0xff	; 255
	.db #0xff	; 255
	.db #0xff	; 255
	.db #0xff	; 255
	.db #0xff	; 255
;src/level1_background.c:18: void level1_bkg_init() {
;	---------------------------------
; Function level1_bkg_init
; ---------------------------------
_level1_bkg_init::
;src/level1_background.c:19: timer = 0;
	ld	hl, #_timer
	ld	(hl), #0x00
;src/level1_background.c:20: set_bkg_tiles(0,0,80,18,level1_map);       // Sets the map.
	ld	de, #_level1_map
	push	de
	ld	hl, #0x1250
	push	hl
	xor	a, a
	rrca
	push	af
	call	_set_bkg_tiles
	add	sp, #6
;src/level1_background.c:21: set_bkg_data(0,13,level1_tiles);            // Sets the tileset.
	ld	de, #_level1_tiles
	push	de
	ld	hl, #0xd00
	push	hl
	call	_set_bkg_data
	add	sp, #4
;src/level1_background.c:22: STAT_REG = 0x45;
	ld	a, #0x45
	ldh	(_STAT_REG + 0), a
;src/level1_background.c:23: LYC_REG  = 0x00; // First line. ( 00 / 78 / 80 )
	ld	a, #0x00
	ldh	(_LYC_REG + 0), a
;c:/gbdk/include/gb/gb.h:743: __asm__("di");
	di
;src/level1_background.c:25: add_LCD(interruptLCD);
	ld	de, #_interruptLCD
	push	de
	call	_add_LCD
	inc	sp
	inc	sp
;c:/gbdk/include/gb/gb.h:727: __asm__("ei");
	ei
;src/level1_background.c:27: set_interrupts(VBL_IFLAG | LCD_IFLAG);
	ld	a, #0x03
	push	af
	inc	sp
	call	_set_interrupts
	inc	sp
;src/level1_background.c:28: SHOW_BKG;
	ldh	a, (_LCDC_REG + 0)
	or	a, #0x01
	ldh	(_LCDC_REG + 0), a
;src/level1_background.c:29: }
	ret
;src/level1_background.c:31: void level1_bkg_update() {
;	---------------------------------
; Function level1_bkg_update
; ---------------------------------
_level1_bkg_update::
;src/level1_background.c:32: timer++;
	ld	hl, #_timer
	inc	(hl)
;src/level1_background.c:33: if (timer == 2) {
	ld	a, (hl)
	sub	a, #0x02
	ret	NZ
;src/level1_background.c:34: background_offset_1 += 1;
	ld	hl, #_background_offset_1
	inc	(hl)
;src/level1_background.c:35: background_offset_2 += 3;
	ld	hl, #_background_offset_2
	ld	a, (hl)
	add	a, #0x03
	ld	(hl), a
;src/level1_background.c:36: background_offset_3 += 5;
	ld	hl, #_background_offset_3
	ld	a, (hl)
	add	a, #0x05
	ld	(hl), a
;src/level1_background.c:37: timer = 0;
	ld	hl, #_timer
	ld	(hl), #0x00
;src/level1_background.c:39: }
	ret
;src/enemy.c:11: void moveEnemy(struct Enemy * m)		{ move_sprite( m-> id , m -> x , m -> y); }
;	---------------------------------
; Function moveEnemy
; ---------------------------------
_moveEnemy::
	ld	l, e
;	spillPairReg hl
;	spillPairReg hl
	ld	h, d
;	spillPairReg hl
;	spillPairReg hl
	inc	hl
	inc	hl
	ld	b, (hl)
	ld	a, (de)
	ld	c, a
	ld	hl, #0x0004
	add	hl, de
;c:/gbdk/include/gb/gb.h:1675: OAM_item_t * itm = &shadow_OAM[nb];
	ld	l, (hl)
;	spillPairReg hl
;	spillPairReg hl
	ld	h, #0x00
;	spillPairReg hl
;	spillPairReg hl
	add	hl, hl
	add	hl, hl
	ld	de, #_shadow_OAM
	add	hl, de
;c:/gbdk/include/gb/gb.h:1676: itm->y=y, itm->x=x;
	ld	a, b
	ld	(hl+), a
	ld	(hl), c
;src/enemy.c:11: void moveEnemy(struct Enemy * m)		{ move_sprite( m-> id , m -> x , m -> y); }
	ret
;src/enemy.c:12: void activateEnemy(struct Enemy * m)	{ m -> active = 1; }
;	---------------------------------
; Function activateEnemy
; ---------------------------------
_activateEnemy::
	ld	hl, #0x0007
	add	hl, de
	ld	(hl), #0x01
	ret
;src/enemy.c:13: void deactivateEnemy(struct Enemy * m)	{ m -> active = 0; }
;	---------------------------------
; Function deactivateEnemy
; ---------------------------------
_deactivateEnemy::
	ld	hl, #0x0007
	add	hl, de
	ld	(hl), #0x00
	ret
;src/enemy.c:15: void goToNode(struct Enemy * m, struct Node * n) {
;	---------------------------------
; Function goToNode
; ---------------------------------
_goToNode::
	ld	l, e
;	spillPairReg hl
;	spillPairReg hl
	ld	h, d
;	spillPairReg hl
;	spillPairReg hl
;src/enemy.c:16: if ( m -> x > n -> x) { m -> x --; }    // If monster x > node x. Mode left.
	ld	e, (hl)
	ld	a, (bc)
	sub	a, e
	jr	NC, 00102$
	dec	e
	ld	(hl), e
00102$:
	ld	e, (hl)
;src/enemy.c:17: if ( m -> x < n -> x) { m -> x ++; }    // If monster x < ndoe x. Move right.
	ld	a, (bc)
	ld	d, a
	ld	a, e
	sub	a, d
	jr	NC, 00104$
	inc	e
	ld	(hl), e
00104$:
;src/enemy.c:18: if ( m -> y > n -> y) { m -> y --; }    // If monster y > node y. Move up.
	inc	hl
	inc	hl
	ld	e, (hl)
	inc	bc
	ld	a, (bc)
	sub	a, e
	jr	NC, 00106$
	dec	e
	ld	(hl), e
00106$:
	ld	e, (hl)
;src/enemy.c:19: if ( m -> y < n -> y) { m -> y ++; }    // If monster y < node y. Move down.
	ld	a, (bc)
	ld	c, a
	ld	a, e
	sub	a, c
	ret	NC
	inc	e
	ld	(hl), e
;src/enemy.c:20: }
	ret
;src/enemy.c:22: void enemyInit(struct Enemy * m, uint8_t id, uint8_t x, uint8_t y, uint8_t sprite, uint8_t h) {
;	---------------------------------
; Function enemyInit
; ---------------------------------
_enemyInit::
	dec	sp
	ldhl	sp,	#0
	ld	(hl), a
;src/enemy.c:23: m -> active 		=	1;
	ld	hl, #0x0007
	add	hl, de
	ld	(hl), #0x01
;src/enemy.c:24: m -> x      		=	x;
	ldhl	sp,	#3
	ld	a, (hl)
	ld	(de), a
;src/enemy.c:25: m -> startx 		=	x;
	ld	c, e
	ld	b, d
	inc	bc
;src/enemy.c:26: m -> y      		=	y;
	ld	a, (hl+)
	ld	(bc), a
	ld	c, e
	ld	b, d
	inc	bc
	inc	bc
	ld	a, (hl)
	ld	(bc), a
;src/enemy.c:27: m -> starty 		=	y;
	ld	c, e
	ld	b, d
	inc	bc
	inc	bc
	inc	bc
	ld	a, (hl)
	ld	(bc), a
;src/enemy.c:28: m -> id     		=	id;
	ld	hl, #0x0004
	add	hl, de
	ld	c, l
	ld	b, h
	ldhl	sp,	#0
	ld	a, (hl)
	ld	(bc), a
;src/enemy.c:29: m -> currentNode 	= 	0;
	ld	hl, #0x0005
	add	hl, de
	ld	(hl), #0x00
;src/enemy.c:30: m -> health         =   h;
	ld	hl, #0x0006
	add	hl, de
	ld	c, l
	ld	b, h
	ldhl	sp,	#6
;src/enemy.c:31: set_sprite_tile(m -> id , sprite);
	ld	a, (hl-)
	ld	(bc), a
	ld	c, (hl)
;c:/gbdk/include/gb/gb.h:1602: shadow_OAM[nb].tile=tile;
	ld	de, #_shadow_OAM+0
	ldhl	sp,	#0
	ld	a, (hl)
	ld	b, #0x00
	ld	l, a
	ld	h, b
	add	hl, hl
	add	hl, hl
	add	hl, de
	inc	hl
	inc	hl
	ld	(hl), c
;src/enemy.c:31: set_sprite_tile(m -> id , sprite);
;src/enemy.c:32: }
	inc	sp
	pop	hl
	add	sp, #4
	jp	(hl)
;src/enemy.c:34: void enemyUpdate(struct Enemy * m) {
;	---------------------------------
; Function enemyUpdate
; ---------------------------------
_enemyUpdate::
	add	sp, #-14
	ldhl	sp,	#12
	ld	a, e
	ld	(hl+), a
;src/enemy.c:35: if ( m -> active) { 
	ld	a, d
	ld	(hl-), a
	ld	a, (hl+)
	ld	e, a
	ld	d, (hl)
	ld	hl, #0x0007
	add	hl, de
	inc	sp
	inc	sp
	ld	e, l
	ld	d, h
	push	de
	ld	a, (de)
	ldhl	sp,	#11
;src/enemy.c:37: if ( m -> x == m -> node[ m -> currentNode ].x && m -> y == m -> node [ m -> currentNode ].y) { m -> currentNode ++; }
	ld	(hl+), a
	ld	a, (hl+)
	ld	e, a
	ld	d, (hl)
	ld	hl, #0x0002
	add	hl, de
	push	hl
	ld	a, l
	ldhl	sp,	#4
	ld	(hl), a
	pop	hl
	ld	a, h
	ldhl	sp,	#3
	ld	(hl), a
;src/enemy.c:35: if ( m -> active) { 
	ldhl	sp,	#11
	ld	a, (hl)
	or	a, a
	jp	Z, 00107$
;src/enemy.c:36: moveEnemy(m);
	inc	hl
	ld	a, (hl+)
	ld	e, a
	ld	d, (hl)
	call	_moveEnemy
;src/enemy.c:37: if ( m -> x == m -> node[ m -> currentNode ].x && m -> y == m -> node [ m -> currentNode ].y) { m -> currentNode ++; }
	ldhl	sp,#12
	ld	a, (hl+)
	ld	e, a
	ld	d, (hl)
	ld	a, (de)
	ldhl	sp,	#4
	ld	(hl), a
	ldhl	sp,#12
	ld	a, (hl+)
	ld	e, a
	ld	d, (hl)
	ld	hl, #0x0008
	add	hl, de
	push	hl
	ld	a, l
	ldhl	sp,	#7
	ld	(hl), a
	pop	hl
	ld	a, h
	ldhl	sp,	#6
	ld	(hl), a
	ldhl	sp,#12
	ld	a, (hl+)
	ld	e, a
	ld	d, (hl)
	ld	hl, #0x0005
	add	hl, de
	push	hl
	ld	a, l
	ldhl	sp,	#9
	ld	(hl), a
	pop	hl
	ld	a, h
	ldhl	sp,	#8
	ld	(hl-), a
	ld	a, (hl+)
	ld	e, a
	ld	a, (hl+)
	ld	d, a
	ld	a, (de)
	ld	(hl+), a
	inc	hl
	add	a, a
	ld	(hl), a
	ld	e, (hl)
	ld	d, #0x00
	ldhl	sp,	#5
	ld	a,	(hl+)
	ld	h, (hl)
	ld	l, a
	add	hl, de
	push	hl
	ld	a, l
	ldhl	sp,	#12
	ld	(hl), a
	pop	hl
	ld	a, h
	ldhl	sp,	#11
	ld	(hl-), a
	ld	a, (hl+)
	ld	e, a
	ld	d, (hl)
	ld	a, (de)
	ld	c, a
	ldhl	sp,	#4
	ld	a, (hl)
	sub	a, c
	jr	NZ, 00102$
	ldhl	sp,#2
	ld	a, (hl+)
	ld	e, a
	ld	d, (hl)
	ld	a, (de)
	ldhl	sp,	#10
	ld	e, (hl)
	inc	hl
	ld	h, (hl)
;	spillPairReg hl
;	spillPairReg hl
	ld	l, e
;	spillPairReg hl
;	spillPairReg hl
	inc	hl
	ld	c, (hl)
	sub	a, c
	jr	NZ, 00102$
	ldhl	sp,	#9
	ld	a, (hl-)
	ld	c, a
	inc	c
	ld	a, (hl-)
	ld	l, (hl)
	ld	h, a
	ld	(hl), c
00102$:
;src/enemy.c:38: goToNode (m, & m -> node[m -> currentNode]);
	ldhl	sp,#7
	ld	a, (hl+)
	ld	e, a
	ld	d, (hl)
	ld	a, (de)
	add	a, a
	ld	e, a
	ld	d, #0x00
	ldhl	sp,	#5
	ld	a,	(hl+)
	ld	h, (hl)
	ld	l, a
	add	hl, de
	ld	c, l
	ld	b, h
	ldhl	sp,	#12
	ld	a, (hl+)
	ld	e, a
	ld	d, (hl)
	call	_goToNode
;src/enemy.c:39: if (m -> currentNode == 4) { m -> active = 0; }
	ldhl	sp,#7
	ld	a, (hl+)
	ld	e, a
	ld	d, (hl)
	ld	a, (de)
	sub	a, #0x04
	jr	NZ, 00107$
	pop	hl
	ld	(hl), #0x00
	push	hl
00107$:
;src/enemy.c:42: if ( m -> active == 0 ) {
	pop	de
	push	de
	ld	a, (de)
	or	a, a
	jr	NZ, 00110$
;src/enemy.c:43: m -> x = 0;
	ldhl	sp,	#12
	ld	a,	(hl+)
	ld	h, (hl)
	ld	l, a
	ld	(hl), #0x00
;src/enemy.c:44: m -> y = 0;
	ldhl	sp,	#2
	ld	a,	(hl+)
	ld	h, (hl)
	ld	l, a
	ld	(hl), #0x00
;src/enemy.c:45: moveEnemy(m);
	ldhl	sp,	#12
	ld	a, (hl+)
	ld	e, a
	ld	d, (hl)
	call	_moveEnemy
00110$:
;src/enemy.c:47: }
	add	sp, #14
	ret
;src/enemy.c:49: void squarePattern(struct Enemy * m, uint8_t distance) {	
;	---------------------------------
; Function squarePattern
; ---------------------------------
_squarePattern::
	add	sp, #-9
	ldhl	sp,	#7
	ld	(hl), e
	inc	hl
	ld	(hl), d
	dec	hl
	dec	hl
;src/enemy.c:50: m -> node[0].x = m -> startx;                   m -> node[0].y = m -> starty;                   // Start
	ld	(hl+), a
	ld	a, (hl+)
	ld	e, a
	ld	d, (hl)
	ld	hl, #0x0008
	add	hl, de
	ld	e, l
	ld	d, h
	ldhl	sp,	#7
	ld	a, (hl+)
	ld	c, a
	ld	b, (hl)
	inc	bc
	ld	a, (bc)
	ldhl	sp,	#5
	ld	(hl+), a
	inc	hl
	ld	(de), a
	ld	c, e
	ld	b, d
	inc	bc
	ld	a, (hl+)
	ld	h, (hl)
;	spillPairReg hl
;	spillPairReg hl
	ld	l, a
;	spillPairReg hl
;	spillPairReg hl
	inc	hl
	inc	hl
	inc	hl
	ld	a, (hl)
	ld	(bc), a
;src/enemy.c:51: m -> node[1].x = m -> node[0].x -= distance;    m -> node[1].y = m -> node[0].y;                // Move Left
	ld	c, e
	ld	b, d
	inc	bc
	inc	bc
	ldhl	sp,	#5
	ld	a, (hl+)
	sub	a, (hl)
	inc	hl
	ld	(de), a
	ld	(bc), a
	ld	a, (hl+)
	ld	e, a
	ld	d, (hl)
	ld	hl, #0x0008
	add	hl, de
	inc	sp
	inc	sp
	ld	e, l
	ld	d, h
	push	de
	inc	de
	inc	de
	pop	bc
	push	bc
	inc	bc
	inc	bc
	inc	bc
	pop	hl
	push	hl
	inc	hl
	ld	a, (hl)
	ldhl	sp,#5
	ld	(hl), a
	ld	(bc), a
;src/enemy.c:52: m -> node[2].x = m -> node[1].x;                m -> node[2].y = m -> node[1].y += distance;    // Move Down
	push	de
	ldhl	sp,#2
	ld	a, (hl+)
	ld	e, a
	ld	d, (hl)
	ld	hl, #0x0004
	add	hl, de
	pop	de
	push	hl
	ld	a, l
	ldhl	sp,	#4
	ld	(hl), a
	pop	hl
	ld	a, h
	ldhl	sp,	#3
	ld	(hl+), a
	ld	a, (de)
	ld	(hl-), a
	dec	hl
	ld	a, (hl+)
	ld	e, a
	ld	a, (hl+)
	ld	d, a
	ld	a, (hl)
	ld	(de), a
	pop	de
	push	de
	ld	hl, #0x0005
	add	hl, de
	ld	e, l
	ld	d, h
	ldhl	sp,	#5
	ld	a, (hl+)
	add	a, (hl)
	dec	hl
	ld	(hl), a
	ld	(bc), a
	ld	(de), a
;src/enemy.c:53: m -> node[3].x = m -> node[2].x += distance;    m -> node[3].y = m -> node[2].y;                // Move Right
	pop	de
	push	de
	ld	hl, #0x0006
	add	hl, de
	ld	c, l
	ld	b, h
	ldhl	sp,	#4
	ld	a, (hl+)
	inc	hl
	add	a, (hl)
	ldhl	sp,	#2
	push	af
	ld	a,	(hl+)
	ld	h, (hl)
	ld	l, a
	pop	af
	ld	(hl), a
	ld	(bc), a
	pop	de
	push	de
	ld	hl, #0x0007
	add	hl, de
	ld	c, l
	ld	b, h
	ldhl	sp,	#5
	ld	a, (hl)
	ld	(bc), a
;src/enemy.c:54: }
	add	sp, #9
	ret
;src/enemy.c:56: void squarePatternR(struct Enemy * m, uint8_t distance) {	
;	---------------------------------
; Function squarePatternR
; ---------------------------------
_squarePatternR::
	add	sp, #-9
	ldhl	sp,	#7
	ld	(hl), e
	inc	hl
	ld	(hl), d
	dec	hl
	dec	hl
;src/enemy.c:57: m -> node[0].x = m -> startx;                   m -> node[0].y = m -> starty;                   // Start
	ld	(hl+), a
	ld	a, (hl+)
	ld	e, a
	ld	d, (hl)
	ld	hl, #0x0008
	add	hl, de
	ld	e, l
	ld	d, h
	ldhl	sp,	#7
	ld	a, (hl+)
	ld	c, a
	ld	b, (hl)
	inc	bc
	ld	a, (bc)
	ldhl	sp,	#5
	ld	(hl+), a
	inc	hl
	ld	(de), a
	ld	c, e
	ld	b, d
	inc	bc
	ld	a, (hl+)
	ld	h, (hl)
;	spillPairReg hl
;	spillPairReg hl
	ld	l, a
;	spillPairReg hl
;	spillPairReg hl
	inc	hl
	inc	hl
	inc	hl
	ld	a, (hl)
	ld	(bc), a
;src/enemy.c:58: m -> node[1].x = m -> node[0].x -= distance;    m -> node[1].y = m -> node[0].y;                // Move Left
	ld	c, e
	ld	b, d
	inc	bc
	inc	bc
	ldhl	sp,	#5
	ld	a, (hl+)
	sub	a, (hl)
	inc	hl
	ld	(de), a
	ld	(bc), a
	ld	a, (hl+)
	ld	e, a
	ld	d, (hl)
	ld	hl, #0x0008
	add	hl, de
	inc	sp
	inc	sp
	ld	e, l
	ld	d, h
	push	de
	inc	de
	inc	de
	pop	bc
	push	bc
	inc	bc
	inc	bc
	inc	bc
	pop	hl
	push	hl
	inc	hl
	ld	a, (hl)
	ldhl	sp,#5
	ld	(hl), a
	ld	(bc), a
;src/enemy.c:59: m -> node[2].x = m -> node[1].x;                m -> node[2].y = m -> node[1].y -= distance;    // Move Up
	push	de
	ldhl	sp,#2
	ld	a, (hl+)
	ld	e, a
	ld	d, (hl)
	ld	hl, #0x0004
	add	hl, de
	pop	de
	push	hl
	ld	a, l
	ldhl	sp,	#4
	ld	(hl), a
	pop	hl
	ld	a, h
	ldhl	sp,	#3
	ld	(hl+), a
	ld	a, (de)
	ld	(hl-), a
	dec	hl
	ld	a, (hl+)
	ld	e, a
	ld	a, (hl+)
	ld	d, a
	ld	a, (hl)
	ld	(de), a
	pop	de
	push	de
	ld	hl, #0x0005
	add	hl, de
	ld	e, l
	ld	d, h
	ldhl	sp,	#5
	ld	a, (hl+)
	sub	a, (hl)
	dec	hl
	ld	(hl), a
	ld	(bc), a
	ld	(de), a
;src/enemy.c:60: m -> node[3].x = m -> node[2].x += distance;    m -> node[3].y = m -> node[2].y;                // Move Right
	pop	de
	push	de
	ld	hl, #0x0006
	add	hl, de
	ld	c, l
	ld	b, h
	ldhl	sp,	#4
	ld	a, (hl+)
	inc	hl
	add	a, (hl)
	ldhl	sp,	#2
	push	af
	ld	a,	(hl+)
	ld	h, (hl)
	ld	l, a
	pop	af
	ld	(hl), a
	ld	(bc), a
	pop	de
	push	de
	ld	hl, #0x0007
	add	hl, de
	ld	c, l
	ld	b, h
	ldhl	sp,	#5
	ld	a, (hl)
	ld	(bc), a
;src/enemy.c:61: }
	add	sp, #9
	ret
;src/game.c:8: void collision() {
;	---------------------------------
; Function collision
; ---------------------------------
_collision::
	add	sp, #-14
;src/game.c:11: for ( i = 0; i < NUM_BULLETS; i++) {
	ldhl	sp,	#12
	ld	(hl), #0x00
;src/game.c:12: for ( j = 0; j < ENEMY_SKULLS; j++) {
00120$:
	ldhl	sp,	#12
	ld	c, (hl)
	ld	b, #0x00
	ld	l, c
	ld	h, b
	add	hl, hl
	add	hl, hl
	add	hl, bc
	ld	bc,#_bullets
	add	hl,bc
	inc	sp
	inc	sp
	push	hl
	ldhl	sp,	#0
	ld	a, (hl+)
	inc	hl
	ld	(hl-), a
	ld	a, (hl+)
	inc	hl
	ld	(hl), a
	ldhl	sp,	#13
	ld	(hl), #0x00
00109$:
;src/game.c:13: if (skulls[j].active && 
	ldhl	sp,	#13
	ld	a, (hl)
	ldhl	sp,	#10
	ld	(hl+), a
	ld	(hl), #0x00
	ld	a, #0x04
00157$:
	ldhl	sp,	#10
	sla	(hl)
	inc	hl
	rl	(hl)
	dec	a
	jr	NZ, 00157$
	dec	hl
	ld	a, (hl+)
	ld	e, a
	ld	d, (hl)
	ld	hl, #_skulls
	add	hl, de
	push	hl
	ld	a, l
	ldhl	sp,	#6
	ld	(hl), a
	pop	hl
	ld	a, h
	ldhl	sp,	#5
	ld	(hl-), a
	ld	a, (hl+)
	ld	e, a
	ld	d, (hl)
	ld	hl, #0x0007
	add	hl, de
	ld	c, l
	ld	b, h
	ld	a, (bc)
	or	a, a
	jp	Z, 00110$
;src/game.c:14: bullets[i].x >= skulls[j].x && 
	ldhl	sp,#2
	ld	a, (hl+)
	ld	e, a
	ld	a, (hl+)
	ld	d, a
	ld	a, (de)
	ld	c, a
	ld	a, (hl+)
	ld	e, a
	ld	d, (hl)
	ld	a, (de)
	ld	l, a
;	spillPairReg hl
;	spillPairReg hl
	ld	a, c
	sub	a, l
	jp	C, 00110$
;src/game.c:15: bullets[i].x <= skulls[j].x + 8 &&
	ld	h, #0x00
;	spillPairReg hl
;	spillPairReg hl
	ld	de, #0x0008
	add	hl, de
	ld	b, #0x00
	ld	e, b
	ld	d, h
	ld	a, l
	sub	a, c
	ld	a, h
	sbc	a, b
	bit	7, e
	jr	Z, 00158$
	bit	7, d
	jr	NZ, 00159$
	cp	a, a
	jr	00159$
00158$:
	bit	7, d
	jr	Z, 00159$
	scf
00159$:
	jp	C, 00110$
;src/game.c:16: bullets[i].y >= skulls[j].y - 4 && 
	pop	de
	push	de
	ld	l, e
	ld	h, d
	inc	hl
	push	hl
	ld	a, l
	ldhl	sp,	#8
	ld	(hl), a
	pop	hl
	ld	a, h
	ldhl	sp,	#7
	ld	(hl-), a
	ld	a, (hl+)
	ld	e, a
	ld	d, (hl)
	ld	a, (de)
	ldhl	sp,	#11
	ld	(hl), a
	ldhl	sp,	#4
	ld	a, (hl+)
	ld	c, a
	ld	b, (hl)
	inc	bc
	inc	bc
	ld	a, (bc)
	ld	c, a
	ld	b, #0x00
	ld	de, #0x0004
	ld	a, c
	sub	a, e
	ld	e, a
	ld	a, b
	sbc	a, d
	ldhl	sp,	#9
	ld	(hl-), a
	ld	(hl), e
	ldhl	sp,	#11
	ld	a, (hl-)
	ld	(hl+), a
	ld	(hl), #0x00
	ldhl	sp,	#10
	ld	e, l
	ld	d, h
	ldhl	sp,	#8
	ld	a, (de)
	inc	de
	sub	a, (hl)
	inc	hl
	ld	a, (de)
	sbc	a, (hl)
	ld	a, (de)
	ld	d, a
	ld	e, (hl)
	bit	7, e
	jr	Z, 00160$
	bit	7, d
	jr	NZ, 00161$
	cp	a, a
	jr	00161$
00160$:
	bit	7, d
	jr	Z, 00161$
	scf
00161$:
	jr	C, 00110$
;src/game.c:17: bullets[i].y <= skulls[j].y + 4) {
	inc	bc
	inc	bc
	inc	bc
	inc	bc
	ldhl	sp,	#10
	ld	a, c
	sub	a, (hl)
	inc	hl
	ld	a, b
	sbc	a, (hl)
	ld	a, b
	ld	d, a
	ld	e, (hl)
	bit	7, e
	jr	Z, 00162$
	bit	7, d
	jr	NZ, 00163$
	cp	a, a
	jr	00163$
00162$:
	bit	7, d
	jr	Z, 00163$
	scf
00163$:
	jr	C, 00110$
;src/game.c:19: bullets[i].x = 0;
	pop	hl
	ld	(hl), #0x00
	push	hl
;src/game.c:20: bullets[i].y = 0; // Move bullet offscreen
	ldhl	sp,	#6
	ld	a,	(hl+)
	ld	h, (hl)
	ld	l, a
	ld	(hl), #0x00
;src/game.c:21: score1 ++;
	ld	hl, #_score1
	inc	(hl)
;src/game.c:22: skulls[j].x = 170; // Move enemy offscreen
	ldhl	sp,	#4
	ld	a,	(hl+)
	ld	h, (hl)
	ld	l, a
	ld	(hl), #0xaa
;src/game.c:23: deactivateEnemy(&skulls[j]);
	ldhl	sp,	#4
	ld	a, (hl+)
	ld	e, a
	ld	d, (hl)
	call	_deactivateEnemy
00110$:
;src/game.c:12: for ( j = 0; j < ENEMY_SKULLS; j++) {
	ldhl	sp,	#13
	inc	(hl)
	ld	a, (hl)
	sub	a, #0x14
	jp	C, 00109$
;src/game.c:11: for ( i = 0; i < NUM_BULLETS; i++) {
	dec	hl
	inc	(hl)
	ld	a, (hl)
	sub	a, #0x03
	jp	C, 00120$
;src/game.c:27: }
	add	sp, #14
	ret
;src/game.c:29: void generalUpdate() {
;	---------------------------------
; Function generalUpdate
; ---------------------------------
_generalUpdate::
;src/game.c:30: scoreUpdate();
	call	_scoreUpdate
;src/game.c:31: wait_vbl_done();
;src/game.c:32: }
	jp	_wait_vbl_done
;src/game.c:34: void level1() {
;	---------------------------------
; Function level1
; ---------------------------------
_level1::
;src/game.c:36: collision();
	call	_collision
;src/game.c:39: frame++; if (frame == 60) { seconds++; frame = 0; }
	ld	hl, #_frame
	inc	(hl)
	ld	a, (hl)
	sub	a, #0x3c
	jr	NZ, 00102$
	ld	hl, #_seconds
	inc	(hl)
	ld	hl, #_frame
	ld	(hl), #0x00
00102$:
;src/game.c:41: playerUpdate();
	call	_playerUpdate
;src/game.c:42: for (i = 0; i < 5; i++) { enemyUpdate(&skulls[i]); }
	ld	c, #0x00
00160$:
	ld	l, c
;	spillPairReg hl
;	spillPairReg hl
	ld	h, #0x00
;	spillPairReg hl
;	spillPairReg hl
	add	hl, hl
	add	hl, hl
	add	hl, hl
	add	hl, hl
	ld	de, #_skulls
	add	hl, de
	ld	e, l
	ld	d, h
	push	bc
	call	_enemyUpdate
	pop	bc
	inc	c
	ld	a, c
	sub	a, #0x05
	jr	C, 00160$
;src/game.c:45: if (seconds ==  2 && frame ==  0) { enemyInit(&skulls[0], 10, 170,  50, SKULL_SPRITE_TILE,1);  squarePattern(&skulls[0], 60); }
	ld	a, (#_seconds)
	sub	a, #0x02
	jr	NZ, 00105$
	ld	a, (#_frame)
	or	a, a
	jr	NZ, 00105$
	ld	hl, #0x103
	push	hl
	ld	hl, #0x32aa
	push	hl
	ld	a, #0x0a
	ld	de, #_skulls
	call	_enemyInit
	ld	a, #0x3c
	ld	de, #_skulls
	call	_squarePattern
00105$:
;src/game.c:46: if (seconds ==  2 && frame == 20) { enemyInit(&skulls[1], 11, 170,  50, SKULL_SPRITE_TILE,1);  squarePattern(&skulls[1], 60); }
	ld	a, (#_seconds)
	sub	a, #0x02
	jr	NZ, 00108$
	ld	a, (#_frame)
	sub	a, #0x14
	jr	NZ, 00108$
	ld	hl, #0x103
	push	hl
	ld	hl, #0x32aa
	push	hl
	ld	a, #0x0b
	ld	de, #(_skulls + 16)
	call	_enemyInit
	ld	a, #0x3c
	ld	de, #(_skulls + 16)
	call	_squarePattern
00108$:
;src/game.c:47: if (seconds ==  2 && frame == 40) {	enemyInit(&skulls[2], 12, 170,  50, SKULL_SPRITE_TILE,1);  squarePattern(&skulls[2], 60); }
	ld	a, (#_seconds)
	sub	a, #0x02
	jr	NZ, 00111$
	ld	a, (#_frame)
	sub	a, #0x28
	jr	NZ, 00111$
	ld	hl, #0x103
	push	hl
	ld	hl, #0x32aa
	push	hl
	ld	a, #0x0c
	ld	de, #(_skulls + 32)
	call	_enemyInit
	ld	a, #0x3c
	ld	de, #(_skulls + 32)
	call	_squarePattern
00111$:
;src/game.c:48: if (seconds ==  3 && frame ==  0) { enemyInit(&skulls[3], 13, 170,  50, SKULL_SPRITE_TILE,1);  squarePattern(&skulls[3], 60); }
	ld	a, (#_seconds)
	sub	a, #0x03
	jr	NZ, 00114$
	ld	a, (#_frame)
	or	a, a
	jr	NZ, 00114$
	ld	hl, #0x103
	push	hl
	ld	hl, #0x32aa
	push	hl
	ld	a, #0x0d
	ld	de, #(_skulls + 48)
	call	_enemyInit
	ld	a, #0x3c
	ld	de, #(_skulls + 48)
	call	_squarePattern
00114$:
;src/game.c:49: if (seconds ==  3 && frame == 20) { enemyInit(&skulls[4], 14, 170,  50, SKULL_SPRITE_TILE,1);  squarePattern(&skulls[4], 60); }
	ld	a, (#_seconds)
	sub	a, #0x03
	jr	NZ, 00117$
	ld	a, (#_frame)
	sub	a, #0x14
	jr	NZ, 00117$
	ld	hl, #0x103
	push	hl
	ld	hl, #0x32aa
	push	hl
	ld	a, #0x0e
	ld	de, #(_skulls + 64)
	call	_enemyInit
	ld	a, #0x3c
	ld	de, #(_skulls + 64)
	call	_squarePattern
00117$:
;src/game.c:52: if (seconds ==  8 && frame ==  0) { enemyInit(&skulls[0], 10, 170, 110, SKULL_SPRITE_TILE,1); squarePatternR(&skulls[0], 60); }
	ld	a, (#_seconds)
	sub	a, #0x08
	jr	NZ, 00120$
	ld	a, (#_frame)
	or	a, a
	jr	NZ, 00120$
	ld	hl, #0x103
	push	hl
	ld	hl, #0x6eaa
	push	hl
	ld	a, #0x0a
	ld	de, #_skulls
	call	_enemyInit
	ld	a, #0x3c
	ld	de, #_skulls
	call	_squarePatternR
00120$:
;src/game.c:53: if (seconds ==  8 && frame == 20) { enemyInit(&skulls[1], 11, 170, 110, SKULL_SPRITE_TILE,1); squarePatternR(&skulls[1], 60); }
	ld	a, (#_seconds)
	sub	a, #0x08
	jr	NZ, 00123$
	ld	a, (#_frame)
	sub	a, #0x14
	jr	NZ, 00123$
	ld	hl, #0x103
	push	hl
	ld	hl, #0x6eaa
	push	hl
	ld	a, #0x0b
	ld	de, #(_skulls + 16)
	call	_enemyInit
	ld	a, #0x3c
	ld	de, #(_skulls + 16)
	call	_squarePatternR
00123$:
;src/game.c:54: if (seconds ==  8 && frame == 40) {	enemyInit(&skulls[2], 12, 170, 110, SKULL_SPRITE_TILE,1); squarePatternR(&skulls[2], 60); }
	ld	a, (#_seconds)
	sub	a, #0x08
	jr	NZ, 00126$
	ld	a, (#_frame)
	sub	a, #0x28
	jr	NZ, 00126$
	ld	hl, #0x103
	push	hl
	ld	hl, #0x6eaa
	push	hl
	ld	a, #0x0c
	ld	de, #(_skulls + 32)
	call	_enemyInit
	ld	a, #0x3c
	ld	de, #(_skulls + 32)
	call	_squarePatternR
00126$:
;src/game.c:55: if (seconds ==  9 && frame ==  0) { enemyInit(&skulls[3], 13, 170, 110, SKULL_SPRITE_TILE,1); squarePatternR(&skulls[3], 60); }
	ld	a, (#_seconds)
	sub	a, #0x09
	jr	NZ, 00129$
	ld	a, (#_frame)
	or	a, a
	jr	NZ, 00129$
	ld	hl, #0x103
	push	hl
	ld	hl, #0x6eaa
	push	hl
	ld	a, #0x0d
	ld	de, #(_skulls + 48)
	call	_enemyInit
	ld	a, #0x3c
	ld	de, #(_skulls + 48)
	call	_squarePatternR
00129$:
;src/game.c:56: if (seconds ==  9 && frame == 20) { enemyInit(&skulls[4], 14, 170, 110, SKULL_SPRITE_TILE,1); squarePatternR(&skulls[4], 60); }
	ld	a, (#_seconds)
	sub	a, #0x09
	jr	NZ, 00132$
	ld	a, (#_frame)
	sub	a, #0x14
	jr	NZ, 00132$
	ld	hl, #0x103
	push	hl
	ld	hl, #0x6eaa
	push	hl
	ld	a, #0x0e
	ld	de, #(_skulls + 64)
	call	_enemyInit
	ld	a, #0x3c
	ld	de, #(_skulls + 64)
	call	_squarePatternR
00132$:
;src/game.c:59: if (seconds == 14 && frame ==  0) { enemyInit(&skulls[0], 10, 170, 110, SKULL_SPRITE_TILE,1); squarePatternR(&skulls[0], 60); }
	ld	a, (#_seconds)
	sub	a, #0x0e
	jr	NZ, 00135$
	ld	a, (#_frame)
	or	a, a
	jr	NZ, 00135$
	ld	hl, #0x103
	push	hl
	ld	hl, #0x6eaa
	push	hl
	ld	a, #0x0a
	ld	de, #_skulls
	call	_enemyInit
	ld	a, #0x3c
	ld	de, #_skulls
	call	_squarePatternR
00135$:
;src/game.c:60: if (seconds == 14 && frame == 20) { enemyInit(&skulls[1], 11, 190,  50, SKULL_SPRITE_TILE,1);  squarePattern(&skulls[1], 60); }
	ld	a, (#_seconds)
	sub	a, #0x0e
	jr	NZ, 00138$
	ld	a, (#_frame)
	sub	a, #0x14
	jr	NZ, 00138$
	ld	hl, #0x103
	push	hl
	ld	hl, #0x32be
	push	hl
	ld	a, #0x0b
	ld	de, #(_skulls + 16)
	call	_enemyInit
	ld	a, #0x3c
	ld	de, #(_skulls + 16)
	call	_squarePattern
00138$:
;src/game.c:61: if (seconds == 14 && frame == 40) {	enemyInit(&skulls[2], 12, 170, 110, SKULL_SPRITE_TILE,1); squarePatternR(&skulls[2], 60); }
	ld	a, (#_seconds)
	sub	a, #0x0e
	jr	NZ, 00141$
	ld	a, (#_frame)
	sub	a, #0x28
	jr	NZ, 00141$
	ld	hl, #0x103
	push	hl
	ld	hl, #0x6eaa
	push	hl
	ld	a, #0x0c
	ld	de, #(_skulls + 32)
	call	_enemyInit
	ld	a, #0x3c
	ld	de, #(_skulls + 32)
	call	_squarePatternR
00141$:
;src/game.c:62: if (seconds == 15 && frame ==  0) { enemyInit(&skulls[3], 13, 190,  50, SKULL_SPRITE_TILE,1);  squarePattern(&skulls[3], 60); }
	ld	a, (#_seconds)
	sub	a, #0x0f
	jr	NZ, 00144$
	ld	a, (#_frame)
	or	a, a
	jr	NZ, 00144$
	ld	hl, #0x103
	push	hl
	ld	hl, #0x32be
	push	hl
	ld	a, #0x0d
	ld	de, #(_skulls + 48)
	call	_enemyInit
	ld	a, #0x3c
	ld	de, #(_skulls + 48)
	call	_squarePattern
00144$:
;src/game.c:65: if (seconds == 20 && frame ==  0) { enemyInit(&skulls[0], 10, 170,  50, SKULL_SPRITE_TILE,1);  squarePattern(&skulls[0], 60); }
	ld	a, (#_seconds)
	sub	a, #0x14
	jr	NZ, 00147$
	ld	a, (#_frame)
	or	a, a
	jr	NZ, 00147$
	ld	hl, #0x103
	push	hl
	ld	hl, #0x32aa
	push	hl
	ld	a, #0x0a
	ld	de, #_skulls
	call	_enemyInit
	ld	a, #0x3c
	ld	de, #_skulls
	call	_squarePattern
00147$:
;src/game.c:66: if (seconds == 20 && frame == 20) { enemyInit(&skulls[1], 11, 190, 110, SKULL_SPRITE_TILE,1); squarePatternR(&skulls[1], 60); }
	ld	a, (#_seconds)
	sub	a, #0x14
	jr	NZ, 00150$
	ld	a, (#_frame)
	sub	a, #0x14
	jr	NZ, 00150$
	ld	hl, #0x103
	push	hl
	ld	hl, #0x6ebe
	push	hl
	ld	a, #0x0b
	ld	de, #(_skulls + 16)
	call	_enemyInit
	ld	a, #0x3c
	ld	de, #(_skulls + 16)
	call	_squarePatternR
00150$:
;src/game.c:67: if (seconds == 20 && frame == 40) {	enemyInit(&skulls[2], 12, 170,  50, SKULL_SPRITE_TILE,1);  squarePattern(&skulls[2], 60); }
	ld	a, (#_seconds)
	sub	a, #0x14
	jr	NZ, 00153$
	ld	a, (#_frame)
	sub	a, #0x28
	jr	NZ, 00153$
	ld	hl, #0x103
	push	hl
	ld	hl, #0x32aa
	push	hl
	ld	a, #0x0c
	ld	de, #(_skulls + 32)
	call	_enemyInit
	ld	a, #0x3c
	ld	de, #(_skulls + 32)
	call	_squarePattern
00153$:
;src/game.c:68: if (seconds == 21 && frame ==  0) { enemyInit(&skulls[3], 13, 190, 110, SKULL_SPRITE_TILE,1); squarePatternR(&skulls[3], 60); }
	ld	a, (#_seconds)
	sub	a, #0x15
	jr	NZ, 00156$
	ld	a, (#_frame)
	or	a, a
	jr	NZ, 00156$
	ld	hl, #0x103
	push	hl
	ld	hl, #0x6ebe
	push	hl
	ld	a, #0x0d
	ld	de, #(_skulls + 48)
	call	_enemyInit
	ld	a, #0x3c
	ld	de, #(_skulls + 48)
	call	_squarePatternR
00156$:
;src/game.c:70: if (seconds == 25) { seconds = 0; }
	ld	a, (#_seconds)
	sub	a, #0x19
	ret	NZ
	ld	hl, #_seconds
	ld	(hl), #0x00
;src/game.c:71: }
	ret
;src/game.c:73: uint8_t game() {
;	---------------------------------
; Function game
; ---------------------------------
_game::
;src/game.c:75: collision();
	call	_collision
;src/game.c:77: scoreInit();
	call	_scoreInit
;src/game.c:78: playerInit();
	call	_playerInit
;src/game.c:79: seconds = 0;
	ld	hl, #_seconds
	ld	(hl), #0x00
;src/game.c:80: frame = 0;
	ld	hl, #_frame
	ld	(hl), #0x00
;src/game.c:82: level1_bkg_init();
	call	_level1_bkg_init
;src/game.c:84: while(currentlevel = 1) {
00101$:
;src/game.c:85: generalUpdate();
	call	_generalUpdate
;src/game.c:86: level1();
	call	_level1
;src/game.c:87: level1_bkg_update();
	call	_level1_bkg_update
;src/game.c:97: }
	jr	00101$
;src/main.c:13: void main() {
;	---------------------------------
; Function main
; ---------------------------------
_main::
;src/main.c:15: SHOW_BKG;
	ldh	a, (_LCDC_REG + 0)
	or	a, #0x01
	ldh	(_LCDC_REG + 0), a
;src/main.c:16: SHOW_SPRITES;
	ldh	a, (_LCDC_REG + 0)
	or	a, #0x02
	ldh	(_LCDC_REG + 0), a
;src/main.c:17: DISPLAY_ON;	
	ldh	a, (_LCDC_REG + 0)
	or	a, #0x80
	ldh	(_LCDC_REG + 0), a
;src/main.c:18: set_sprite_data ( 0, 128, sprites);
	ld	de, #_sprites
	push	de
	ld	hl, #0x8000
	push	hl
	call	_set_sprite_data
	add	sp, #4
;src/main.c:19: scoreInit();
	call	_scoreInit
;src/main.c:22: state       = 0;
	ld	hl, #_state
	ld	(hl), #0x00
;src/main.c:23: selection   = 1;
	ld	hl, #_selection
	ld	(hl), #0x01
;src/main.c:24: set_bkg_tiles   ( 0 , 0, 20, 18 , titleScreen);
	ld	de, #_titleScreen
	push	de
	ld	hl, #0x1214
	push	hl
	xor	a, a
	rrca
	push	af
	call	_set_bkg_tiles
	add	sp, #6
;src/main.c:25: set_bkg_data    ( 0 , 127, titleSprites);
	ld	de, #_titleSprites
	push	de
	ld	hl, #0x7f00
	push	hl
	call	_set_bkg_data
	add	sp, #4
;c:/gbdk/include/gb/gb.h:1602: shadow_OAM[nb].tile=tile;
	ld	hl, #(_shadow_OAM + 2)
	ld	(hl), #0x01
;src/main.c:29: while(state == 0) {
00117$:
	ld	a, (#_state)
	or	a, a
	jr	NZ, 00120$
;src/main.c:38: if (joypad() & J_DOWN)  { selection ++; }
	call	_joypad
	bit	3, a
	jr	Z, 00102$
	ld	hl, #_selection
	inc	(hl)
00102$:
;src/main.c:39: if (joypad() & J_UP  )  { selection --; }
	call	_joypad
	bit	2, a
	jr	Z, 00104$
	ld	hl, #_selection
	dec	(hl)
00104$:
;src/main.c:42: if (selection == 0)     { selection = 1;}
	ld	hl, #_selection
	ld	a, (hl)
	or	a, a
	jr	NZ, 00106$
	ld	(hl), #0x01
00106$:
;src/main.c:43: if (selection == 4)     { selection = 3;}
	ld	a, (#_selection)
	sub	a, #0x04
	jr	NZ, 00108$
	ld	hl, #_selection
	ld	(hl), #0x03
00108$:
;src/main.c:46: if (selection == 1) { move_sprite (0, 100, 112); if (joypad() & J_A) { state = 1; break; } }
	ld	a, (#_selection)
	dec	a
	jr	NZ, 00112$
;c:/gbdk/include/gb/gb.h:1675: OAM_item_t * itm = &shadow_OAM[nb];
	ld	hl, #_shadow_OAM
;c:/gbdk/include/gb/gb.h:1676: itm->y=y, itm->x=x;
	ld	(hl), #0x70
	inc	hl
	ld	(hl), #0x64
;src/main.c:46: if (selection == 1) { move_sprite (0, 100, 112); if (joypad() & J_A) { state = 1; break; } }
	call	_joypad
	bit	4, a
	jr	Z, 00112$
	ld	hl, #_state
	ld	(hl), #0x01
	jr	00120$
00112$:
;src/main.c:47: if (selection == 2) { move_sprite (0, 100, 128); }
	ld	a, (#_selection)
	sub	a, #0x02
	jr	NZ, 00114$
;c:/gbdk/include/gb/gb.h:1675: OAM_item_t * itm = &shadow_OAM[nb];
	ld	hl, #_shadow_OAM
;c:/gbdk/include/gb/gb.h:1676: itm->y=y, itm->x=x;
	ld	a, #0x80
	ld	(hl+), a
	ld	(hl), #0x64
;src/main.c:47: if (selection == 2) { move_sprite (0, 100, 128); }
00114$:
;src/main.c:48: if (selection == 3) { move_sprite (0, 100, 144); }
	ld	a, (#_selection)
	sub	a, #0x03
	jr	NZ, 00116$
;c:/gbdk/include/gb/gb.h:1675: OAM_item_t * itm = &shadow_OAM[nb];
	ld	hl, #_shadow_OAM
;c:/gbdk/include/gb/gb.h:1676: itm->y=y, itm->x=x;
	ld	a, #0x90
	ld	(hl+), a
	ld	(hl), #0x64
;src/main.c:48: if (selection == 3) { move_sprite (0, 100, 144); }
00116$:
;src/main.c:51: delay(200);
	ld	de, #0x00c8
	call	_delay
	jr	00117$
;src/main.c:55: while (state == 1) { 
00120$:
	ld	a, (#_state)
	dec	a
	ret	NZ
;src/main.c:56: scoreUpdate();
	call	_scoreUpdate
;src/main.c:57: game(); 
	call	_game
;src/main.c:62: }
	jr	00120$
	.area _CODE
	.area _INITIALIZER
__xinit__level1_map:
	.db #0x0c	; 12
	.db #0x0c	; 12
	.db #0x0c	; 12
	.db #0x0c	; 12
	.db #0x0c	; 12
	.db #0x0c	; 12
	.db #0x0c	; 12
	.db #0x0c	; 12
	.db #0x0c	; 12
	.db #0x08	; 8
	.db #0x0c	; 12
	.db #0x0c	; 12
	.db #0x0c	; 12
	.db #0x0c	; 12
	.db #0x0b	; 11
	.db #0x0c	; 12
	.db #0x0c	; 12
	.db #0x0c	; 12
	.db #0x0c	; 12
	.db #0x0c	; 12
	.db #0x0c	; 12
	.db #0x0c	; 12
	.db #0x0c	; 12
	.db #0x0c	; 12
	.db #0x0c	; 12
	.db #0x0c	; 12
	.db #0x0c	; 12
	.db #0x0c	; 12
	.db #0x0c	; 12
	.db #0x0c	; 12
	.db #0x0c	; 12
	.db #0x0c	; 12
	.db #0x0c	; 12
	.db #0x0c	; 12
	.db #0x0b	; 11
	.db #0x0c	; 12
	.db #0x0c	; 12
	.db #0x0c	; 12
	.db #0x0c	; 12
	.db #0x0c	; 12
	.db #0x0c	; 12
	.db #0x0c	; 12
	.db #0x0c	; 12
	.db #0x0c	; 12
	.db #0x0b	; 11
	.db #0x0c	; 12
	.db #0x0c	; 12
	.db #0x0c	; 12
	.db #0x0c	; 12
	.db #0x0b	; 11
	.db #0x0c	; 12
	.db #0x0c	; 12
	.db #0x0c	; 12
	.db #0x0c	; 12
	.db #0x0c	; 12
	.db #0x0c	; 12
	.db #0x0c	; 12
	.db #0x0c	; 12
	.db #0x0c	; 12
	.db #0x0c	; 12
	.db #0x0c	; 12
	.db #0x0c	; 12
	.db #0x0c	; 12
	.db #0x0c	; 12
	.db #0x0c	; 12
	.db #0x0b	; 11
	.db #0x0c	; 12
	.db #0x0c	; 12
	.db #0x0c	; 12
	.db #0x0c	; 12
	.db #0x0c	; 12
	.db #0x0c	; 12
	.db #0x0c	; 12
	.db #0x0c	; 12
	.db #0x0c	; 12
	.db #0x0c	; 12
	.db #0x0c	; 12
	.db #0x0c	; 12
	.db #0x0c	; 12
	.db #0x0c	; 12
	.db #0x0c	; 12
	.db #0x0a	; 10
	.db #0x0c	; 12
	.db #0x0c	; 12
	.db #0x0c	; 12
	.db #0x0b	; 11
	.db #0x0c	; 12
	.db #0x0c	; 12
	.db #0x0c	; 12
	.db #0x0b	; 11
	.db #0x0c	; 12
	.db #0x0c	; 12
	.db #0x0c	; 12
	.db #0x0c	; 12
	.db #0x0c	; 12
	.db #0x0c	; 12
	.db #0x0c	; 12
	.db #0x0c	; 12
	.db #0x0c	; 12
	.db #0x08	; 8
	.db #0x0c	; 12
	.db #0x0b	; 11
	.db #0x0c	; 12
	.db #0x0c	; 12
	.db #0x0c	; 12
	.db #0x0c	; 12
	.db #0x0c	; 12
	.db #0x0c	; 12
	.db #0x0c	; 12
	.db #0x0c	; 12
	.db #0x0c	; 12
	.db #0x08	; 8
	.db #0x0c	; 12
	.db #0x0c	; 12
	.db #0x0c	; 12
	.db #0x0c	; 12
	.db #0x0c	; 12
	.db #0x0c	; 12
	.db #0x0c	; 12
	.db #0x0c	; 12
	.db #0x0c	; 12
	.db #0x0c	; 12
	.db #0x0c	; 12
	.db #0x0c	; 12
	.db #0x0c	; 12
	.db #0x0c	; 12
	.db #0x0a	; 10
	.db #0x0c	; 12
	.db #0x0c	; 12
	.db #0x0c	; 12
	.db #0x0c	; 12
	.db #0x0c	; 12
	.db #0x0a	; 10
	.db #0x0c	; 12
	.db #0x0c	; 12
	.db #0x0b	; 11
	.db #0x0c	; 12
	.db #0x0c	; 12
	.db #0x0c	; 12
	.db #0x0c	; 12
	.db #0x0a	; 10
	.db #0x0c	; 12
	.db #0x0c	; 12
	.db #0x0c	; 12
	.db #0x0c	; 12
	.db #0x0c	; 12
	.db #0x0c	; 12
	.db #0x0c	; 12
	.db #0x0c	; 12
	.db #0x0c	; 12
	.db #0x0c	; 12
	.db #0x0c	; 12
	.db #0x0c	; 12
	.db #0x0c	; 12
	.db #0x0c	; 12
	.db #0x0c	; 12
	.db #0x0c	; 12
	.db #0x0c	; 12
	.db #0x0c	; 12
	.db #0x08	; 8
	.db #0x0c	; 12
	.db #0x0c	; 12
	.db #0x0c	; 12
	.db #0x0c	; 12
	.db #0x02	; 2
	.db #0x0c	; 12
	.db #0x0c	; 12
	.db #0x0c	; 12
	.db #0x0c	; 12
	.db #0x0c	; 12
	.db #0x0c	; 12
	.db #0x0c	; 12
	.db #0x0c	; 12
	.db #0x0c	; 12
	.db #0x0c	; 12
	.db #0x0c	; 12
	.db #0x0c	; 12
	.db #0x0c	; 12
	.db #0x0c	; 12
	.db #0x0c	; 12
	.db #0x0c	; 12
	.db #0x0c	; 12
	.db #0x0c	; 12
	.db #0x0c	; 12
	.db #0x0c	; 12
	.db #0x0c	; 12
	.db #0x0c	; 12
	.db #0x0c	; 12
	.db #0x0c	; 12
	.db #0x0c	; 12
	.db #0x0c	; 12
	.db #0x0c	; 12
	.db #0x0c	; 12
	.db #0x0c	; 12
	.db #0x0c	; 12
	.db #0x0c	; 12
	.db #0x0c	; 12
	.db #0x0c	; 12
	.db #0x02	; 2
	.db #0x0c	; 12
	.db #0x0c	; 12
	.db #0x0c	; 12
	.db #0x08	; 8
	.db #0x0c	; 12
	.db #0x0c	; 12
	.db #0x0c	; 12
	.db #0x0c	; 12
	.db #0x0c	; 12
	.db #0x0c	; 12
	.db #0x08	; 8
	.db #0x0c	; 12
	.db #0x0c	; 12
	.db #0x0c	; 12
	.db #0x0c	; 12
	.db #0x0c	; 12
	.db #0x02	; 2
	.db #0x0c	; 12
	.db #0x0c	; 12
	.db #0x0c	; 12
	.db #0x0c	; 12
	.db #0x0c	; 12
	.db #0x0b	; 11
	.db #0x0c	; 12
	.db #0x0c	; 12
	.db #0x0c	; 12
	.db #0x0c	; 12
	.db #0x0c	; 12
	.db #0x0c	; 12
	.db #0x0c	; 12
	.db #0x0c	; 12
	.db #0x0c	; 12
	.db #0x0c	; 12
	.db #0x08	; 8
	.db #0x0c	; 12
	.db #0x0c	; 12
	.db #0x0c	; 12
	.db #0x0c	; 12
	.db #0x0c	; 12
	.db #0x0c	; 12
	.db #0x0c	; 12
	.db #0x0c	; 12
	.db #0x0c	; 12
	.db #0x0c	; 12
	.db #0x0c	; 12
	.db #0x0c	; 12
	.db #0x0a	; 10
	.db #0x0c	; 12
	.db #0x0c	; 12
	.db #0x0c	; 12
	.db #0x0c	; 12
	.db #0x0c	; 12
	.db #0x0c	; 12
	.db #0x0c	; 12
	.db #0x0c	; 12
	.db #0x0c	; 12
	.db #0x0b	; 11
	.db #0x0c	; 12
	.db #0x0c	; 12
	.db #0x0c	; 12
	.db #0x0c	; 12
	.db #0x0c	; 12
	.db #0x0c	; 12
	.db #0x0c	; 12
	.db #0x0c	; 12
	.db #0x08	; 8
	.db #0x0c	; 12
	.db #0x0c	; 12
	.db #0x0a	; 10
	.db #0x0b	; 11
	.db #0x0c	; 12
	.db #0x0c	; 12
	.db #0x0c	; 12
	.db #0x0c	; 12
	.db #0x0c	; 12
	.db #0x0a	; 10
	.db #0x0c	; 12
	.db #0x0c	; 12
	.db #0x0c	; 12
	.db #0x0c	; 12
	.db #0x0b	; 11
	.db #0x0c	; 12
	.db #0x0c	; 12
	.db #0x0c	; 12
	.db #0x0c	; 12
	.db #0x0c	; 12
	.db #0x0c	; 12
	.db #0x0c	; 12
	.db #0x0a	; 10
	.db #0x0c	; 12
	.db #0x0c	; 12
	.db #0x0c	; 12
	.db #0x0c	; 12
	.db #0x0c	; 12
	.db #0x0c	; 12
	.db #0x0c	; 12
	.db #0x0c	; 12
	.db #0x0c	; 12
	.db #0x0c	; 12
	.db #0x0c	; 12
	.db #0x0c	; 12
	.db #0x0c	; 12
	.db #0x0c	; 12
	.db #0x0c	; 12
	.db #0x0c	; 12
	.db #0x02	; 2
	.db #0x0c	; 12
	.db #0x0c	; 12
	.db #0x0c	; 12
	.db #0x0b	; 11
	.db #0x0c	; 12
	.db #0x0c	; 12
	.db #0x0c	; 12
	.db #0x0c	; 12
	.db #0x0c	; 12
	.db #0x0c	; 12
	.db #0x0c	; 12
	.db #0x0a	; 10
	.db #0x0c	; 12
	.db #0x0c	; 12
	.db #0x0c	; 12
	.db #0x0c	; 12
	.db #0x0c	; 12
	.db #0x0c	; 12
	.db #0x0c	; 12
	.db #0x0c	; 12
	.db #0x0c	; 12
	.db #0x0c	; 12
	.db #0x0c	; 12
	.db #0x0c	; 12
	.db #0x0c	; 12
	.db #0x0c	; 12
	.db #0x02	; 2
	.db #0x0c	; 12
	.db #0x0c	; 12
	.db #0x0c	; 12
	.db #0x0b	; 11
	.db #0x0c	; 12
	.db #0x0c	; 12
	.db #0x0c	; 12
	.db #0x0c	; 12
	.db #0x0c	; 12
	.db #0x0c	; 12
	.db #0x0c	; 12
	.db #0x0c	; 12
	.db #0x0c	; 12
	.db #0x0b	; 11
	.db #0x0c	; 12
	.db #0x0c	; 12
	.db #0x0c	; 12
	.db #0x0c	; 12
	.db #0x0c	; 12
	.db #0x0c	; 12
	.db #0x0c	; 12
	.db #0x0c	; 12
	.db #0x0c	; 12
	.db #0x0c	; 12
	.db #0x0c	; 12
	.db #0x0c	; 12
	.db #0x0c	; 12
	.db #0x0c	; 12
	.db #0x0c	; 12
	.db #0x0c	; 12
	.db #0x0c	; 12
	.db #0x0c	; 12
	.db #0x0c	; 12
	.db #0x0c	; 12
	.db #0x0c	; 12
	.db #0x0c	; 12
	.db #0x0c	; 12
	.db #0x0c	; 12
	.db #0x0c	; 12
	.db #0x0c	; 12
	.db #0x0c	; 12
	.db #0x0c	; 12
	.db #0x0a	; 10
	.db #0x0c	; 12
	.db #0x0c	; 12
	.db #0x08	; 8
	.db #0x0c	; 12
	.db #0x0c	; 12
	.db #0x0c	; 12
	.db #0x0c	; 12
	.db #0x0c	; 12
	.db #0x0c	; 12
	.db #0x0c	; 12
	.db #0x0c	; 12
	.db #0x0c	; 12
	.db #0x0a	; 10
	.db #0x0c	; 12
	.db #0x0c	; 12
	.db #0x0c	; 12
	.db #0x0c	; 12
	.db #0x0c	; 12
	.db #0x0c	; 12
	.db #0x0c	; 12
	.db #0x0c	; 12
	.db #0x0c	; 12
	.db #0x0c	; 12
	.db #0x0c	; 12
	.db #0x0c	; 12
	.db #0x08	; 8
	.db #0x0c	; 12
	.db #0x0c	; 12
	.db #0x0c	; 12
	.db #0x0c	; 12
	.db #0x0c	; 12
	.db #0x0c	; 12
	.db #0x0c	; 12
	.db #0x0c	; 12
	.db #0x0c	; 12
	.db #0x0c	; 12
	.db #0x0c	; 12
	.db #0x0c	; 12
	.db #0x0c	; 12
	.db #0x08	; 8
	.db #0x0c	; 12
	.db #0x0c	; 12
	.db #0x0c	; 12
	.db #0x0c	; 12
	.db #0x0c	; 12
	.db #0x0c	; 12
	.db #0x0c	; 12
	.db #0x0c	; 12
	.db #0x0c	; 12
	.db #0x0c	; 12
	.db #0x0c	; 12
	.db #0x0c	; 12
	.db #0x0c	; 12
	.db #0x0c	; 12
	.db #0x0c	; 12
	.db #0x0c	; 12
	.db #0x0c	; 12
	.db #0x0c	; 12
	.db #0x0c	; 12
	.db #0x0c	; 12
	.db #0x0c	; 12
	.db #0x08	; 8
	.db #0x0c	; 12
	.db #0x0c	; 12
	.db #0x0c	; 12
	.db #0x0a	; 10
	.db #0x0c	; 12
	.db #0x0c	; 12
	.db #0x0c	; 12
	.db #0x0c	; 12
	.db #0x0c	; 12
	.db #0x0a	; 10
	.db #0x0c	; 12
	.db #0x02	; 2
	.db #0x0c	; 12
	.db #0x0b	; 11
	.db #0x0c	; 12
	.db #0x0c	; 12
	.db #0x0c	; 12
	.db #0x0c	; 12
	.db #0x0c	; 12
	.db #0x0c	; 12
	.db #0x0c	; 12
	.db #0x0c	; 12
	.db #0x0c	; 12
	.db #0x0c	; 12
	.db #0x0c	; 12
	.db #0x0c	; 12
	.db #0x0b	; 11
	.db #0x0c	; 12
	.db #0x0c	; 12
	.db #0x0c	; 12
	.db #0x0c	; 12
	.db #0x0c	; 12
	.db #0x0c	; 12
	.db #0x02	; 2
	.db #0x0c	; 12
	.db #0x0c	; 12
	.db #0x0c	; 12
	.db #0x0c	; 12
	.db #0x0c	; 12
	.db #0x0c	; 12
	.db #0x0c	; 12
	.db #0x0c	; 12
	.db #0x0c	; 12
	.db #0x0c	; 12
	.db #0x0c	; 12
	.db #0x0c	; 12
	.db #0x0c	; 12
	.db #0x02	; 2
	.db #0x0c	; 12
	.db #0x0c	; 12
	.db #0x0c	; 12
	.db #0x0c	; 12
	.db #0x0c	; 12
	.db #0x0c	; 12
	.db #0x0c	; 12
	.db #0x0c	; 12
	.db #0x0c	; 12
	.db #0x0c	; 12
	.db #0x0c	; 12
	.db #0x0c	; 12
	.db #0x0c	; 12
	.db #0x0c	; 12
	.db #0x0c	; 12
	.db #0x0c	; 12
	.db #0x0c	; 12
	.db #0x0c	; 12
	.db #0x0c	; 12
	.db #0x0c	; 12
	.db #0x0a	; 10
	.db #0x0c	; 12
	.db #0x0c	; 12
	.db #0x0c	; 12
	.db #0x0c	; 12
	.db #0x0c	; 12
	.db #0x0c	; 12
	.db #0x0c	; 12
	.db #0x0c	; 12
	.db #0x0c	; 12
	.db #0x0c	; 12
	.db #0x0c	; 12
	.db #0x0c	; 12
	.db #0x0c	; 12
	.db #0x0c	; 12
	.db #0x0c	; 12
	.db #0x0c	; 12
	.db #0x0c	; 12
	.db #0x0c	; 12
	.db #0x0c	; 12
	.db #0x0c	; 12
	.db #0x0c	; 12
	.db #0x0b	; 11
	.db #0x0c	; 12
	.db #0x0c	; 12
	.db #0x0c	; 12
	.db #0x0c	; 12
	.db #0x0c	; 12
	.db #0x02	; 2
	.db #0x0c	; 12
	.db #0x0c	; 12
	.db #0x0c	; 12
	.db #0x0c	; 12
	.db #0x0c	; 12
	.db #0x0c	; 12
	.db #0x0c	; 12
	.db #0x0c	; 12
	.db #0x0c	; 12
	.db #0x0c	; 12
	.db #0x0c	; 12
	.db #0x0c	; 12
	.db #0x0c	; 12
	.db #0x0c	; 12
	.db #0x0c	; 12
	.db #0x0c	; 12
	.db #0x0c	; 12
	.db #0x0c	; 12
	.db #0x0c	; 12
	.db #0x08	; 8
	.db #0x0c	; 12
	.db #0x0c	; 12
	.db #0x0c	; 12
	.db #0x0c	; 12
	.db #0x0c	; 12
	.db #0x0c	; 12
	.db #0x0c	; 12
	.db #0x0c	; 12
	.db #0x0c	; 12
	.db #0x0c	; 12
	.db #0x0c	; 12
	.db #0x0c	; 12
	.db #0x0c	; 12
	.db #0x0a	; 10
	.db #0x0c	; 12
	.db #0x0c	; 12
	.db #0x0c	; 12
	.db #0x0c	; 12
	.db #0x0a	; 10
	.db #0x0c	; 12
	.db #0x0c	; 12
	.db #0x0c	; 12
	.db #0x0c	; 12
	.db #0x0c	; 12
	.db #0x0c	; 12
	.db #0x0c	; 12
	.db #0x0c	; 12
	.db #0x0b	; 11
	.db #0x0c	; 12
	.db #0x0c	; 12
	.db #0x0c	; 12
	.db #0x0c	; 12
	.db #0x0c	; 12
	.db #0x0c	; 12
	.db #0x02	; 2
	.db #0x0c	; 12
	.db #0x0c	; 12
	.db #0x0c	; 12
	.db #0x0c	; 12
	.db #0x0c	; 12
	.db #0x0c	; 12
	.db #0x0c	; 12
	.db #0x0c	; 12
	.db #0x0c	; 12
	.db #0x0c	; 12
	.db #0x0c	; 12
	.db #0x0c	; 12
	.db #0x0c	; 12
	.db #0x08	; 8
	.db #0x0a	; 10
	.db #0x0c	; 12
	.db #0x0c	; 12
	.db #0x0c	; 12
	.db #0x0c	; 12
	.db #0x0c	; 12
	.db #0x0c	; 12
	.db #0x0c	; 12
	.db #0x0c	; 12
	.db #0x0c	; 12
	.db #0x0c	; 12
	.db #0x0b	; 11
	.db #0x0c	; 12
	.db #0x0c	; 12
	.db #0x0c	; 12
	.db #0x0c	; 12
	.db #0x0c	; 12
	.db #0x0a	; 10
	.db #0x0c	; 12
	.db #0x0c	; 12
	.db #0x0c	; 12
	.db #0x0c	; 12
	.db #0x0c	; 12
	.db #0x0c	; 12
	.db #0x0a	; 10
	.db #0x0c	; 12
	.db #0x0c	; 12
	.db #0x0c	; 12
	.db #0x0c	; 12
	.db #0x0c	; 12
	.db #0x0c	; 12
	.db #0x0c	; 12
	.db #0x0c	; 12
	.db #0x0c	; 12
	.db #0x0c	; 12
	.db #0x0a	; 10
	.db #0x0c	; 12
	.db #0x0b	; 11
	.db #0x0c	; 12
	.db #0x0c	; 12
	.db #0x0c	; 12
	.db #0x0c	; 12
	.db #0x0c	; 12
	.db #0x0c	; 12
	.db #0x0c	; 12
	.db #0x0c	; 12
	.db #0x0c	; 12
	.db #0x0c	; 12
	.db #0x0c	; 12
	.db #0x0c	; 12
	.db #0x0c	; 12
	.db #0x0c	; 12
	.db #0x0c	; 12
	.db #0x0c	; 12
	.db #0x0c	; 12
	.db #0x0c	; 12
	.db #0x0c	; 12
	.db #0x0c	; 12
	.db #0x0c	; 12
	.db #0x0c	; 12
	.db #0x0c	; 12
	.db #0x0c	; 12
	.db #0x0c	; 12
	.db #0x0c	; 12
	.db #0x0c	; 12
	.db #0x0c	; 12
	.db #0x0c	; 12
	.db #0x0c	; 12
	.db #0x08	; 8
	.db #0x0c	; 12
	.db #0x0c	; 12
	.db #0x0c	; 12
	.db #0x0c	; 12
	.db #0x0c	; 12
	.db #0x0c	; 12
	.db #0x0a	; 10
	.db #0x0c	; 12
	.db #0x0c	; 12
	.db #0x0c	; 12
	.db #0x0c	; 12
	.db #0x0c	; 12
	.db #0x0c	; 12
	.db #0x0c	; 12
	.db #0x0c	; 12
	.db #0x0c	; 12
	.db #0x0a	; 10
	.db #0x0c	; 12
	.db #0x0c	; 12
	.db #0x0c	; 12
	.db #0x0c	; 12
	.db #0x0c	; 12
	.db #0x0c	; 12
	.db #0x0c	; 12
	.db #0x0c	; 12
	.db #0x0c	; 12
	.db #0x0c	; 12
	.db #0x0c	; 12
	.db #0x0c	; 12
	.db #0x0c	; 12
	.db #0x08	; 8
	.db #0x0c	; 12
	.db #0x0c	; 12
	.db #0x0c	; 12
	.db #0x0c	; 12
	.db #0x0c	; 12
	.db #0x0c	; 12
	.db #0x0c	; 12
	.db #0x0c	; 12
	.db #0x0c	; 12
	.db #0x0c	; 12
	.db #0x0c	; 12
	.db #0x0a	; 10
	.db #0x0c	; 12
	.db #0x0c	; 12
	.db #0x0c	; 12
	.db #0x0c	; 12
	.db #0x0c	; 12
	.db #0x0c	; 12
	.db #0x0c	; 12
	.db #0x0c	; 12
	.db #0x0c	; 12
	.db #0x0c	; 12
	.db #0x0c	; 12
	.db #0x0c	; 12
	.db #0x0c	; 12
	.db #0x0c	; 12
	.db #0x0a	; 10
	.db #0x0c	; 12
	.db #0x0c	; 12
	.db #0x0c	; 12
	.db #0x0c	; 12
	.db #0x0c	; 12
	.db #0x0c	; 12
	.db #0x0c	; 12
	.db #0x0c	; 12
	.db #0x0c	; 12
	.db #0x0c	; 12
	.db #0x0c	; 12
	.db #0x0c	; 12
	.db #0x0c	; 12
	.db #0x0c	; 12
	.db #0x0c	; 12
	.db #0x0a	; 10
	.db #0x0c	; 12
	.db #0x0c	; 12
	.db #0x0c	; 12
	.db #0x0c	; 12
	.db #0x0c	; 12
	.db #0x0c	; 12
	.db #0x0c	; 12
	.db #0x0c	; 12
	.db #0x0c	; 12
	.db #0x0c	; 12
	.db #0x0c	; 12
	.db #0x0c	; 12
	.db #0x0c	; 12
	.db #0x0c	; 12
	.db #0x0c	; 12
	.db #0x0c	; 12
	.db #0x0c	; 12
	.db #0x0c	; 12
	.db #0x0c	; 12
	.db #0x0c	; 12
	.db #0x0c	; 12
	.db #0x0c	; 12
	.db #0x0c	; 12
	.db #0x0c	; 12
	.db #0x0a	; 10
	.db #0x0c	; 12
	.db #0x0c	; 12
	.db #0x0c	; 12
	.db #0x0c	; 12
	.db #0x0c	; 12
	.db #0x0c	; 12
	.db #0x0c	; 12
	.db #0x0c	; 12
	.db #0x0c	; 12
	.db #0x0c	; 12
	.db #0x0c	; 12
	.db #0x0c	; 12
	.db #0x0c	; 12
	.db #0x0c	; 12
	.db #0x0c	; 12
	.db #0x0c	; 12
	.db #0x0c	; 12
	.db #0x0c	; 12
	.db #0x0c	; 12
	.db #0x0c	; 12
	.db #0x0c	; 12
	.db #0x0c	; 12
	.db #0x0c	; 12
	.db #0x0c	; 12
	.db #0x0c	; 12
	.db #0x0c	; 12
	.db #0x0a	; 10
	.db #0x0c	; 12
	.db #0x0c	; 12
	.db #0x0c	; 12
	.db #0x0c	; 12
	.db #0x0c	; 12
	.db #0x0c	; 12
	.db #0x0c	; 12
	.db #0x0c	; 12
	.db #0x0c	; 12
	.db #0x0c	; 12
	.db #0x0c	; 12
	.db #0x0a	; 10
	.db #0x0c	; 12
	.db #0x0c	; 12
	.db #0x0c	; 12
	.db #0x0c	; 12
	.db #0x0c	; 12
	.db #0x0c	; 12
	.db #0x0c	; 12
	.db #0x0c	; 12
	.db #0x0c	; 12
	.db #0x0c	; 12
	.db #0x08	; 8
	.db #0x0c	; 12
	.db #0x0c	; 12
	.db #0x0c	; 12
	.db #0x0c	; 12
	.db #0x0c	; 12
	.db #0x0c	; 12
	.db #0x0c	; 12
	.db #0x0c	; 12
	.db #0x0c	; 12
	.db #0x0c	; 12
	.db #0x0c	; 12
	.db #0x0c	; 12
	.db #0x0c	; 12
	.db #0x0b	; 11
	.db #0x0c	; 12
	.db #0x0c	; 12
	.db #0x0c	; 12
	.db #0x0a	; 10
	.db #0x0c	; 12
	.db #0x0c	; 12
	.db #0x0c	; 12
	.db #0x0c	; 12
	.db #0x0c	; 12
	.db #0x0c	; 12
	.db #0x0c	; 12
	.db #0x0c	; 12
	.db #0x0c	; 12
	.db #0x0c	; 12
	.db #0x0c	; 12
	.db #0x0c	; 12
	.db #0x0c	; 12
	.db #0x0c	; 12
	.db #0x0a	; 10
	.db #0x0c	; 12
	.db #0x0c	; 12
	.db #0x0c	; 12
	.db #0x0c	; 12
	.db #0x0c	; 12
	.db #0x0c	; 12
	.db #0x0c	; 12
	.db #0x0c	; 12
	.db #0x0c	; 12
	.db #0x0c	; 12
	.db #0x0c	; 12
	.db #0x0c	; 12
	.db #0x0c	; 12
	.db #0x0c	; 12
	.db #0x0c	; 12
	.db #0x0c	; 12
	.db #0x0c	; 12
	.db #0x0c	; 12
	.db #0x0c	; 12
	.db #0x0a	; 10
	.db #0x0c	; 12
	.db #0x0c	; 12
	.db #0x0c	; 12
	.db #0x0c	; 12
	.db #0x0c	; 12
	.db #0x0c	; 12
	.db #0x0c	; 12
	.db #0x0c	; 12
	.db #0x0c	; 12
	.db #0x0c	; 12
	.db #0x0c	; 12
	.db #0x0b	; 11
	.db #0x0c	; 12
	.db #0x0c	; 12
	.db #0x0c	; 12
	.db #0x0c	; 12
	.db #0x0c	; 12
	.db #0x0c	; 12
	.db #0x02	; 2
	.db #0x0c	; 12
	.db #0x0c	; 12
	.db #0x0c	; 12
	.db #0x0c	; 12
	.db #0x0c	; 12
	.db #0x0c	; 12
	.db #0x0c	; 12
	.db #0x0c	; 12
	.db #0x02	; 2
	.db #0x0c	; 12
	.db #0x0c	; 12
	.db #0x0c	; 12
	.db #0x0c	; 12
	.db #0x0c	; 12
	.db #0x0c	; 12
	.db #0x0c	; 12
	.db #0x0c	; 12
	.db #0x0c	; 12
	.db #0x0c	; 12
	.db #0x0c	; 12
	.db #0x0c	; 12
	.db #0x0b	; 11
	.db #0x0c	; 12
	.db #0x0c	; 12
	.db #0x0c	; 12
	.db #0x0c	; 12
	.db #0x0c	; 12
	.db #0x0c	; 12
	.db #0x02	; 2
	.db #0x0c	; 12
	.db #0x0c	; 12
	.db #0x0c	; 12
	.db #0x0c	; 12
	.db #0x0c	; 12
	.db #0x0c	; 12
	.db #0x0c	; 12
	.db #0x0b	; 11
	.db #0x0c	; 12
	.db #0x0c	; 12
	.db #0x0c	; 12
	.db #0x0c	; 12
	.db #0x0c	; 12
	.db #0x0c	; 12
	.db #0x02	; 2
	.db #0x0c	; 12
	.db #0x0c	; 12
	.db #0x0c	; 12
	.db #0x0c	; 12
	.db #0x0c	; 12
	.db #0x0c	; 12
	.db #0x0c	; 12
	.db #0x0c	; 12
	.db #0x0c	; 12
	.db #0x0c	; 12
	.db #0x0c	; 12
	.db #0x0c	; 12
	.db #0x0b	; 11
	.db #0x0c	; 12
	.db #0x0c	; 12
	.db #0x0c	; 12
	.db #0x0c	; 12
	.db #0x0c	; 12
	.db #0x0c	; 12
	.db #0x02	; 2
	.db #0x0c	; 12
	.db #0x0c	; 12
	.db #0x0c	; 12
	.db #0x0c	; 12
	.db #0x0c	; 12
	.db #0x0c	; 12
	.db #0x0c	; 12
	.db #0x0c	; 12
	.db #0x0c	; 12
	.db #0x0c	; 12
	.db #0x0c	; 12
	.db #0x0c	; 12
	.db #0x0c	; 12
	.db #0x0c	; 12
	.db #0x0c	; 12
	.db #0x0c	; 12
	.db #0x0c	; 12
	.db #0x0c	; 12
	.db #0x08	; 8
	.db #0x0c	; 12
	.db #0x0c	; 12
	.db #0x0c	; 12
	.db #0x0c	; 12
	.db #0x0c	; 12
	.db #0x0c	; 12
	.db #0x0c	; 12
	.db #0x0c	; 12
	.db #0x0a	; 10
	.db #0x0c	; 12
	.db #0x0c	; 12
	.db #0x0c	; 12
	.db #0x0c	; 12
	.db #0x0c	; 12
	.db #0x0c	; 12
	.db #0x0c	; 12
	.db #0x0c	; 12
	.db #0x0c	; 12
	.db #0x0c	; 12
	.db #0x0c	; 12
	.db #0x0c	; 12
	.db #0x0c	; 12
	.db #0x0c	; 12
	.db #0x0c	; 12
	.db #0x0c	; 12
	.db #0x0c	; 12
	.db #0x0c	; 12
	.db #0x0c	; 12
	.db #0x0c	; 12
	.db #0x0c	; 12
	.db #0x0c	; 12
	.db #0x0c	; 12
	.db #0x0c	; 12
	.db #0x0c	; 12
	.db #0x0c	; 12
	.db #0x0c	; 12
	.db #0x0c	; 12
	.db #0x0c	; 12
	.db #0x0c	; 12
	.db #0x0c	; 12
	.db #0x0c	; 12
	.db #0x0c	; 12
	.db #0x0c	; 12
	.db #0x08	; 8
	.db #0x0c	; 12
	.db #0x0c	; 12
	.db #0x0c	; 12
	.db #0x0c	; 12
	.db #0x0c	; 12
	.db #0x0c	; 12
	.db #0x0c	; 12
	.db #0x0c	; 12
	.db #0x0c	; 12
	.db #0x0c	; 12
	.db #0x0c	; 12
	.db #0x0c	; 12
	.db #0x0c	; 12
	.db #0x0c	; 12
	.db #0x0c	; 12
	.db #0x0c	; 12
	.db #0x0c	; 12
	.db #0x0c	; 12
	.db #0x0c	; 12
	.db #0x08	; 8
	.db #0x01	; 1
	.db #0x01	; 1
	.db #0x01	; 1
	.db #0x01	; 1
	.db #0x01	; 1
	.db #0x01	; 1
	.db #0x01	; 1
	.db #0x01	; 1
	.db #0x01	; 1
	.db #0x01	; 1
	.db #0x01	; 1
	.db #0x01	; 1
	.db #0x01	; 1
	.db #0x01	; 1
	.db #0x01	; 1
	.db #0x01	; 1
	.db #0x01	; 1
	.db #0x01	; 1
	.db #0x01	; 1
	.db #0x01	; 1
	.db #0x01	; 1
	.db #0x01	; 1
	.db #0x01	; 1
	.db #0x01	; 1
	.db #0x01	; 1
	.db #0x01	; 1
	.db #0x01	; 1
	.db #0x01	; 1
	.db #0x01	; 1
	.db #0x01	; 1
	.db #0x01	; 1
	.db #0x01	; 1
	.db #0x01	; 1
	.db #0x01	; 1
	.db #0x01	; 1
	.db #0x01	; 1
	.db #0x01	; 1
	.db #0x01	; 1
	.db #0x01	; 1
	.db #0x01	; 1
	.db #0x01	; 1
	.db #0x01	; 1
	.db #0x01	; 1
	.db #0x01	; 1
	.db #0x01	; 1
	.db #0x01	; 1
	.db #0x01	; 1
	.db #0x01	; 1
	.db #0x01	; 1
	.db #0x01	; 1
	.db #0x01	; 1
	.db #0x01	; 1
	.db #0x01	; 1
	.db #0x01	; 1
	.db #0x01	; 1
	.db #0x01	; 1
	.db #0x01	; 1
	.db #0x01	; 1
	.db #0x01	; 1
	.db #0x01	; 1
	.db #0x01	; 1
	.db #0x01	; 1
	.db #0x01	; 1
	.db #0x01	; 1
	.db #0x01	; 1
	.db #0x01	; 1
	.db #0x01	; 1
	.db #0x01	; 1
	.db #0x01	; 1
	.db #0x01	; 1
	.db #0x01	; 1
	.db #0x01	; 1
	.db #0x01	; 1
	.db #0x01	; 1
	.db #0x01	; 1
	.db #0x01	; 1
	.db #0x01	; 1
	.db #0x01	; 1
	.db #0x01	; 1
	.db #0x01	; 1
	.db #0x04	; 4
	.db #0x05	; 5
	.db #0x04	; 4
	.db #0x05	; 5
	.db #0x04	; 4
	.db #0x05	; 5
	.db #0x04	; 4
	.db #0x05	; 5
	.db #0x04	; 4
	.db #0x05	; 5
	.db #0x04	; 4
	.db #0x05	; 5
	.db #0x04	; 4
	.db #0x05	; 5
	.db #0x04	; 4
	.db #0x05	; 5
	.db #0x04	; 4
	.db #0x05	; 5
	.db #0x04	; 4
	.db #0x05	; 5
	.db #0x04	; 4
	.db #0x05	; 5
	.db #0x04	; 4
	.db #0x05	; 5
	.db #0x04	; 4
	.db #0x05	; 5
	.db #0x04	; 4
	.db #0x05	; 5
	.db #0x04	; 4
	.db #0x05	; 5
	.db #0x04	; 4
	.db #0x05	; 5
	.db #0x04	; 4
	.db #0x05	; 5
	.db #0x04	; 4
	.db #0x05	; 5
	.db #0x04	; 4
	.db #0x05	; 5
	.db #0x04	; 4
	.db #0x05	; 5
	.db #0x04	; 4
	.db #0x05	; 5
	.db #0x04	; 4
	.db #0x05	; 5
	.db #0x04	; 4
	.db #0x05	; 5
	.db #0x04	; 4
	.db #0x05	; 5
	.db #0x04	; 4
	.db #0x05	; 5
	.db #0x04	; 4
	.db #0x05	; 5
	.db #0x04	; 4
	.db #0x05	; 5
	.db #0x04	; 4
	.db #0x05	; 5
	.db #0x04	; 4
	.db #0x05	; 5
	.db #0x04	; 4
	.db #0x05	; 5
	.db #0x04	; 4
	.db #0x05	; 5
	.db #0x04	; 4
	.db #0x05	; 5
	.db #0x04	; 4
	.db #0x05	; 5
	.db #0x04	; 4
	.db #0x05	; 5
	.db #0x04	; 4
	.db #0x05	; 5
	.db #0x04	; 4
	.db #0x05	; 5
	.db #0x04	; 4
	.db #0x05	; 5
	.db #0x04	; 4
	.db #0x05	; 5
	.db #0x04	; 4
	.db #0x05	; 5
	.db #0x04	; 4
	.db #0x05	; 5
	.db #0x06	; 6
	.db #0x07	; 7
	.db #0x06	; 6
	.db #0x07	; 7
	.db #0x06	; 6
	.db #0x07	; 7
	.db #0x06	; 6
	.db #0x07	; 7
	.db #0x06	; 6
	.db #0x07	; 7
	.db #0x06	; 6
	.db #0x07	; 7
	.db #0x06	; 6
	.db #0x07	; 7
	.db #0x06	; 6
	.db #0x07	; 7
	.db #0x06	; 6
	.db #0x07	; 7
	.db #0x06	; 6
	.db #0x07	; 7
	.db #0x06	; 6
	.db #0x07	; 7
	.db #0x06	; 6
	.db #0x07	; 7
	.db #0x06	; 6
	.db #0x07	; 7
	.db #0x06	; 6
	.db #0x07	; 7
	.db #0x06	; 6
	.db #0x07	; 7
	.db #0x06	; 6
	.db #0x07	; 7
	.db #0x06	; 6
	.db #0x07	; 7
	.db #0x06	; 6
	.db #0x07	; 7
	.db #0x06	; 6
	.db #0x07	; 7
	.db #0x06	; 6
	.db #0x07	; 7
	.db #0x06	; 6
	.db #0x07	; 7
	.db #0x06	; 6
	.db #0x07	; 7
	.db #0x06	; 6
	.db #0x07	; 7
	.db #0x06	; 6
	.db #0x07	; 7
	.db #0x06	; 6
	.db #0x07	; 7
	.db #0x06	; 6
	.db #0x07	; 7
	.db #0x06	; 6
	.db #0x07	; 7
	.db #0x06	; 6
	.db #0x07	; 7
	.db #0x06	; 6
	.db #0x07	; 7
	.db #0x06	; 6
	.db #0x07	; 7
	.db #0x06	; 6
	.db #0x07	; 7
	.db #0x06	; 6
	.db #0x07	; 7
	.db #0x06	; 6
	.db #0x07	; 7
	.db #0x06	; 6
	.db #0x07	; 7
	.db #0x06	; 6
	.db #0x07	; 7
	.db #0x06	; 6
	.db #0x07	; 7
	.db #0x06	; 6
	.db #0x07	; 7
	.db #0x06	; 6
	.db #0x07	; 7
	.db #0x06	; 6
	.db #0x07	; 7
	.db #0x06	; 6
	.db #0x07	; 7
	.db #0x00	; 0
	.db #0x00	; 0
	.db #0x00	; 0
	.db #0x00	; 0
	.db #0x00	; 0
	.db #0x00	; 0
	.db #0x00	; 0
	.db #0x00	; 0
	.db #0x00	; 0
	.db #0x00	; 0
	.db #0x00	; 0
	.db #0x00	; 0
	.db #0x00	; 0
	.db #0x00	; 0
	.db #0x00	; 0
	.db #0x00	; 0
	.db #0x00	; 0
	.db #0x00	; 0
	.db #0x00	; 0
	.db #0x00	; 0
	.db #0x00	; 0
	.db #0x00	; 0
	.db #0x00	; 0
	.db #0x00	; 0
	.db #0x00	; 0
	.db #0x00	; 0
	.db #0x00	; 0
	.db #0x00	; 0
	.db #0x00	; 0
	.db #0x00	; 0
	.db #0x00	; 0
	.db #0x00	; 0
	.db #0x00	; 0
	.db #0x00	; 0
	.db #0x00	; 0
	.db #0x00	; 0
	.db #0x00	; 0
	.db #0x00	; 0
	.db #0x00	; 0
	.db #0x00	; 0
	.db #0x00	; 0
	.db #0x00	; 0
	.db #0x00	; 0
	.db #0x00	; 0
	.db #0x00	; 0
	.db #0x00	; 0
	.db #0x00	; 0
	.db #0x00	; 0
	.db #0x00	; 0
	.db #0x00	; 0
	.db #0x00	; 0
	.db #0x00	; 0
	.db #0x00	; 0
	.db #0x00	; 0
	.db #0x00	; 0
	.db #0x00	; 0
	.db #0x00	; 0
	.db #0x00	; 0
	.db #0x00	; 0
	.db #0x00	; 0
	.db #0x00	; 0
	.db #0x00	; 0
	.db #0x00	; 0
	.db #0x00	; 0
	.db #0x00	; 0
	.db #0x00	; 0
	.db #0x00	; 0
	.db #0x00	; 0
	.db #0x00	; 0
	.db #0x00	; 0
	.db #0x00	; 0
	.db #0x00	; 0
	.db #0x00	; 0
	.db #0x00	; 0
	.db #0x00	; 0
	.db #0x00	; 0
	.db #0x00	; 0
	.db #0x00	; 0
	.db #0x00	; 0
	.db #0x00	; 0
	.db #0x00	; 0
	.db #0x00	; 0
	.db #0x00	; 0
	.db #0x00	; 0
	.db #0x00	; 0
	.db #0x00	; 0
	.db #0x00	; 0
	.db #0x00	; 0
	.db #0x00	; 0
	.db #0x00	; 0
	.db #0x00	; 0
	.db #0x00	; 0
	.db #0x00	; 0
	.db #0x00	; 0
	.db #0x00	; 0
	.db #0x00	; 0
	.db #0x00	; 0
	.db #0x00	; 0
	.db #0x00	; 0
	.db #0x00	; 0
	.db #0x00	; 0
	.db #0x00	; 0
	.db #0x00	; 0
	.db #0x00	; 0
	.db #0x00	; 0
	.db #0x00	; 0
	.db #0x00	; 0
	.db #0x00	; 0
	.db #0x00	; 0
	.db #0x00	; 0
	.db #0x00	; 0
	.db #0x00	; 0
	.db #0x00	; 0
	.db #0x00	; 0
	.db #0x00	; 0
	.db #0x00	; 0
	.db #0x00	; 0
	.db #0x00	; 0
	.db #0x00	; 0
	.db #0x00	; 0
	.db #0x00	; 0
	.db #0x00	; 0
	.db #0x00	; 0
	.db #0x00	; 0
	.db #0x00	; 0
	.db #0x00	; 0
	.db #0x00	; 0
	.db #0x00	; 0
	.db #0x00	; 0
	.db #0x00	; 0
	.db #0x00	; 0
	.db #0x00	; 0
	.db #0x00	; 0
	.db #0x00	; 0
	.db #0x00	; 0
	.db #0x00	; 0
	.db #0x00	; 0
	.db #0x00	; 0
	.db #0x00	; 0
	.db #0x00	; 0
	.db #0x00	; 0
	.db #0x00	; 0
	.db #0x00	; 0
	.db #0x00	; 0
	.db #0x00	; 0
	.db #0x00	; 0
	.db #0x00	; 0
	.db #0x00	; 0
	.db #0x00	; 0
	.db #0x00	; 0
	.db #0x00	; 0
	.db #0x00	; 0
	.db #0x00	; 0
	.db #0x00	; 0
	.db #0x00	; 0
	.db #0x00	; 0
	.db #0x00	; 0
	.db #0x00	; 0
	.db #0x00	; 0
	.db #0x00	; 0
	.db #0x00	; 0
	.db #0x00	; 0
	.db #0x00	; 0
	.db #0x00	; 0
	.db #0x00	; 0
	.db #0x00	; 0
	.db #0x00	; 0
	.db #0x00	; 0
	.db #0x00	; 0
	.db #0x00	; 0
	.db #0x00	; 0
	.db #0x00	; 0
	.db #0x00	; 0
	.db #0x00	; 0
	.db #0x00	; 0
	.db #0x00	; 0
	.db #0x00	; 0
	.db #0x00	; 0
	.db #0x00	; 0
	.db #0x00	; 0
	.db #0x00	; 0
	.db #0x00	; 0
	.db #0x00	; 0
	.db #0x00	; 0
	.db #0x00	; 0
	.db #0x00	; 0
	.db #0x00	; 0
	.db #0x00	; 0
	.db #0x00	; 0
	.db #0x00	; 0
	.db #0x00	; 0
	.db #0x00	; 0
	.db #0x00	; 0
	.db #0x00	; 0
	.db #0x00	; 0
	.db #0x00	; 0
	.db #0x00	; 0
	.db #0x00	; 0
	.db #0x00	; 0
	.db #0x00	; 0
	.db #0x00	; 0
	.db #0x00	; 0
	.db #0x00	; 0
	.db #0x00	; 0
	.db #0x00	; 0
	.db #0x00	; 0
	.db #0x00	; 0
	.db #0x00	; 0
	.db #0x00	; 0
	.db #0x00	; 0
	.db #0x00	; 0
	.db #0x00	; 0
	.db #0x00	; 0
	.db #0x00	; 0
	.db #0x00	; 0
	.db #0x00	; 0
	.db #0x00	; 0
	.db #0x00	; 0
	.db #0x00	; 0
	.db #0x00	; 0
	.db #0x00	; 0
	.db #0x00	; 0
	.db #0x00	; 0
	.db #0x00	; 0
	.db #0x00	; 0
	.db #0x00	; 0
	.db #0x00	; 0
	.db #0x00	; 0
	.db #0x00	; 0
	.db #0x00	; 0
	.db #0x00	; 0
	.db #0x00	; 0
	.db #0x00	; 0
	.db #0x00	; 0
	.db #0x00	; 0
	.db #0x00	; 0
	.db #0x00	; 0
	.db #0x00	; 0
	.db #0x00	; 0
	.db #0x00	; 0
__xinit__titleScreen:
	.db #0x7f	; 127
	.db #0x7f	; 127
	.db #0x7f	; 127
	.db #0x7f	; 127
	.db #0x7f	; 127
	.db #0x7f	; 127
	.db #0x7f	; 127
	.db #0x7f	; 127
	.db #0x7f	; 127
	.db #0x7f	; 127
	.db #0x7f	; 127
	.db #0x7f	; 127
	.db #0x7f	; 127
	.db #0x7f	; 127
	.db #0x7f	; 127
	.db #0x7f	; 127
	.db #0x7f	; 127
	.db #0x7f	; 127
	.db #0x7f	; 127
	.db #0x7f	; 127
	.db #0x7f	; 127
	.db #0x7f	; 127
	.db #0x7f	; 127
	.db #0x7f	; 127
	.db #0x5b	; 91
	.db #0x5a	; 90	'Z'
	.db #0x5a	; 90	'Z'
	.db #0x5a	; 90	'Z'
	.db #0x5a	; 90	'Z'
	.db #0x5a	; 90	'Z'
	.db #0x5a	; 90	'Z'
	.db #0x5a	; 90	'Z'
	.db #0x5a	; 90	'Z'
	.db #0x5a	; 90	'Z'
	.db #0x5a	; 90	'Z'
	.db #0x59	; 89	'Y'
	.db #0x7f	; 127
	.db #0x7f	; 127
	.db #0x7f	; 127
	.db #0x7f	; 127
	.db #0x4d	; 77	'M'
	.db #0x4e	; 78	'N'
	.db #0x4f	; 79	'O'
	.db #0x7f	; 127
	.db #0x7f	; 127
	.db #0x53	; 83	'S'
	.db #0x54	; 84	'T'
	.db #0x54	; 84	'T'
	.db #0x55	; 85	'U'
	.db #0x7f	; 127
	.db #0x7f	; 127
	.db #0x56	; 86	'V'
	.db #0x57	; 87	'W'
	.db #0x56	; 86	'V'
	.db #0x58	; 88	'X'
	.db #0x7f	; 127
	.db #0x7f	; 127
	.db #0x7f	; 127
	.db #0x7f	; 127
	.db #0x7f	; 127
	.db #0x40	; 64
	.db #0x41	; 65	'A'
	.db #0x42	; 66	'B'
	.db #0x7f	; 127
	.db #0x43	; 67	'C'
	.db #0x44	; 68	'D'
	.db #0x45	; 69	'E'
	.db #0x46	; 70	'F'
	.db #0x7f	; 127
	.db #0x7f	; 127
	.db #0x47	; 71	'G'
	.db #0x48	; 72	'H'
	.db #0x7f	; 127
	.db #0x49	; 73	'I'
	.db #0x48	; 72	'H'
	.db #0x7f	; 127
	.db #0x4a	; 74	'J'
	.db #0x4b	; 75	'K'
	.db #0x4c	; 76	'L'
	.db #0x7f	; 127
	.db #0x2c	; 44
	.db #0x2d	; 45
	.db #0x2e	; 46
	.db #0x2f	; 47
	.db #0x30	; 48	'0'
	.db #0x31	; 49	'1'
	.db #0x32	; 50	'2'
	.db #0x33	; 51	'3'
	.db #0x34	; 52	'4'
	.db #0x35	; 53	'5'
	.db #0x36	; 54	'6'
	.db #0x37	; 55	'7'
	.db #0x38	; 56	'8'
	.db #0x39	; 57	'9'
	.db #0x3a	; 58
	.db #0x3b	; 59
	.db #0x3c	; 60
	.db #0x3d	; 61
	.db #0x3e	; 62
	.db #0x3f	; 63
	.db #0x18	; 24
	.db #0x19	; 25
	.db #0x1a	; 26
	.db #0x1b	; 27
	.db #0x1c	; 28
	.db #0x1d	; 29
	.db #0x1e	; 30
	.db #0x1f	; 31
	.db #0x20	; 32
	.db #0x21	; 33
	.db #0x22	; 34
	.db #0x23	; 35
	.db #0x24	; 36
	.db #0x25	; 37
	.db #0x26	; 38
	.db #0x27	; 39
	.db #0x28	; 40
	.db #0x29	; 41
	.db #0x2a	; 42
	.db #0x2b	; 43
	.db #0x04	; 4
	.db #0x05	; 5
	.db #0x06	; 6
	.db #0x07	; 7
	.db #0x08	; 8
	.db #0x09	; 9
	.db #0x0a	; 10
	.db #0x0b	; 11
	.db #0x0c	; 12
	.db #0x0d	; 13
	.db #0x0e	; 14
	.db #0x0f	; 15
	.db #0x10	; 16
	.db #0x11	; 17
	.db #0x12	; 18
	.db #0x13	; 19
	.db #0x14	; 20
	.db #0x15	; 21
	.db #0x16	; 22
	.db #0x17	; 23
	.db #0x00	; 0
	.db #0x01	; 1
	.db #0x51	; 81	'Q'
	.db #0x50	; 80	'P'
	.db #0x50	; 80	'P'
	.db #0x50	; 80	'P'
	.db #0x50	; 80	'P'
	.db #0x50	; 80	'P'
	.db #0x50	; 80	'P'
	.db #0x50	; 80	'P'
	.db #0x50	; 80	'P'
	.db #0x50	; 80	'P'
	.db #0x50	; 80	'P'
	.db #0x50	; 80	'P'
	.db #0x50	; 80	'P'
	.db #0x50	; 80	'P'
	.db #0x50	; 80	'P'
	.db #0x50	; 80	'P'
	.db #0x50	; 80	'P'
	.db #0x52	; 82	'R'
	.db #0x7f	; 127
	.db #0x7f	; 127
	.db #0x7f	; 127
	.db #0x7f	; 127
	.db #0x7f	; 127
	.db #0x7f	; 127
	.db #0x7f	; 127
	.db #0x7f	; 127
	.db #0x7f	; 127
	.db #0x7f	; 127
	.db #0x7f	; 127
	.db #0x7f	; 127
	.db #0x7f	; 127
	.db #0x7f	; 127
	.db #0x7f	; 127
	.db #0x7f	; 127
	.db #0x7f	; 127
	.db #0x7f	; 127
	.db #0x7f	; 127
	.db #0x7f	; 127
	.db #0x7f	; 127
	.db #0x7f	; 127
	.db #0x7f	; 127
	.db #0x7f	; 127
	.db #0x7f	; 127
	.db #0x7f	; 127
	.db #0x7f	; 127
	.db #0x7f	; 127
	.db #0x7f	; 127
	.db #0x7f	; 127
	.db #0x7f	; 127
	.db #0x7f	; 127
	.db #0x7f	; 127
	.db #0x7f	; 127
	.db #0x7f	; 127
	.db #0x7f	; 127
	.db #0x7f	; 127
	.db #0x7f	; 127
	.db #0x7f	; 127
	.db #0x7f	; 127
	.db #0x7f	; 127
	.db #0x7f	; 127
	.db #0x7f	; 127
	.db #0x7f	; 127
	.db #0x7f	; 127
	.db #0x7f	; 127
	.db #0x7f	; 127
	.db #0x7f	; 127
	.db #0x7f	; 127
	.db #0x7f	; 127
	.db #0x7f	; 127
	.db #0x7f	; 127
	.db #0x7f	; 127
	.db #0x7f	; 127
	.db #0x7f	; 127
	.db #0x7f	; 127
	.db #0x7f	; 127
	.db #0x7f	; 127
	.db #0x7f	; 127
	.db #0x7f	; 127
	.db #0x7f	; 127
	.db #0x7f	; 127
	.db #0x7f	; 127
	.db #0x7f	; 127
	.db #0x7f	; 127
	.db #0x7f	; 127
	.db #0x7f	; 127
	.db #0x7f	; 127
	.db #0x7f	; 127
	.db #0x7f	; 127
	.db #0x7f	; 127
	.db #0x7f	; 127
	.db #0x7f	; 127
	.db #0x7f	; 127
	.db #0x7f	; 127
	.db #0x7f	; 127
	.db #0x7f	; 127
	.db #0x7f	; 127
	.db #0x7f	; 127
	.db #0x7f	; 127
	.db #0x7f	; 127
	.db #0x7f	; 127
	.db #0x7f	; 127
	.db #0x7f	; 127
	.db #0x7f	; 127
	.db #0x7f	; 127
	.db #0x7f	; 127
	.db #0x7f	; 127
	.db #0x7f	; 127
	.db #0x7f	; 127
	.db #0x7f	; 127
	.db #0x7f	; 127
	.db #0x7f	; 127
	.db #0x5c	; 92
	.db #0x5d	; 93
	.db #0x5e	; 94
	.db #0x5f	; 95
	.db #0x5d	; 93
	.db #0x7f	; 127
	.db #0x7f	; 127
	.db #0x7f	; 127
	.db #0x7f	; 127
	.db #0x7f	; 127
	.db #0x7f	; 127
	.db #0x7f	; 127
	.db #0x7f	; 127
	.db #0x7f	; 127
	.db #0x7f	; 127
	.db #0x7f	; 127
	.db #0x7f	; 127
	.db #0x7f	; 127
	.db #0x7f	; 127
	.db #0x7f	; 127
	.db #0x7f	; 127
	.db #0x7f	; 127
	.db #0x7f	; 127
	.db #0x7f	; 127
	.db #0x7f	; 127
	.db #0x7f	; 127
	.db #0x7f	; 127
	.db #0x7f	; 127
	.db #0x7f	; 127
	.db #0x7f	; 127
	.db #0x7f	; 127
	.db #0x7f	; 127
	.db #0x7f	; 127
	.db #0x7f	; 127
	.db #0x7f	; 127
	.db #0x7f	; 127
	.db #0x7f	; 127
	.db #0x7f	; 127
	.db #0x7f	; 127
	.db #0x7f	; 127
	.db #0x5c	; 92
	.db #0x64	; 100	'd'
	.db #0x60	; 96
	.db #0x5f	; 95
	.db #0x65	; 101	'e'
	.db #0x7f	; 127
	.db #0x7f	; 127
	.db #0x7f	; 127
	.db #0x7f	; 127
	.db #0x7f	; 127
	.db #0x7f	; 127
	.db #0x7f	; 127
	.db #0x7f	; 127
	.db #0x7f	; 127
	.db #0x7f	; 127
	.db #0x7f	; 127
	.db #0x7f	; 127
	.db #0x7f	; 127
	.db #0x7f	; 127
	.db #0x7f	; 127
	.db #0x7f	; 127
	.db #0x7f	; 127
	.db #0x7f	; 127
	.db #0x7f	; 127
	.db #0x7f	; 127
	.db #0x7f	; 127
	.db #0x7f	; 127
	.db #0x7f	; 127
	.db #0x7f	; 127
	.db #0x7f	; 127
	.db #0x7f	; 127
	.db #0x7f	; 127
	.db #0x7f	; 127
	.db #0x7f	; 127
	.db #0x7f	; 127
	.db #0x7f	; 127
	.db #0x7f	; 127
	.db #0x7f	; 127
	.db #0x7f	; 127
	.db #0x7f	; 127
	.db #0x60	; 96
	.db #0x61	; 97	'a'
	.db #0x5d	; 93
	.db #0x62	; 98	'b'
	.db #0x60	; 96
	.db #0x63	; 99	'c'
	.db #0x5c	; 92
	.db #0x7f	; 127
	.db #0x7f	; 127
	.db #0x7f	; 127
	.db #0x7f	; 127
	.db #0x7f	; 127
	.db #0x7f	; 127
	.db #0x7f	; 127
	.db #0x7f	; 127
	.db #0x7f	; 127
	.db #0x7f	; 127
	.db #0x7f	; 127
	.db #0x7f	; 127
	.db #0x7f	; 127
	.db #0x7f	; 127
	.db #0x7f	; 127
	.db #0x7f	; 127
	.db #0x7f	; 127
	.db #0x7f	; 127
	.db #0x7f	; 127
	.db #0x7f	; 127
__xinit__titleSprites:
	.db #0x00	; 0
	.db #0x80	; 128
	.db #0x80	; 128
	.db #0xe0	; 224
	.db #0x80	; 128
	.db #0xff	; 255
	.db #0x40	; 64
	.db #0x7f	; 127
	.db #0x70	; 112	'p'
	.db #0x7f	; 127
	.db #0x3e	; 62
	.db #0x3f	; 63
	.db #0x0f	; 15
	.db #0x0f	; 15
	.db #0x01	; 1
	.db #0x01	; 1
	.db #0x41	; 65	'A'
	.db #0x43	; 67	'C'
	.db #0x00	; 0
	.db #0x06	; 6
	.db #0x02	; 2
	.db #0xfe	; 254
	.db #0x06	; 6
	.db #0xfe	; 254
	.db #0x0c	; 12
	.db #0xfc	; 252
	.db #0x38	; 56	'8'
	.db #0xf8	; 248
	.db #0xf0	; 240
	.db #0xf0	; 240
	.db #0xc0	; 192
	.db #0xc0	; 192
	.db #0x03	; 3
	.db #0x03	; 3
	.db #0x00	; 0
	.db #0x00	; 0
	.db #0x00	; 0
	.db #0x00	; 0
	.db #0x00	; 0
	.db #0x00	; 0
	.db #0x00	; 0
	.db #0x00	; 0
	.db #0x00	; 0
	.db #0x00	; 0
	.db #0x00	; 0
	.db #0x00	; 0
	.db #0x00	; 0
	.db #0x00	; 0
	.db #0x80	; 128
	.db #0x80	; 128
	.db #0x00	; 0
	.db #0x00	; 0
	.db #0x00	; 0
	.db #0x00	; 0
	.db #0x00	; 0
	.db #0x00	; 0
	.db #0x00	; 0
	.db #0x00	; 0
	.db #0x00	; 0
	.db #0x00	; 0
	.db #0x00	; 0
	.db #0x00	; 0
	.db #0x00	; 0
	.db #0x00	; 0
	.db #0x00	; 0
	.db #0x3f	; 63
	.db #0x00	; 0
	.db #0x7f	; 127
	.db #0x00	; 0
	.db #0x7f	; 127
	.db #0x00	; 0
	.db #0xff	; 255
	.db #0x3e	; 62
	.db #0xff	; 255
	.db #0x7f	; 127
	.db #0xff	; 255
	.db #0x41	; 65	'A'
	.db #0xc1	; 193
	.db #0x00	; 0
	.db #0x80	; 128
	.db #0x00	; 0
	.db #0xfa	; 250
	.db #0x01	; 1
	.db #0xfd	; 253
	.db #0x02	; 2
	.db #0xfa	; 250
	.db #0x04	; 4
	.db #0xfc	; 252
	.db #0x08	; 8
	.db #0xf8	; 248
	.db #0x18	; 24
	.db #0xf8	; 248
	.db #0xb0	; 176
	.db #0xf0	; 240
	.db #0xe0	; 224
	.db #0xe0	; 224
	.db #0x40	; 64
	.db #0x7f	; 127
	.db #0x00	; 0
	.db #0x3f	; 63
	.db #0x00	; 0
	.db #0x3f	; 63
	.db #0x20	; 32
	.db #0x3f	; 63
	.db #0x20	; 32
	.db #0x3f	; 63
	.db #0x10	; 16
	.db #0x1f	; 31
	.db #0x1c	; 28
	.db #0x1f	; 31
	.db #0x0f	; 15
	.db #0x0f	; 15
	.db #0x00	; 0
	.db #0xdb	; 219
	.db #0x08	; 8
	.db #0xff	; 255
	.db #0x13	; 19
	.db #0xff	; 255
	.db #0x17	; 23
	.db #0xf7	; 247
	.db #0x2c	; 44
	.db #0xec	; 236
	.db #0x60	; 96
	.db #0xe0	; 224
	.db #0x40	; 64
	.db #0xc0	; 192
	.db #0x80	; 128
	.db #0x80	; 128
	.db #0x00	; 0
	.db #0xff	; 255
	.db #0x00	; 0
	.db #0xff	; 255
	.db #0x00	; 0
	.db #0xff	; 255
	.db #0xc1	; 193
	.db #0xff	; 255
	.db #0xf1	; 241
	.db #0xff	; 255
	.db #0x3a	; 58
	.db #0x3e	; 62
	.db #0x0e	; 14
	.db #0x0e	; 14
	.db #0x04	; 4
	.db #0x04	; 4
	.db #0x20	; 32
	.db #0xe7	; 231
	.db #0x40	; 64
	.db #0xc7	; 199
	.db #0xc7	; 199
	.db #0xcf	; 207
	.db #0x87	; 135
	.db #0x87	; 135
	.db #0x08	; 8
	.db #0x08	; 8
	.db #0x00	; 0
	.db #0x00	; 0
	.db #0x00	; 0
	.db #0x00	; 0
	.db #0x00	; 0
	.db #0x00	; 0
	.db #0x00	; 0
	.db #0xff	; 255
	.db #0x00	; 0
	.db #0xff	; 255
	.db #0x00	; 0
	.db #0xff	; 255
	.db #0x81	; 129
	.db #0xff	; 255
	.db #0xe3	; 227
	.db #0xff	; 255
	.db #0x7e	; 126
	.db #0x7e	; 126
	.db #0x1c	; 28
	.db #0x1c	; 28
	.db #0x00	; 0
	.db #0x00	; 0
	.db #0x60	; 96
	.db #0xe3	; 227
	.db #0x40	; 64
	.db #0x43	; 67	'C'
	.db #0x80	; 128
	.db #0x87	; 135
	.db #0x03	; 3
	.db #0x0b	; 11
	.db #0x07	; 7
	.db #0x07	; 7
	.db #0x08	; 8
	.db #0x08	; 8
	.db #0x00	; 0
	.db #0x00	; 0
	.db #0x00	; 0
	.db #0x00	; 0
	.db #0x00	; 0
	.db #0xfd	; 253
	.db #0x00	; 0
	.db #0xfe	; 254
	.db #0x01	; 1
	.db #0xfd	; 253
	.db #0x06	; 6
	.db #0xfe	; 254
	.db #0x8c	; 140
	.db #0xfc	; 252
	.db #0xd8	; 216
	.db #0xf8	; 248
	.db #0x70	; 112	'p'
	.db #0x70	; 112	'p'
	.db #0x20	; 32
	.db #0x20	; 32
	.db #0x00	; 0
	.db #0x7f	; 127
	.db #0x80	; 128
	.db #0xff	; 255
	.db #0x00	; 0
	.db #0x7f	; 127
	.db #0x40	; 64
	.db #0x7f	; 127
	.db #0x61	; 97	'a'
	.db #0x7f	; 127
	.db #0x33	; 51	'3'
	.db #0x3f	; 63
	.db #0x1e	; 30
	.db #0x1e	; 30
	.db #0x0c	; 12
	.db #0x0c	; 12
	.db #0x00	; 0
	.db #0x43	; 67	'C'
	.db #0x00	; 0
	.db #0xc7	; 199
	.db #0x43	; 67	'C'
	.db #0xcf	; 207
	.db #0xc7	; 199
	.db #0xc7	; 199
	.db #0x8c	; 140
	.db #0x8c	; 140
	.db #0x00	; 0
	.db #0x00	; 0
	.db #0x00	; 0
	.db #0x00	; 0
	.db #0x00	; 0
	.db #0x00	; 0
	.db #0x00	; 0
	.db #0xff	; 255
	.db #0x00	; 0
	.db #0xff	; 255
	.db #0x00	; 0
	.db #0xff	; 255
	.db #0x81	; 129
	.db #0xff	; 255
	.db #0xe3	; 227
	.db #0xff	; 255
	.db #0x76	; 118	'v'
	.db #0x7e	; 126
	.db #0x1c	; 28
	.db #0x1c	; 28
	.db #0x08	; 8
	.db #0x08	; 8
	.db #0x00	; 0
	.db #0xc7	; 199
	.db #0x60	; 96
	.db #0xe3	; 227
	.db #0xc7	; 199
	.db #0xc7	; 199
	.db #0x83	; 131
	.db #0x83	; 131
	.db #0x00	; 0
	.db #0x00	; 0
	.db #0x00	; 0
	.db #0x00	; 0
	.db #0x00	; 0
	.db #0x00	; 0
	.db #0x00	; 0
	.db #0x00	; 0
	.db #0x00	; 0
	.db #0xff	; 255
	.db #0x00	; 0
	.db #0xff	; 255
	.db #0x80	; 128
	.db #0xff	; 255
	.db #0xf0	; 240
	.db #0xff	; 255
	.db #0x7c	; 124
	.db #0x7f	; 127
	.db #0x0f	; 15
	.db #0x0f	; 15
	.db #0x03	; 3
	.db #0x03	; 3
	.db #0x00	; 0
	.db #0x00	; 0
	.db #0x03	; 3
	.db #0xbf	; 191
	.db #0x02	; 2
	.db #0xfe	; 254
	.db #0x04	; 4
	.db #0xfc	; 252
	.db #0x0c	; 12
	.db #0xfc	; 252
	.db #0x18	; 24
	.db #0xf8	; 248
	.db #0x30	; 48	'0'
	.db #0xf0	; 240
	.db #0xe0	; 224
	.db #0xe0	; 224
	.db #0xc0	; 192
	.db #0xc0	; 192
	.db #0x00	; 0
	.db #0x3f	; 63
	.db #0x00	; 0
	.db #0x3f	; 63
	.db #0x30	; 48	'0'
	.db #0x7f	; 127
	.db #0x3c	; 60
	.db #0x3f	; 63
	.db #0x4f	; 79	'O'
	.db #0x4f	; 79	'O'
	.db #0x03	; 3
	.db #0x03	; 3
	.db #0x00	; 0
	.db #0x00	; 0
	.db #0x00	; 0
	.db #0x00	; 0
	.db #0x01	; 1
	.db #0xff	; 255
	.db #0x03	; 3
	.db #0xff	; 255
	.db #0x06	; 6
	.db #0xfe	; 254
	.db #0x0c	; 12
	.db #0xfc	; 252
	.db #0x08	; 8
	.db #0xf8	; 248
	.db #0xd0	; 208
	.db #0xf0	; 240
	.db #0xf0	; 240
	.db #0xf0	; 240
	.db #0x20	; 32
	.db #0x20	; 32
	.db #0x00	; 0
	.db #0x3f	; 63
	.db #0x18	; 24
	.db #0x1f	; 31
	.db #0x3c	; 60
	.db #0x3f	; 63
	.db #0x07	; 7
	.db #0x07	; 7
	.db #0x03	; 3
	.db #0x03	; 3
	.db #0x00	; 0
	.db #0x00	; 0
	.db #0x00	; 0
	.db #0x00	; 0
	.db #0x00	; 0
	.db #0x00	; 0
	.db #0x00	; 0
	.db #0xfb	; 251
	.db #0x00	; 0
	.db #0xff	; 255
	.db #0x01	; 1
	.db #0xff	; 255
	.db #0x07	; 7
	.db #0xff	; 255
	.db #0x8e	; 142
	.db #0xfe	; 254
	.db #0xd8	; 216
	.db #0xf8	; 248
	.db #0x70	; 112	'p'
	.db #0x70	; 112	'p'
	.db #0x20	; 32
	.db #0x20	; 32
	.db #0x00	; 0
	.db #0xf0	; 240
	.db #0x00	; 0
	.db #0xf0	; 240
	.db #0xf0	; 240
	.db #0xf0	; 240
	.db #0xf0	; 240
	.db #0xf0	; 240
	.db #0x00	; 0
	.db #0x00	; 0
	.db #0x00	; 0
	.db #0x00	; 0
	.db #0x00	; 0
	.db #0x00	; 0
	.db #0x00	; 0
	.db #0x00	; 0
	.db #0x00	; 0
	.db #0x00	; 0
	.db #0x00	; 0
	.db #0x00	; 0
	.db #0x00	; 0
	.db #0x01	; 1
	.db #0x00	; 0
	.db #0x01	; 1
	.db #0x00	; 0
	.db #0x01	; 1
	.db #0x00	; 0
	.db #0x01	; 1
	.db #0x00	; 0
	.db #0x07	; 7
	.db #0x00	; 0
	.db #0x1f	; 31
	.db #0x00	; 0
	.db #0xff	; 255
	.db #0x00	; 0
	.db #0xff	; 255
	.db #0x00	; 0
	.db #0xff	; 255
	.db #0x7f	; 127
	.db #0xff	; 255
	.db #0xff	; 255
	.db #0xff	; 255
	.db #0x80	; 128
	.db #0x80	; 128
	.db #0x00	; 0
	.db #0xc0	; 192
	.db #0x00	; 0
	.db #0xf1	; 241
	.db #0x00	; 0
	.db #0xfe	; 254
	.db #0x00	; 0
	.db #0xff	; 255
	.db #0x00	; 0
	.db #0xff	; 255
	.db #0x00	; 0
	.db #0xff	; 255
	.db #0x80	; 128
	.db #0xff	; 255
	.db #0x80	; 128
	.db #0xff	; 255
	.db #0x00	; 0
	.db #0x7f	; 127
	.db #0x40	; 64
	.db #0x7f	; 127
	.db #0x00	; 0
	.db #0x03	; 3
	.db #0x00	; 0
	.db #0x03	; 3
	.db #0x00	; 0
	.db #0x03	; 3
	.db #0x00	; 0
	.db #0x03	; 3
	.db #0x00	; 0
	.db #0x03	; 3
	.db #0x00	; 0
	.db #0x83	; 131
	.db #0x00	; 0
	.db #0x83	; 131
	.db #0x00	; 0
	.db #0x8b	; 139
	.db #0x00	; 0
	.db #0xf0	; 240
	.db #0x00	; 0
	.db #0xf0	; 240
	.db #0x00	; 0
	.db #0xf0	; 240
	.db #0x00	; 0
	.db #0xf0	; 240
	.db #0x00	; 0
	.db #0xf0	; 240
	.db #0x00	; 0
	.db #0xf0	; 240
	.db #0x00	; 0
	.db #0xf8	; 248
	.db #0x00	; 0
	.db #0xfc	; 252
	.db #0x00	; 0
	.db #0x03	; 3
	.db #0x00	; 0
	.db #0x03	; 3
	.db #0x00	; 0
	.db #0x03	; 3
	.db #0x00	; 0
	.db #0x03	; 3
	.db #0x00	; 0
	.db #0x03	; 3
	.db #0x00	; 0
	.db #0x03	; 3
	.db #0x00	; 0
	.db #0x23	; 35
	.db #0x00	; 0
	.db #0x43	; 67	'C'
	.db #0x00	; 0
	.db #0xf0	; 240
	.db #0x00	; 0
	.db #0xf0	; 240
	.db #0x00	; 0
	.db #0xf0	; 240
	.db #0x00	; 0
	.db #0xf0	; 240
	.db #0x00	; 0
	.db #0xf0	; 240
	.db #0x00	; 0
	.db #0xf0	; 240
	.db #0x00	; 0
	.db #0xf8	; 248
	.db #0x00	; 0
	.db #0xfc	; 252
	.db #0x00	; 0
	.db #0x01	; 1
	.db #0x00	; 0
	.db #0x01	; 1
	.db #0x00	; 0
	.db #0x01	; 1
	.db #0x00	; 0
	.db #0x01	; 1
	.db #0x00	; 0
	.db #0x01	; 1
	.db #0x00	; 0
	.db #0x01	; 1
	.db #0x00	; 0
	.db #0x61	; 97	'a'
	.db #0x00	; 0
	.db #0x41	; 65	'A'
	.db #0x00	; 0
	.db #0xf8	; 248
	.db #0x00	; 0
	.db #0xf8	; 248
	.db #0x00	; 0
	.db #0xf8	; 248
	.db #0x00	; 0
	.db #0xf8	; 248
	.db #0x00	; 0
	.db #0xf8	; 248
	.db #0x00	; 0
	.db #0xf8	; 248
	.db #0x00	; 0
	.db #0xf8	; 248
	.db #0x00	; 0
	.db #0xf8	; 248
	.db #0x00	; 0
	.db #0x7e	; 126
	.db #0x00	; 0
	.db #0x7e	; 126
	.db #0x00	; 0
	.db #0x7e	; 126
	.db #0x00	; 0
	.db #0x7e	; 126
	.db #0x00	; 0
	.db #0x7e	; 126
	.db #0x00	; 0
	.db #0x7e	; 126
	.db #0x00	; 0
	.db #0x7e	; 126
	.db #0x00	; 0
	.db #0xfe	; 254
	.db #0x00	; 0
	.db #0x01	; 1
	.db #0x00	; 0
	.db #0x01	; 1
	.db #0x00	; 0
	.db #0x01	; 1
	.db #0x00	; 0
	.db #0x01	; 1
	.db #0x00	; 0
	.db #0x01	; 1
	.db #0x00	; 0
	.db #0x01	; 1
	.db #0x00	; 0
	.db #0x03	; 3
	.db #0x00	; 0
	.db #0x03	; 3
	.db #0x00	; 0
	.db #0xf8	; 248
	.db #0x00	; 0
	.db #0xf8	; 248
	.db #0x00	; 0
	.db #0xf8	; 248
	.db #0x00	; 0
	.db #0xf8	; 248
	.db #0x00	; 0
	.db #0xf8	; 248
	.db #0x00	; 0
	.db #0xf8	; 248
	.db #0x00	; 0
	.db #0xf8	; 248
	.db #0x00	; 0
	.db #0xfc	; 252
	.db #0x42	; 66	'B'
	.db #0x43	; 67	'C'
	.db #0x01	; 1
	.db #0x01	; 1
	.db #0x01	; 1
	.db #0x01	; 1
	.db #0x00	; 0
	.db #0x00	; 0
	.db #0x00	; 0
	.db #0x00	; 0
	.db #0x00	; 0
	.db #0x00	; 0
	.db #0x00	; 0
	.db #0x01	; 1
	.db #0x00	; 0
	.db #0x63	; 99	'c'
	.db #0x00	; 0
	.db #0xff	; 255
	.db #0x00	; 0
	.db #0xff	; 255
	.db #0x01	; 1
	.db #0xff	; 255
	.db #0x83	; 131
	.db #0xff	; 255
	.db #0x86	; 134
	.db #0xfe	; 254
	.db #0x04	; 4
	.db #0xfc	; 252
	.db #0x00	; 0
	.db #0xf8	; 248
	.db #0x00	; 0
	.db #0xfe	; 254
	.db #0x00	; 0
	.db #0xfe	; 254
	.db #0x00	; 0
	.db #0xfe	; 254
	.db #0x80	; 128
	.db #0xff	; 255
	.db #0x80	; 128
	.db #0xff	; 255
	.db #0x40	; 64
	.db #0x7f	; 127
	.db #0x40	; 64
	.db #0x7f	; 127
	.db #0x00	; 0
	.db #0x3f	; 63
	.db #0x01	; 1
	.db #0x3f	; 63
	.db #0x00	; 0
	.db #0x1f	; 31
	.db #0x00	; 0
	.db #0x1f	; 31
	.db #0x00	; 0
	.db #0x1f	; 31
	.db #0x00	; 0
	.db #0x1f	; 31
	.db #0x00	; 0
	.db #0x1f	; 31
	.db #0x00	; 0
	.db #0x1f	; 31
	.db #0x00	; 0
	.db #0x1f	; 31
	.db #0x00	; 0
	.db #0x1f	; 31
	.db #0x03	; 3
	.db #0x8f	; 143
	.db #0x0f	; 15
	.db #0xbf	; 191
	.db #0x0c	; 12
	.db #0xcc	; 204
	.db #0x30	; 48	'0'
	.db #0xb0	; 176
	.db #0x40	; 64
	.db #0xc0	; 192
	.db #0x00	; 0
	.db #0x80	; 128
	.db #0x00	; 0
	.db #0xc1	; 193
	.db #0x00	; 0
	.db #0xf3	; 243
	.db #0x88	; 136
	.db #0x8f	; 143
	.db #0x08	; 8
	.db #0x0f	; 15
	.db #0x00	; 0
	.db #0x07	; 7
	.db #0x00	; 0
	.db #0x0f	; 15
	.db #0x00	; 0
	.db #0x0f	; 15
	.db #0x00	; 0
	.db #0x0f	; 15
	.db #0x00	; 0
	.db #0x0f	; 15
	.db #0x00	; 0
	.db #0x1f	; 31
	.db #0x00	; 0
	.db #0xe3	; 227
	.db #0x00	; 0
	.db #0xe3	; 227
	.db #0x00	; 0
	.db #0xe3	; 227
	.db #0x00	; 0
	.db #0xe3	; 227
	.db #0x00	; 0
	.db #0xe3	; 227
	.db #0x00	; 0
	.db #0xe3	; 227
	.db #0x00	; 0
	.db #0xe3	; 227
	.db #0x00	; 0
	.db #0xf3	; 243
	.db #0x00	; 0
	.db #0xf0	; 240
	.db #0x00	; 0
	.db #0xf0	; 240
	.db #0x00	; 0
	.db #0xf0	; 240
	.db #0x00	; 0
	.db #0xf0	; 240
	.db #0x00	; 0
	.db #0xf0	; 240
	.db #0x00	; 0
	.db #0xf0	; 240
	.db #0x00	; 0
	.db #0xf0	; 240
	.db #0x00	; 0
	.db #0xf0	; 240
	.db #0x0f	; 15
	.db #0x0f	; 15
	.db #0x0f	; 15
	.db #0x0f	; 15
	.db #0x00	; 0
	.db #0x00	; 0
	.db #0x00	; 0
	.db #0x00	; 0
	.db #0x00	; 0
	.db #0x00	; 0
	.db #0x00	; 0
	.db #0x00	; 0
	.db #0x00	; 0
	.db #0x00	; 0
	.db #0x00	; 0
	.db #0x00	; 0
	.db #0xcc	; 204
	.db #0xdf	; 223
	.db #0x80	; 128
	.db #0x93	; 147
	.db #0x10	; 16
	.db #0x33	; 51	'3'
	.db #0x12	; 18
	.db #0x33	; 51	'3'
	.db #0x02	; 2
	.db #0x23	; 35
	.db #0x20	; 32
	.db #0x61	; 97	'a'
	.db #0x20	; 32
	.db #0x61	; 97	'a'
	.db #0x00	; 0
	.db #0x7f	; 127
	.db #0x00	; 0
	.db #0xf8	; 248
	.db #0x00	; 0
	.db #0xfc	; 252
	.db #0x00	; 0
	.db #0xfc	; 252
	.db #0x00	; 0
	.db #0xfc	; 252
	.db #0x00	; 0
	.db #0xfc	; 252
	.db #0x00	; 0
	.db #0xfe	; 254
	.db #0x00	; 0
	.db #0xfe	; 254
	.db #0x00	; 0
	.db #0xfe	; 254
	.db #0x00	; 0
	.db #0x00	; 0
	.db #0x00	; 0
	.db #0x00	; 0
	.db #0x00	; 0
	.db #0x03	; 3
	.db #0x00	; 0
	.db #0x03	; 3
	.db #0x00	; 0
	.db #0x03	; 3
	.db #0x00	; 0
	.db #0x03	; 3
	.db #0x00	; 0
	.db #0x03	; 3
	.db #0x00	; 0
	.db #0x03	; 3
	.db #0x00	; 0
	.db #0x07	; 7
	.db #0x00	; 0
	.db #0x7f	; 127
	.db #0x00	; 0
	.db #0xf7	; 247
	.db #0x0c	; 12
	.db #0xff	; 255
	.db #0x07	; 7
	.db #0xf7	; 247
	.db #0x03	; 3
	.db #0xf3	; 243
	.db #0x00	; 0
	.db #0xf0	; 240
	.db #0x00	; 0
	.db #0xf0	; 240
	.db #0x00	; 0
	.db #0xe0	; 224
	.db #0x00	; 0
	.db #0xe0	; 224
	.db #0x20	; 32
	.db #0xe3	; 227
	.db #0x20	; 32
	.db #0xe3	; 227
	.db #0xc0	; 192
	.db #0xc3	; 195
	.db #0xc0	; 192
	.db #0xc3	; 195
	.db #0x00	; 0
	.db #0x03	; 3
	.db #0x00	; 0
	.db #0x03	; 3
	.db #0x00	; 0
	.db #0x0f	; 15
	.db #0x00	; 0
	.db #0x7f	; 127
	.db #0x00	; 0
	.db #0xff	; 255
	.db #0x08	; 8
	.db #0xff	; 255
	.db #0x0f	; 15
	.db #0xff	; 255
	.db #0x07	; 7
	.db #0xf7	; 247
	.db #0x00	; 0
	.db #0xf0	; 240
	.db #0x00	; 0
	.db #0xf0	; 240
	.db #0x00	; 0
	.db #0xe1	; 225
	.db #0x20	; 32
	.db #0xe3	; 227
	.db #0x20	; 32
	.db #0xe7	; 231
	.db #0x40	; 64
	.db #0xcf	; 207
	.db #0xc0	; 192
	.db #0xdf	; 223
	.db #0x8e	; 142
	.db #0x8f	; 143
	.db #0x1e	; 30
	.db #0x1f	; 31
	.db #0x00	; 0
	.db #0x01	; 1
	.db #0x00	; 0
	.db #0xc0	; 192
	.db #0x00	; 0
	.db #0xe0	; 224
	.db #0x00	; 0
	.db #0xf8	; 248
	.db #0x00	; 0
	.db #0xf9	; 249
	.db #0x00	; 0
	.db #0xf9	; 249
	.db #0x01	; 1
	.db #0xf9	; 249
	.db #0x01	; 1
	.db #0xf9	; 249
	.db #0x00	; 0
	.db #0xf8	; 248
	.db #0x00	; 0
	.db #0x70	; 112	'p'
	.db #0x00	; 0
	.db #0xf8	; 248
	.db #0x00	; 0
	.db #0xfd	; 253
	.db #0x00	; 0
	.db #0xff	; 255
	.db #0x01	; 1
	.db #0xff	; 255
	.db #0x01	; 1
	.db #0xff	; 255
	.db #0x80	; 128
	.db #0xfe	; 254
	.db #0x80	; 128
	.db #0xfe	; 254
	.db #0x00	; 0
	.db #0x03	; 3
	.db #0x00	; 0
	.db #0x03	; 3
	.db #0x00	; 0
	.db #0x87	; 135
	.db #0x00	; 0
	.db #0x0f	; 15
	.db #0x84	; 132
	.db #0x97	; 151
	.db #0x0e	; 14
	.db #0x0f	; 15
	.db #0x12	; 18
	.db #0x13	; 19
	.db #0x00	; 0
	.db #0x01	; 1
	.db #0x00	; 0
	.db #0xe0	; 224
	.db #0x00	; 0
	.db #0xf0	; 240
	.db #0x00	; 0
	.db #0xf9	; 249
	.db #0x00	; 0
	.db #0xfb	; 251
	.db #0x00	; 0
	.db #0xff	; 255
	.db #0x02	; 2
	.db #0xfb	; 251
	.db #0x07	; 7
	.db #0xff	; 255
	.db #0x01	; 1
	.db #0xf9	; 249
	.db #0x00	; 0
	.db #0x64	; 100	'd'
	.db #0x00	; 0
	.db #0xe4	; 228
	.db #0x00	; 0
	.db #0xfc	; 252
	.db #0x00	; 0
	.db #0xfd	; 253
	.db #0x04	; 4
	.db #0xff	; 255
	.db #0x0c	; 12
	.db #0xff	; 255
	.db #0xb8	; 184
	.db #0xfb	; 251
	.db #0xf2	; 242
	.db #0xf3	; 243
	.db #0x00	; 0
	.db #0x1f	; 31
	.db #0x00	; 0
	.db #0x7f	; 127
	.db #0x06	; 6
	.db #0x7f	; 127
	.db #0x07	; 7
	.db #0xff	; 255
	.db #0x01	; 1
	.db #0xf9	; 249
	.db #0x00	; 0
	.db #0xf8	; 248
	.db #0x00	; 0
	.db #0xf8	; 248
	.db #0x00	; 0
	.db #0xf9	; 249
	.db #0x00	; 0
	.db #0xff	; 255
	.db #0x00	; 0
	.db #0xfe	; 254
	.db #0x03	; 3
	.db #0xff	; 255
	.db #0x06	; 6
	.db #0xfe	; 254
	.db #0x8c	; 140
	.db #0xfc	; 252
	.db #0x80	; 128
	.db #0xf8	; 248
	.db #0x00	; 0
	.db #0xfc	; 252
	.db #0x00	; 0
	.db #0xfc	; 252
	.db #0x00	; 0
	.db #0x00	; 0
	.db #0x00	; 0
	.db #0x11	; 17
	.db #0x00	; 0
	.db #0x1f	; 31
	.db #0x00	; 0
	.db #0x1f	; 31
	.db #0x00	; 0
	.db #0x1f	; 31
	.db #0x00	; 0
	.db #0x1f	; 31
	.db #0x00	; 0
	.db #0x1f	; 31
	.db #0x00	; 0
	.db #0x1f	; 31
	.db #0x00	; 0
	.db #0x3e	; 62
	.db #0x00	; 0
	.db #0xfe	; 254
	.db #0x00	; 0
	.db #0xff	; 255
	.db #0x40	; 64
	.db #0xff	; 255
	.db #0x40	; 64
	.db #0xff	; 255
	.db #0x20	; 32
	.db #0xbf	; 191
	.db #0x30	; 48	'0'
	.db #0xbf	; 191
	.db #0x10	; 16
	.db #0x9f	; 159
	.db #0x1c	; 28
	.db #0x1f	; 31
	.db #0x0e	; 14
	.db #0x0f	; 15
	.db #0x03	; 3
	.db #0x03	; 3
	.db #0x01	; 1
	.db #0x01	; 1
	.db #0x00	; 0
	.db #0x8f	; 143
	.db #0x00	; 0
	.db #0x8f	; 143
	.db #0x00	; 0
	.db #0x8f	; 143
	.db #0x80	; 128
	.db #0x8f	; 143
	.db #0x00	; 0
	.db #0xff	; 255
	.db #0x00	; 0
	.db #0xff	; 255
	.db #0x80	; 128
	.db #0xff	; 255
	.db #0x00	; 0
	.db #0xff	; 255
	.db #0x00	; 0
	.db #0xff	; 255
	.db #0x18	; 24
	.db #0xff	; 255
	.db #0x1c	; 28
	.db #0xff	; 255
	.db #0x04	; 4
	.db #0xe7	; 231
	.db #0x00	; 0
	.db #0x00	; 0
	.db #0x00	; 0
	.db #0x80	; 128
	.db #0x00	; 0
	.db #0xe4	; 228
	.db #0x00	; 0
	.db #0xf8	; 248
	.db #0x04	; 4
	.db #0xfc	; 252
	.db #0x08	; 8
	.db #0xf8	; 248
	.db #0x08	; 8
	.db #0xf8	; 248
	.db #0x00	; 0
	.db #0xf0	; 240
	.db #0x01	; 1
	.db #0x0d	; 13
	.db #0x07	; 7
	.db #0x0f	; 15
	.db #0x0c	; 12
	.db #0x1c	; 28
	.db #0x08	; 8
	.db #0x18	; 24
	.db #0x00	; 0
	.db #0x18	; 24
	.db #0x00	; 0
	.db #0x1c	; 28
	.db #0x10	; 16
	.db #0x1f	; 31
	.db #0x10	; 16
	.db #0x1f	; 31
	.db #0xc0	; 192
	.db #0xff	; 255
	.db #0xe0	; 224
	.db #0xff	; 255
	.db #0x30	; 48	'0'
	.db #0x3f	; 63
	.db #0x10	; 16
	.db #0x3f	; 63
	.db #0x00	; 0
	.db #0x6f	; 111	'o'
	.db #0x20	; 32
	.db #0xef	; 239
	.db #0x20	; 32
	.db #0xef	; 239
	.db #0x4c	; 76	'L'
	.db #0xdf	; 223
	.db #0x00	; 0
	.db #0xc4	; 196
	.db #0x04	; 4
	.db #0xec	; 236
	.db #0x04	; 4
	.db #0xec	; 236
	.db #0x00	; 0
	.db #0xf8	; 248
	.db #0x00	; 0
	.db #0xf8	; 248
	.db #0x00	; 0
	.db #0xf8	; 248
	.db #0x00	; 0
	.db #0xf8	; 248
	.db #0x00	; 0
	.db #0xf8	; 248
	.db #0x00	; 0
	.db #0x00	; 0
	.db #0x00	; 0
	.db #0x00	; 0
	.db #0x00	; 0
	.db #0x00	; 0
	.db #0x00	; 0
	.db #0x00	; 0
	.db #0x00	; 0
	.db #0x00	; 0
	.db #0x00	; 0
	.db #0x00	; 0
	.db #0x00	; 0
	.db #0x01	; 1
	.db #0x00	; 0
	.db #0x03	; 3
	.db #0x00	; 0
	.db #0x00	; 0
	.db #0x00	; 0
	.db #0x00	; 0
	.db #0x00	; 0
	.db #0x00	; 0
	.db #0x00	; 0
	.db #0x00	; 0
	.db #0x00	; 0
	.db #0x00	; 0
	.db #0x00	; 0
	.db #0x00	; 0
	.db #0x00	; 0
	.db #0x00	; 0
	.db #0x00	; 0
	.db #0xa0	; 160
	.db #0x00	; 0
	.db #0x00	; 0
	.db #0x00	; 0
	.db #0x00	; 0
	.db #0x00	; 0
	.db #0x00	; 0
	.db #0x00	; 0
	.db #0x00	; 0
	.db #0x00	; 0
	.db #0x00	; 0
	.db #0x00	; 0
	.db #0x00	; 0
	.db #0x00	; 0
	.db #0x03	; 3
	.db #0x00	; 0
	.db #0x07	; 7
	.db #0x00	; 0
	.db #0x00	; 0
	.db #0x00	; 0
	.db #0x00	; 0
	.db #0x00	; 0
	.db #0x00	; 0
	.db #0x00	; 0
	.db #0x00	; 0
	.db #0x00	; 0
	.db #0x00	; 0
	.db #0x00	; 0
	.db #0x00	; 0
	.db #0x00	; 0
	.db #0x00	; 0
	.db #0x00	; 0
	.db #0x20	; 32
	.db #0x00	; 0
	.db #0x00	; 0
	.db #0x00	; 0
	.db #0x00	; 0
	.db #0x00	; 0
	.db #0x00	; 0
	.db #0x00	; 0
	.db #0x00	; 0
	.db #0x00	; 0
	.db #0x00	; 0
	.db #0x00	; 0
	.db #0x00	; 0
	.db #0x00	; 0
	.db #0x00	; 0
	.db #0x00	; 0
	.db #0x01	; 1
	.db #0x00	; 0
	.db #0x00	; 0
	.db #0x00	; 0
	.db #0x00	; 0
	.db #0x00	; 0
	.db #0x00	; 0
	.db #0x00	; 0
	.db #0x00	; 0
	.db #0x00	; 0
	.db #0x00	; 0
	.db #0x00	; 0
	.db #0x00	; 0
	.db #0x00	; 0
	.db #0x00	; 0
	.db #0x00	; 0
	.db #0x80	; 128
	.db #0x00	; 0
	.db #0x00	; 0
	.db #0x00	; 0
	.db #0x00	; 0
	.db #0x00	; 0
	.db #0x00	; 0
	.db #0x00	; 0
	.db #0x00	; 0
	.db #0x00	; 0
	.db #0x00	; 0
	.db #0x00	; 0
	.db #0x00	; 0
	.db #0x00	; 0
	.db #0x00	; 0
	.db #0x00	; 0
	.db #0x0f	; 15
	.db #0x00	; 0
	.db #0x00	; 0
	.db #0x00	; 0
	.db #0x00	; 0
	.db #0x00	; 0
	.db #0x00	; 0
	.db #0x00	; 0
	.db #0x00	; 0
	.db #0x00	; 0
	.db #0x00	; 0
	.db #0x00	; 0
	.db #0x00	; 0
	.db #0x00	; 0
	.db #0x00	; 0
	.db #0x00	; 0
	.db #0x0c	; 12
	.db #0x00	; 0
	.db #0x18	; 24
	.db #0x00	; 0
	.db #0x1e	; 30
	.db #0x00	; 0
	.db #0x1f	; 31
	.db #0x00	; 0
	.db #0x1f	; 31
	.db #0x00	; 0
	.db #0x1f	; 31
	.db #0x00	; 0
	.db #0x1f	; 31
	.db #0x00	; 0
	.db #0x1f	; 31
	.db #0x10	; 16
	.db #0x1f	; 31
	.db #0x00	; 0
	.db #0x00	; 0
	.db #0x00	; 0
	.db #0x00	; 0
	.db #0x00	; 0
	.db #0x00	; 0
	.db #0x00	; 0
	.db #0x80	; 128
	.db #0x00	; 0
	.db #0xe0	; 224
	.db #0x00	; 0
	.db #0xf0	; 240
	.db #0x00	; 0
	.db #0xf8	; 248
	.db #0x00	; 0
	.db #0xfe	; 254
	.db #0x00	; 0
	.db #0x00	; 0
	.db #0x00	; 0
	.db #0x00	; 0
	.db #0x00	; 0
	.db #0x00	; 0
	.db #0x00	; 0
	.db #0x00	; 0
	.db #0x00	; 0
	.db #0x00	; 0
	.db #0x00	; 0
	.db #0x00	; 0
	.db #0x00	; 0
	.db #0x01	; 1
	.db #0x00	; 0
	.db #0x07	; 7
	.db #0x00	; 0
	.db #0x00	; 0
	.db #0x00	; 0
	.db #0x00	; 0
	.db #0x00	; 0
	.db #0x00	; 0
	.db #0x00	; 0
	.db #0x00	; 0
	.db #0x00	; 0
	.db #0x00	; 0
	.db #0x00	; 0
	.db #0x00	; 0
	.db #0x00	; 0
	.db #0xfc	; 252
	.db #0x00	; 0
	.db #0xff	; 255
	.db #0x00	; 0
	.db #0x00	; 0
	.db #0x00	; 0
	.db #0x00	; 0
	.db #0x00	; 0
	.db #0x00	; 0
	.db #0x00	; 0
	.db #0x00	; 0
	.db #0x00	; 0
	.db #0x00	; 0
	.db #0x00	; 0
	.db #0x00	; 0
	.db #0x00	; 0
	.db #0x00	; 0
	.db #0x00	; 0
	.db #0x04	; 4
	.db #0x00	; 0
	.db #0x00	; 0
	.db #0x00	; 0
	.db #0x00	; 0
	.db #0x00	; 0
	.db #0xff	; 255
	.db #0x00	; 0
	.db #0xff	; 255
	.db #0xff	; 255
	.db #0xff	; 255
	.db #0x00	; 0
	.db #0x00	; 0
	.db #0x00	; 0
	.db #0x00	; 0
	.db #0x00	; 0
	.db #0x00	; 0
	.db #0x00	; 0
	.db #0x40	; 64
	.db #0x00	; 0
	.db #0x60	; 96
	.db #0x40	; 64
	.db #0x7f	; 127
	.db #0x20	; 32
	.db #0x3f	; 63
	.db #0x1f	; 31
	.db #0x1f	; 31
	.db #0x00	; 0
	.db #0x00	; 0
	.db #0x00	; 0
	.db #0x00	; 0
	.db #0x00	; 0
	.db #0x00	; 0
	.db #0x00	; 0
	.db #0x02	; 2
	.db #0x00	; 0
	.db #0x06	; 6
	.db #0x02	; 2
	.db #0xfe	; 254
	.db #0x04	; 4
	.db #0xfc	; 252
	.db #0xf8	; 248
	.db #0xf8	; 248
	.db #0x00	; 0
	.db #0x00	; 0
	.db #0x00	; 0
	.db #0x00	; 0
	.db #0x00	; 0
	.db #0x00	; 0
	.db #0x00	; 0
	.db #0x77	; 119	'w'
	.db #0x00	; 0
	.db #0x7f	; 127
	.db #0x00	; 0
	.db #0x7f	; 127
	.db #0x14	; 20
	.db #0x7f	; 127
	.db #0x08	; 8
	.db #0x6b	; 107	'k'
	.db #0x00	; 0
	.db #0x63	; 99	'c'
	.db #0x00	; 0
	.db #0x63	; 99	'c'
	.db #0x63	; 99	'c'
	.db #0x63	; 99	'c'
	.db #0x00	; 0
	.db #0x3e	; 62
	.db #0x00	; 0
	.db #0x7f	; 127
	.db #0x1c	; 28
	.db #0x7f	; 127
	.db #0x00	; 0
	.db #0x63	; 99	'c'
	.db #0x00	; 0
	.db #0x63	; 99	'c'
	.db #0x00	; 0
	.db #0x7f	; 127
	.db #0x41	; 65	'A'
	.db #0x7f	; 127
	.db #0x3e	; 62
	.db #0x3e	; 62
	.db #0x00	; 0
	.db #0x63	; 99	'c'
	.db #0x00	; 0
	.db #0x73	; 115	's'
	.db #0x00	; 0
	.db #0x73	; 115	's'
	.db #0x10	; 16
	.db #0x7b	; 123
	.db #0x00	; 0
	.db #0x6b	; 107	'k'
	.db #0x08	; 8
	.db #0x6f	; 111	'o'
	.db #0x00	; 0
	.db #0x67	; 103	'g'
	.db #0x67	; 103	'g'
	.db #0x67	; 103	'g'
	.db #0x00	; 0
	.db #0x3e	; 62
	.db #0x00	; 0
	.db #0x7f	; 127
	.db #0x1c	; 28
	.db #0x7f	; 127
	.db #0x61	; 97	'a'
	.db #0x6f	; 111	'o'
	.db #0x06	; 6
	.db #0x1e	; 30
	.db #0x00	; 0
	.db #0x7f	; 127
	.db #0x00	; 0
	.db #0x7f	; 127
	.db #0x7f	; 127
	.db #0x7f	; 127
	.db #0x00	; 0
	.db #0x3e	; 62
	.db #0x00	; 0
	.db #0x7f	; 127
	.db #0x0c	; 12
	.db #0x7f	; 127
	.db #0x10	; 16
	.db #0x7b	; 123
	.db #0x08	; 8
	.db #0x6f	; 111	'o'
	.db #0x00	; 0
	.db #0x7f	; 127
	.db #0x41	; 65	'A'
	.db #0x7f	; 127
	.db #0x3e	; 62
	.db #0x3e	; 62
	.db #0x00	; 0
	.db #0x3e	; 62
	.db #0x00	; 0
	.db #0x7f	; 127
	.db #0x78	; 120	'x'
	.db #0x7f	; 127
	.db #0x01	; 1
	.db #0x1f	; 31
	.db #0x18	; 24
	.db #0x1f	; 31
	.db #0x00	; 0
	.db #0x7f	; 127
	.db #0x41	; 65	'A'
	.db #0x7f	; 127
	.db #0x3e	; 62
	.db #0x3e	; 62
	.db #0x00	; 0
	.db #0x00	; 0
	.db #0x00	; 0
	.db #0x00	; 0
	.db #0x00	; 0
	.db #0x00	; 0
	.db #0x00	; 0
	.db #0xf8	; 248
	.db #0x00	; 0
	.db #0xfc	; 252
	.db #0xf8	; 248
	.db #0xfe	; 254
	.db #0x04	; 4
	.db #0x06	; 6
	.db #0x02	; 2
	.db #0x02	; 2
	.db #0x00	; 0
	.db #0x00	; 0
	.db #0x00	; 0
	.db #0x00	; 0
	.db #0x00	; 0
	.db #0x00	; 0
	.db #0x00	; 0
	.db #0xff	; 255
	.db #0x00	; 0
	.db #0xff	; 255
	.db #0xff	; 255
	.db #0xff	; 255
	.db #0x00	; 0
	.db #0x00	; 0
	.db #0x00	; 0
	.db #0x00	; 0
	.db #0x00	; 0
	.db #0x00	; 0
	.db #0x00	; 0
	.db #0x00	; 0
	.db #0x00	; 0
	.db #0x00	; 0
	.db #0x00	; 0
	.db #0x1f	; 31
	.db #0x00	; 0
	.db #0x3f	; 63
	.db #0x1f	; 31
	.db #0x7f	; 127
	.db #0x20	; 32
	.db #0x60	; 96
	.db #0x40	; 64
	.db #0x40	; 64
	.db #0x1e	; 30
	.db #0x1e	; 30
	.db #0x3f	; 63
	.db #0x3f	; 63
	.db #0x70	; 112	'p'
	.db #0x70	; 112	'p'
	.db #0x3c	; 60
	.db #0x3c	; 60
	.db #0x1e	; 30
	.db #0x1e	; 30
	.db #0x07	; 7
	.db #0x07	; 7
	.db #0x7e	; 126
	.db #0x7e	; 126
	.db #0x3c	; 60
	.db #0x3c	; 60
	.db #0x3f	; 63
	.db #0x3f	; 63
	.db #0x7f	; 127
	.db #0x7f	; 127
	.db #0x0c	; 12
	.db #0x0c	; 12
	.db #0x0c	; 12
	.db #0x0c	; 12
	.db #0x0c	; 12
	.db #0x0c	; 12
	.db #0x0c	; 12
	.db #0x0c	; 12
	.db #0x0c	; 12
	.db #0x0c	; 12
	.db #0x0c	; 12
	.db #0x0c	; 12
	.db #0x03	; 3
	.db #0x03	; 3
	.db #0x07	; 7
	.db #0x07	; 7
	.db #0x0f	; 15
	.db #0x0f	; 15
	.db #0x1b	; 27
	.db #0x1b	; 27
	.db #0x33	; 51	'3'
	.db #0x33	; 51	'3'
	.db #0x7f	; 127
	.db #0x7f	; 127
	.db #0x63	; 99	'c'
	.db #0x63	; 99	'c'
	.db #0x63	; 99	'c'
	.db #0x63	; 99	'c'
	.db #0x3c	; 60
	.db #0x3c	; 60
	.db #0x7e	; 126
	.db #0x7e	; 126
	.db #0x63	; 99	'c'
	.db #0x63	; 99	'c'
	.db #0x63	; 99	'c'
	.db #0x63	; 99	'c'
	.db #0x66	; 102	'f'
	.db #0x66	; 102	'f'
	.db #0x7c	; 124
	.db #0x7c	; 124
	.db #0x66	; 102	'f'
	.db #0x66	; 102	'f'
	.db #0x63	; 99	'c'
	.db #0x63	; 99	'c'
	.db #0x3e	; 62
	.db #0x3e	; 62
	.db #0x7f	; 127
	.db #0x7f	; 127
	.db #0x63	; 99	'c'
	.db #0x63	; 99	'c'
	.db #0x63	; 99	'c'
	.db #0x63	; 99	'c'
	.db #0x63	; 99	'c'
	.db #0x63	; 99	'c'
	.db #0x63	; 99	'c'
	.db #0x63	; 99	'c'
	.db #0x7f	; 127
	.db #0x7f	; 127
	.db #0x3e	; 62
	.db #0x3e	; 62
	.db #0x3c	; 60
	.db #0x3c	; 60
	.db #0x7e	; 126
	.db #0x7e	; 126
	.db #0x63	; 99	'c'
	.db #0x63	; 99	'c'
	.db #0x63	; 99	'c'
	.db #0x63	; 99	'c'
	.db #0x66	; 102	'f'
	.db #0x66	; 102	'f'
	.db #0x7c	; 124
	.db #0x7c	; 124
	.db #0x60	; 96
	.db #0x60	; 96
	.db #0x60	; 96
	.db #0x60	; 96
	.db #0x3f	; 63
	.db #0x3f	; 63
	.db #0x7f	; 127
	.db #0x7f	; 127
	.db #0x0c	; 12
	.db #0x0c	; 12
	.db #0x0c	; 12
	.db #0x0c	; 12
	.db #0x0c	; 12
	.db #0x0c	; 12
	.db #0x0c	; 12
	.db #0x0c	; 12
	.db #0x3f	; 63
	.db #0x3f	; 63
	.db #0x7f	; 127
	.db #0x7f	; 127
	.db #0x23	; 35
	.db #0x23	; 35
	.db #0x73	; 115	's'
	.db #0x73	; 115	's'
	.db #0x73	; 115	's'
	.db #0x73	; 115	's'
	.db #0x6b	; 107	'k'
	.db #0x6b	; 107	'k'
	.db #0x6b	; 107	'k'
	.db #0x6b	; 107	'k'
	.db #0x67	; 103	'g'
	.db #0x67	; 103	'g'
	.db #0x67	; 103	'g'
	.db #0x67	; 103	'g'
	.db #0x63	; 99	'c'
	.db #0x63	; 99	'c'
	.db #0x3e	; 62
	.db #0x3e	; 62
	.db #0x7f	; 127
	.db #0x7f	; 127
	.db #0x61	; 97	'a'
	.db #0x61	; 97	'a'
	.db #0x60	; 96
	.db #0x60	; 96
	.db #0x60	; 96
	.db #0x60	; 96
	.db #0x61	; 97	'a'
	.db #0x61	; 97	'a'
	.db #0x7f	; 127
	.db #0x7f	; 127
	.db #0x3e	; 62
	.db #0x3e	; 62
	.db #0x3e	; 62
	.db #0x3e	; 62
	.db #0x7f	; 127
	.db #0x7f	; 127
	.db #0x61	; 97	'a'
	.db #0x61	; 97	'a'
	.db #0x7c	; 124
	.db #0x7c	; 124
	.db #0x7c	; 124
	.db #0x7c	; 124
	.db #0x61	; 97	'a'
	.db #0x61	; 97	'a'
	.db #0x7f	; 127
	.db #0x7f	; 127
	.db #0x3e	; 62
	.db #0x3e	; 62
	.db #0x00	; 0
	.db #0x00	; 0
	.db #0x00	; 0
	.db #0x00	; 0
	.db #0x00	; 0
	.db #0x00	; 0
	.db #0x00	; 0
	.db #0x00	; 0
	.db #0x00	; 0
	.db #0x00	; 0
	.db #0x00	; 0
	.db #0x00	; 0
	.db #0x00	; 0
	.db #0x00	; 0
	.db #0x00	; 0
	.db #0x00	; 0
	.db #0x00	; 0
	.db #0x00	; 0
	.db #0x00	; 0
	.db #0x00	; 0
	.db #0x00	; 0
	.db #0x00	; 0
	.db #0x00	; 0
	.db #0x00	; 0
	.db #0x00	; 0
	.db #0x00	; 0
	.db #0x00	; 0
	.db #0x00	; 0
	.db #0x00	; 0
	.db #0x00	; 0
	.db #0x00	; 0
	.db #0x00	; 0
	.db #0x00	; 0
	.db #0x00	; 0
	.db #0x00	; 0
	.db #0x00	; 0
	.db #0x00	; 0
	.db #0x00	; 0
	.db #0x00	; 0
	.db #0x00	; 0
	.db #0x00	; 0
	.db #0x00	; 0
	.db #0x00	; 0
	.db #0x00	; 0
	.db #0x00	; 0
	.db #0x00	; 0
	.db #0x00	; 0
	.db #0x00	; 0
	.db #0x00	; 0
	.db #0x00	; 0
	.db #0x00	; 0
	.db #0x00	; 0
	.db #0x00	; 0
	.db #0x00	; 0
	.db #0x00	; 0
	.db #0x00	; 0
	.db #0x00	; 0
	.db #0x00	; 0
	.db #0x00	; 0
	.db #0x00	; 0
	.db #0x00	; 0
	.db #0x00	; 0
	.db #0x00	; 0
	.db #0x00	; 0
	.db #0x00	; 0
	.db #0x00	; 0
	.db #0x00	; 0
	.db #0x00	; 0
	.db #0x00	; 0
	.db #0x00	; 0
	.db #0x00	; 0
	.db #0x00	; 0
	.db #0x00	; 0
	.db #0x00	; 0
	.db #0x00	; 0
	.db #0x00	; 0
	.db #0x00	; 0
	.db #0x00	; 0
	.db #0x00	; 0
	.db #0x00	; 0
	.db #0x00	; 0
	.db #0x00	; 0
	.db #0x00	; 0
	.db #0x00	; 0
	.db #0x00	; 0
	.db #0x00	; 0
	.db #0x00	; 0
	.db #0x00	; 0
	.db #0x00	; 0
	.db #0x00	; 0
	.db #0x00	; 0
	.db #0x00	; 0
	.db #0x00	; 0
	.db #0x00	; 0
	.db #0x00	; 0
	.db #0x00	; 0
	.db #0x00	; 0
	.db #0x00	; 0
	.db #0x00	; 0
	.db #0x00	; 0
	.db #0x00	; 0
	.db #0x00	; 0
	.db #0x00	; 0
	.db #0x00	; 0
	.db #0x00	; 0
	.db #0x00	; 0
	.db #0x00	; 0
	.db #0x00	; 0
	.db #0x00	; 0
	.db #0x00	; 0
	.db #0x00	; 0
	.db #0x00	; 0
	.db #0x00	; 0
	.db #0x00	; 0
	.db #0x00	; 0
	.db #0x00	; 0
	.db #0x00	; 0
	.db #0x00	; 0
	.db #0x00	; 0
	.db #0x00	; 0
	.db #0x00	; 0
	.db #0x00	; 0
	.db #0x00	; 0
	.db #0x00	; 0
	.db #0x00	; 0
	.db #0x00	; 0
	.db #0x00	; 0
	.db #0x00	; 0
	.db #0x00	; 0
	.db #0x00	; 0
	.db #0x00	; 0
	.db #0x00	; 0
	.db #0x00	; 0
	.db #0x00	; 0
	.db #0x00	; 0
	.db #0x00	; 0
	.db #0x00	; 0
	.db #0x00	; 0
	.db #0x00	; 0
	.db #0x00	; 0
	.db #0x00	; 0
	.db #0x00	; 0
	.db #0x00	; 0
	.db #0x00	; 0
	.db #0x00	; 0
	.db #0x00	; 0
	.db #0x00	; 0
	.db #0x00	; 0
	.db #0x00	; 0
	.db #0x00	; 0
	.db #0x00	; 0
	.db #0x00	; 0
	.db #0x00	; 0
	.db #0x00	; 0
	.db #0x00	; 0
	.db #0x00	; 0
	.db #0x00	; 0
	.db #0x00	; 0
	.db #0x00	; 0
	.db #0x00	; 0
	.db #0x00	; 0
	.db #0x00	; 0
	.db #0x00	; 0
	.db #0x00	; 0
	.db #0x00	; 0
	.db #0x00	; 0
	.db #0x00	; 0
	.db #0x00	; 0
	.db #0x00	; 0
	.db #0x00	; 0
	.db #0x00	; 0
	.db #0x00	; 0
	.db #0x00	; 0
	.db #0x00	; 0
	.db #0x00	; 0
	.db #0x00	; 0
	.db #0x00	; 0
	.db #0x00	; 0
	.db #0x00	; 0
	.db #0x00	; 0
	.db #0x00	; 0
	.db #0x00	; 0
	.db #0x00	; 0
	.db #0x00	; 0
	.db #0x00	; 0
	.db #0x00	; 0
	.db #0x00	; 0
	.db #0x00	; 0
	.db #0x00	; 0
	.db #0x00	; 0
	.db #0x00	; 0
	.db #0x00	; 0
	.db #0x00	; 0
	.db #0x00	; 0
	.db #0x00	; 0
	.db #0x00	; 0
	.db #0x00	; 0
	.db #0x00	; 0
	.db #0x00	; 0
	.db #0x00	; 0
	.db #0x00	; 0
	.db #0x00	; 0
	.db #0x00	; 0
	.db #0x00	; 0
	.db #0x00	; 0
	.db #0x00	; 0
	.db #0x00	; 0
	.db #0x00	; 0
	.db #0x00	; 0
	.db #0x00	; 0
	.db #0x00	; 0
	.db #0x00	; 0
	.db #0x00	; 0
	.db #0x00	; 0
	.db #0x00	; 0
	.db #0x00	; 0
	.db #0x00	; 0
	.db #0x00	; 0
	.db #0x00	; 0
	.db #0x00	; 0
	.db #0x00	; 0
	.db #0x00	; 0
	.db #0x00	; 0
	.db #0x00	; 0
	.db #0x00	; 0
	.db #0x00	; 0
	.db #0x00	; 0
	.db #0x00	; 0
	.db #0x00	; 0
	.db #0x00	; 0
	.db #0x00	; 0
	.db #0x00	; 0
	.db #0x00	; 0
	.db #0x00	; 0
	.db #0x00	; 0
	.db #0x00	; 0
	.db #0x00	; 0
	.db #0x00	; 0
	.db #0x00	; 0
	.db #0x00	; 0
	.db #0x00	; 0
	.db #0x00	; 0
	.db #0x00	; 0
	.db #0x00	; 0
	.db #0x00	; 0
	.db #0x00	; 0
	.db #0x00	; 0
	.db #0x00	; 0
	.db #0x00	; 0
	.db #0x00	; 0
	.db #0x00	; 0
	.db #0x00	; 0
	.db #0x00	; 0
	.db #0x00	; 0
	.db #0x00	; 0
	.db #0x00	; 0
	.db #0x00	; 0
	.db #0x00	; 0
	.db #0x00	; 0
	.db #0x00	; 0
	.db #0x00	; 0
	.db #0x00	; 0
	.db #0x00	; 0
	.db #0x00	; 0
	.db #0x00	; 0
	.db #0x00	; 0
	.db #0x00	; 0
	.db #0x00	; 0
	.db #0x00	; 0
	.db #0x00	; 0
	.db #0x00	; 0
	.db #0x00	; 0
	.db #0x00	; 0
	.db #0x00	; 0
	.db #0x00	; 0
	.db #0x00	; 0
	.db #0x00	; 0
	.db #0x00	; 0
	.db #0x00	; 0
	.db #0x00	; 0
	.db #0x00	; 0
	.db #0x00	; 0
	.db #0x00	; 0
	.db #0x00	; 0
	.db #0x00	; 0
	.db #0x00	; 0
	.db #0x00	; 0
	.db #0x00	; 0
	.db #0x00	; 0
	.db #0x00	; 0
	.db #0x00	; 0
	.db #0x00	; 0
	.db #0x00	; 0
	.db #0x00	; 0
	.db #0x00	; 0
	.db #0x00	; 0
	.db #0x00	; 0
	.db #0x00	; 0
	.db #0x00	; 0
	.db #0x00	; 0
	.db #0x00	; 0
	.db #0x00	; 0
	.db #0x00	; 0
	.db #0x00	; 0
	.db #0x00	; 0
	.db #0x00	; 0
	.db #0x00	; 0
	.db #0x00	; 0
	.db #0x00	; 0
	.db #0x00	; 0
	.db #0x00	; 0
	.db #0x00	; 0
	.db #0x00	; 0
	.db #0x00	; 0
	.db #0x00	; 0
	.db #0x00	; 0
	.db #0x00	; 0
	.db #0x00	; 0
	.db #0x00	; 0
	.db #0x00	; 0
	.db #0x00	; 0
	.db #0x00	; 0
	.db #0x00	; 0
	.db #0x00	; 0
	.db #0x00	; 0
	.db #0x00	; 0
	.db #0x00	; 0
	.db #0x00	; 0
	.db #0x00	; 0
	.db #0x00	; 0
	.db #0x00	; 0
	.db #0x00	; 0
	.db #0x00	; 0
	.db #0x00	; 0
	.db #0x00	; 0
	.db #0x00	; 0
	.db #0x00	; 0
	.db #0x00	; 0
	.db #0x00	; 0
	.db #0x00	; 0
	.db #0x00	; 0
	.db #0x00	; 0
	.db #0x00	; 0
	.db #0x00	; 0
	.db #0x00	; 0
	.db #0x00	; 0
	.db #0x00	; 0
	.db #0x00	; 0
	.db #0x00	; 0
	.db #0x00	; 0
	.db #0x00	; 0
	.db #0x00	; 0
	.db #0x00	; 0
	.db #0x00	; 0
	.db #0x00	; 0
	.db #0x00	; 0
	.db #0x00	; 0
	.db #0x00	; 0
	.db #0x00	; 0
	.db #0x00	; 0
	.db #0x00	; 0
	.db #0x00	; 0
	.db #0x00	; 0
	.db #0x00	; 0
	.db #0x00	; 0
	.db #0x00	; 0
	.db #0x00	; 0
	.db #0x00	; 0
	.db #0x00	; 0
	.db #0x00	; 0
	.db #0x00	; 0
	.db #0x00	; 0
	.db #0x00	; 0
	.db #0x00	; 0
	.db #0x00	; 0
	.db #0x00	; 0
	.db #0x00	; 0
	.db #0x00	; 0
	.db #0x00	; 0
	.db #0x00	; 0
	.db #0x00	; 0
	.db #0x00	; 0
	.db #0x00	; 0
	.db #0x00	; 0
	.db #0x00	; 0
	.db #0x00	; 0
	.db #0x00	; 0
	.db #0x00	; 0
	.db #0x00	; 0
	.db #0x00	; 0
	.db #0x00	; 0
	.db #0x00	; 0
	.db #0x00	; 0
	.db #0x00	; 0
	.db #0x00	; 0
	.db #0x00	; 0
	.db #0x00	; 0
	.db #0x00	; 0
	.db #0x00	; 0
	.db #0x00	; 0
	.db #0x00	; 0
	.db #0x00	; 0
	.db #0x00	; 0
	.db #0x00	; 0
	.db #0x00	; 0
	.db #0x00	; 0
	.db #0x00	; 0
	.db #0x00	; 0
	.db #0x00	; 0
	.db #0x00	; 0
	.db #0x00	; 0
	.db #0x00	; 0
	.db #0x00	; 0
	.db #0x00	; 0
	.db #0x00	; 0
	.db #0x00	; 0
__xinit__sprites:
	.db #0x1c	; 28
	.db #0x08	; 8
	.db #0x7c	; 124
	.db #0x18	; 24
	.db #0xfd	; 253
	.db #0x7c	; 124
	.db #0x66	; 102	'f'
	.db #0x39	; 57	'9'
	.db #0xfd	; 253
	.db #0x7e	; 126
	.db #0xfe	; 254
	.db #0x7c	; 124
	.db #0xbc	; 188
	.db #0x78	; 120	'x'
	.db #0x78	; 120	'x'
	.db #0x80	; 128
	.db #0x0e	; 14
	.db #0x04	; 4
	.db #0x3e	; 62
	.db #0x0c	; 12
	.db #0x7f	; 127
	.db #0x3e	; 62
	.db #0x72	; 114	'r'
	.db #0x1c	; 28
	.db #0xff	; 255
	.db #0x7c	; 124
	.db #0x7c	; 124
	.db #0xff	; 255
	.db #0xff	; 255
	.db #0x38	; 56	'8'
	.db #0x38	; 56	'8'
	.db #0x00	; 0
	.db #0x00	; 0
	.db #0x00	; 0
	.db #0x00	; 0
	.db #0x00	; 0
	.db #0x00	; 0
	.db #0x00	; 0
	.db #0x00	; 0
	.db #0x00	; 0
	.db #0x00	; 0
	.db #0x06	; 6
	.db #0x02	; 2
	.db #0x0d	; 13
	.db #0x00	; 0
	.db #0x06	; 6
	.db #0x00	; 0
	.db #0x00	; 0
	.db #0x3c	; 60
	.db #0x00	; 0
	.db #0x7e	; 126
	.db #0x3c	; 60
	.db #0xc3	; 195
	.db #0x7e	; 126
	.db #0xeb	; 235
	.db #0x7e	; 126
	.db #0xc3	; 195
	.db #0x7e	; 126
	.db #0xc6	; 198
	.db #0x7c	; 124
	.db #0x7c	; 124
	.db #0x38	; 56	'8'
	.db #0x38	; 56	'8'
	.db #0x00	; 0
	.db #0x0f	; 15
	.db #0x00	; 0
	.db #0x1f	; 31
	.db #0x0f	; 15
	.db #0x30	; 48	'0'
	.db #0x1f	; 31
	.db #0x60	; 96
	.db #0x3f	; 63
	.db #0xc0	; 192
	.db #0x7f	; 127
	.db #0xc0	; 192
	.db #0x7f	; 127
	.db #0xc0	; 192
	.db #0x7f	; 127
	.db #0xc1	; 193
	.db #0x7f	; 127
	.db #0x77	; 119	'w'
	.db #0x3e	; 62
	.db #0x63	; 99	'c'
	.db #0x3f	; 63
	.db #0xd0	; 208
	.db #0x7f	; 127
	.db #0xd0	; 208
	.db #0x7f	; 127
	.db #0x63	; 99	'c'
	.db #0x3f	; 63
	.db #0x61	; 97	'a'
	.db #0x3f	; 63
	.db #0x3f	; 63
	.db #0x1f	; 31
	.db #0x1f	; 31
	.db #0x00	; 0
	.db #0xf0	; 240
	.db #0x00	; 0
	.db #0xf8	; 248
	.db #0xf0	; 240
	.db #0x0c	; 12
	.db #0xf8	; 248
	.db #0x0e	; 14
	.db #0xfc	; 252
	.db #0x1f	; 31
	.db #0xfe	; 254
	.db #0x1f	; 31
	.db #0xfe	; 254
	.db #0x3f	; 63
	.db #0xfe	; 254
	.db #0x9f	; 159
	.db #0xfe	; 254
	.db #0x8f	; 143
	.db #0xfe	; 254
	.db #0x0e	; 14
	.db #0xfc	; 252
	.db #0x0c	; 12
	.db #0xf8	; 248
	.db #0x18	; 24
	.db #0xf0	; 240
	.db #0xf0	; 240
	.db #0xe0	; 224
	.db #0xe0	; 224
	.db #0x00	; 0
	.db #0x80	; 128
	.db #0x00	; 0
	.db #0x00	; 0
	.db #0x00	; 0
	.db #0x00	; 0
	.db #0x00	; 0
	.db #0x00	; 0
	.db #0x00	; 0
	.db #0x00	; 0
	.db #0x00	; 0
	.db #0x00	; 0
	.db #0x00	; 0
	.db #0x00	; 0
	.db #0x00	; 0
	.db #0x00	; 0
	.db #0x00	; 0
	.db #0x00	; 0
	.db #0x00	; 0
	.db #0x00	; 0
	.db #0x00	; 0
	.db #0x00	; 0
	.db #0x00	; 0
	.db #0x00	; 0
	.db #0x00	; 0
	.db #0x00	; 0
	.db #0x00	; 0
	.db #0x00	; 0
	.db #0x00	; 0
	.db #0x00	; 0
	.db #0x00	; 0
	.db #0x00	; 0
	.db #0x00	; 0
	.db #0x00	; 0
	.db #0x00	; 0
	.db #0x00	; 0
	.db #0x00	; 0
	.db #0x00	; 0
	.db #0x00	; 0
	.db #0x00	; 0
	.db #0x00	; 0
	.db #0x00	; 0
	.db #0x00	; 0
	.db #0x00	; 0
	.db #0x00	; 0
	.db #0x00	; 0
	.db #0x00	; 0
	.db #0x00	; 0
	.db #0x00	; 0
	.db #0x00	; 0
	.db #0x00	; 0
	.db #0x00	; 0
	.db #0x00	; 0
	.db #0x00	; 0
	.db #0x00	; 0
	.db #0x00	; 0
	.db #0x00	; 0
	.db #0x00	; 0
	.db #0x00	; 0
	.db #0x00	; 0
	.db #0x00	; 0
	.db #0x00	; 0
	.db #0x00	; 0
	.db #0x00	; 0
	.db #0x00	; 0
	.db #0x00	; 0
	.db #0x00	; 0
	.db #0x00	; 0
	.db #0x00	; 0
	.db #0x00	; 0
	.db #0x00	; 0
	.db #0x00	; 0
	.db #0x00	; 0
	.db #0x00	; 0
	.db #0x00	; 0
	.db #0x00	; 0
	.db #0x00	; 0
	.db #0x00	; 0
	.db #0x00	; 0
	.db #0x00	; 0
	.db #0x00	; 0
	.db #0x00	; 0
	.db #0x00	; 0
	.db #0x00	; 0
	.db #0x00	; 0
	.db #0x00	; 0
	.db #0x00	; 0
	.db #0x00	; 0
	.db #0x00	; 0
	.db #0x00	; 0
	.db #0x00	; 0
	.db #0x00	; 0
	.db #0x00	; 0
	.db #0x00	; 0
	.db #0x00	; 0
	.db #0x00	; 0
	.db #0x00	; 0
	.db #0x00	; 0
	.db #0x00	; 0
	.db #0x00	; 0
	.db #0x00	; 0
	.db #0x00	; 0
	.db #0x00	; 0
	.db #0x00	; 0
	.db #0x00	; 0
	.db #0x00	; 0
	.db #0x00	; 0
	.db #0x00	; 0
	.db #0x00	; 0
	.db #0x00	; 0
	.db #0x00	; 0
	.db #0x00	; 0
	.db #0x00	; 0
	.db #0x00	; 0
	.db #0x00	; 0
	.db #0x00	; 0
	.db #0x00	; 0
	.db #0x00	; 0
	.db #0x00	; 0
	.db #0x00	; 0
	.db #0x00	; 0
	.db #0x00	; 0
	.db #0x00	; 0
	.db #0x00	; 0
	.db #0x00	; 0
	.db #0x00	; 0
	.db #0x00	; 0
	.db #0x00	; 0
	.db #0x00	; 0
	.db #0x00	; 0
	.db #0x00	; 0
	.db #0x00	; 0
	.db #0x00	; 0
	.db #0x00	; 0
	.db #0x00	; 0
	.db #0x00	; 0
	.db #0x00	; 0
	.db #0x00	; 0
	.db #0x00	; 0
	.db #0x00	; 0
	.db #0x00	; 0
	.db #0x00	; 0
	.db #0x00	; 0
	.db #0x00	; 0
	.db #0x00	; 0
	.db #0x00	; 0
	.db #0x00	; 0
	.db #0x00	; 0
	.db #0x00	; 0
	.db #0x00	; 0
	.db #0x00	; 0
	.db #0x00	; 0
	.db #0x00	; 0
	.db #0x00	; 0
	.db #0x00	; 0
	.db #0x00	; 0
	.db #0x00	; 0
	.db #0x00	; 0
	.db #0x00	; 0
	.db #0x00	; 0
	.db #0x00	; 0
	.db #0x00	; 0
	.db #0x00	; 0
	.db #0x00	; 0
	.db #0x00	; 0
	.db #0x00	; 0
	.db #0x00	; 0
	.db #0x00	; 0
	.db #0x00	; 0
	.db #0x00	; 0
	.db #0x00	; 0
	.db #0x00	; 0
	.db #0x00	; 0
	.db #0x00	; 0
	.db #0x00	; 0
	.db #0x00	; 0
	.db #0x00	; 0
	.db #0x00	; 0
	.db #0x00	; 0
	.db #0x00	; 0
	.db #0x00	; 0
	.db #0x00	; 0
	.db #0x00	; 0
	.db #0x00	; 0
	.db #0x00	; 0
	.db #0x00	; 0
	.db #0x00	; 0
	.db #0x00	; 0
	.db #0x00	; 0
	.db #0x00	; 0
	.db #0x00	; 0
	.db #0x00	; 0
	.db #0x00	; 0
	.db #0x00	; 0
	.db #0x00	; 0
	.db #0x00	; 0
	.db #0x00	; 0
	.db #0x00	; 0
	.db #0x00	; 0
	.db #0x00	; 0
	.db #0x00	; 0
	.db #0x00	; 0
	.db #0x00	; 0
	.db #0x00	; 0
	.db #0x00	; 0
	.db #0x00	; 0
	.db #0x00	; 0
	.db #0x00	; 0
	.db #0x00	; 0
	.db #0x00	; 0
	.db #0x00	; 0
	.db #0x00	; 0
	.db #0x00	; 0
	.db #0x00	; 0
	.db #0x00	; 0
	.db #0x00	; 0
	.db #0x00	; 0
	.db #0x00	; 0
	.db #0x00	; 0
	.db #0x00	; 0
	.db #0x00	; 0
	.db #0x00	; 0
	.db #0x00	; 0
	.db #0x00	; 0
	.db #0x00	; 0
	.db #0x00	; 0
	.db #0x00	; 0
	.db #0x00	; 0
	.db #0x00	; 0
	.db #0x00	; 0
	.db #0x00	; 0
	.db #0x00	; 0
	.db #0x00	; 0
	.db #0x00	; 0
	.db #0x00	; 0
	.db #0x00	; 0
	.db #0x00	; 0
	.db #0x00	; 0
	.db #0x00	; 0
	.db #0x00	; 0
	.db #0x00	; 0
	.db #0x00	; 0
	.db #0x00	; 0
	.db #0x00	; 0
	.db #0x00	; 0
	.db #0x00	; 0
	.db #0x00	; 0
	.db #0x00	; 0
	.db #0x00	; 0
	.db #0x00	; 0
	.db #0x00	; 0
	.db #0x00	; 0
	.db #0x00	; 0
	.db #0x00	; 0
	.db #0x00	; 0
	.db #0x00	; 0
	.db #0x00	; 0
	.db #0x00	; 0
	.db #0x00	; 0
	.db #0x00	; 0
	.db #0x00	; 0
	.db #0x00	; 0
	.db #0x00	; 0
	.db #0x00	; 0
	.db #0x00	; 0
	.db #0x00	; 0
	.db #0x00	; 0
	.db #0x00	; 0
	.db #0x00	; 0
	.db #0x00	; 0
	.db #0x00	; 0
	.db #0x00	; 0
	.db #0x00	; 0
	.db #0x00	; 0
	.db #0x00	; 0
	.db #0x00	; 0
	.db #0x00	; 0
	.db #0x00	; 0
	.db #0x00	; 0
	.db #0x00	; 0
	.db #0x00	; 0
	.db #0x00	; 0
	.db #0x00	; 0
	.db #0x00	; 0
	.db #0x00	; 0
	.db #0x00	; 0
	.db #0x00	; 0
	.db #0x00	; 0
	.db #0x00	; 0
	.db #0x00	; 0
	.db #0x00	; 0
	.db #0x00	; 0
	.db #0x00	; 0
	.db #0x00	; 0
	.db #0x00	; 0
	.db #0x00	; 0
	.db #0x00	; 0
	.db #0x00	; 0
	.db #0x00	; 0
	.db #0x00	; 0
	.db #0x00	; 0
	.db #0x00	; 0
	.db #0x00	; 0
	.db #0x00	; 0
	.db #0x00	; 0
	.db #0x00	; 0
	.db #0x00	; 0
	.db #0x00	; 0
	.db #0x00	; 0
	.db #0x00	; 0
	.db #0x00	; 0
	.db #0x00	; 0
	.db #0x00	; 0
	.db #0x00	; 0
	.db #0x00	; 0
	.db #0x00	; 0
	.db #0x00	; 0
	.db #0x00	; 0
	.db #0x00	; 0
	.db #0x00	; 0
	.db #0x00	; 0
	.db #0x00	; 0
	.db #0x00	; 0
	.db #0x00	; 0
	.db #0x00	; 0
	.db #0x00	; 0
	.db #0x00	; 0
	.db #0x00	; 0
	.db #0x00	; 0
	.db #0x00	; 0
	.db #0x00	; 0
	.db #0x00	; 0
	.db #0x00	; 0
	.db #0x00	; 0
	.db #0x00	; 0
	.db #0x00	; 0
	.db #0x00	; 0
	.db #0x00	; 0
	.db #0x00	; 0
	.db #0x00	; 0
	.db #0x00	; 0
	.db #0x00	; 0
	.db #0x00	; 0
	.db #0x00	; 0
	.db #0x00	; 0
	.db #0x00	; 0
	.db #0x00	; 0
	.db #0x00	; 0
	.db #0x00	; 0
	.db #0x00	; 0
	.db #0x00	; 0
	.db #0x00	; 0
	.db #0x00	; 0
	.db #0x00	; 0
	.db #0x00	; 0
	.db #0x00	; 0
	.db #0x00	; 0
	.db #0x00	; 0
	.db #0x00	; 0
	.db #0x00	; 0
	.db #0x00	; 0
	.db #0x00	; 0
	.db #0x00	; 0
	.db #0x00	; 0
	.db #0x00	; 0
	.db #0x00	; 0
	.db #0x00	; 0
	.db #0x00	; 0
	.db #0x00	; 0
	.db #0x00	; 0
	.db #0x00	; 0
	.db #0x00	; 0
	.db #0x00	; 0
	.db #0x00	; 0
	.db #0x00	; 0
	.db #0x00	; 0
	.db #0x00	; 0
	.db #0x00	; 0
	.db #0x00	; 0
	.db #0x00	; 0
	.db #0x00	; 0
	.db #0x00	; 0
	.db #0x00	; 0
	.db #0x00	; 0
	.db #0x00	; 0
	.db #0x00	; 0
	.db #0x00	; 0
	.db #0x00	; 0
	.db #0x00	; 0
	.db #0x00	; 0
	.db #0x00	; 0
	.db #0x00	; 0
	.db #0x00	; 0
	.db #0x00	; 0
	.db #0x00	; 0
	.db #0x00	; 0
	.db #0x00	; 0
	.db #0x00	; 0
	.db #0x00	; 0
	.db #0x00	; 0
	.db #0x00	; 0
	.db #0x00	; 0
	.db #0x00	; 0
	.db #0x00	; 0
	.db #0x00	; 0
	.db #0x00	; 0
	.db #0x00	; 0
	.db #0x00	; 0
	.db #0x00	; 0
	.db #0x00	; 0
	.db #0x00	; 0
	.db #0x00	; 0
	.db #0x00	; 0
	.db #0x00	; 0
	.db #0x00	; 0
	.db #0x00	; 0
	.db #0x00	; 0
	.db #0x00	; 0
	.db #0x00	; 0
	.db #0x00	; 0
	.db #0x00	; 0
	.db #0x00	; 0
	.db #0x00	; 0
	.db #0x00	; 0
	.db #0x00	; 0
	.db #0x00	; 0
	.db #0x00	; 0
	.db #0x00	; 0
	.db #0x00	; 0
	.db #0x00	; 0
	.db #0x00	; 0
	.db #0x00	; 0
	.db #0x00	; 0
	.db #0x00	; 0
	.db #0x00	; 0
	.db #0x00	; 0
	.db #0x00	; 0
	.db #0x00	; 0
	.db #0x00	; 0
	.db #0x00	; 0
	.db #0x00	; 0
	.db #0x00	; 0
	.db #0x00	; 0
	.db #0x00	; 0
	.db #0x00	; 0
	.db #0x00	; 0
	.db #0x00	; 0
	.db #0x00	; 0
	.db #0x00	; 0
	.db #0x00	; 0
	.db #0x00	; 0
	.db #0x00	; 0
	.db #0x00	; 0
	.db #0x00	; 0
	.db #0x00	; 0
	.db #0x00	; 0
	.db #0x00	; 0
	.db #0x00	; 0
	.db #0x00	; 0
	.db #0x00	; 0
	.db #0x00	; 0
	.db #0x00	; 0
	.db #0x00	; 0
	.db #0x00	; 0
	.db #0x00	; 0
	.db #0x00	; 0
	.db #0x00	; 0
	.db #0x00	; 0
	.db #0x00	; 0
	.db #0x00	; 0
	.db #0x00	; 0
	.db #0x00	; 0
	.db #0x00	; 0
	.db #0x00	; 0
	.db #0x00	; 0
	.db #0x00	; 0
	.db #0x00	; 0
	.db #0x00	; 0
	.db #0x00	; 0
	.db #0x00	; 0
	.db #0x00	; 0
	.db #0x00	; 0
	.db #0x00	; 0
	.db #0x00	; 0
	.db #0x00	; 0
	.db #0x00	; 0
	.db #0x00	; 0
	.db #0x00	; 0
	.db #0x00	; 0
	.db #0x00	; 0
	.db #0x00	; 0
	.db #0x00	; 0
	.db #0x00	; 0
	.db #0x00	; 0
	.db #0x00	; 0
	.db #0x00	; 0
	.db #0x00	; 0
	.db #0x00	; 0
	.db #0x00	; 0
	.db #0x00	; 0
	.db #0x00	; 0
	.db #0x00	; 0
	.db #0x00	; 0
	.db #0x00	; 0
	.db #0x00	; 0
	.db #0x00	; 0
	.db #0x00	; 0
	.db #0x00	; 0
	.db #0x00	; 0
	.db #0x00	; 0
	.db #0x00	; 0
	.db #0x00	; 0
	.db #0x00	; 0
	.db #0x00	; 0
	.db #0x00	; 0
	.db #0x00	; 0
	.db #0x00	; 0
	.db #0x00	; 0
	.db #0x00	; 0
	.db #0x00	; 0
	.db #0x00	; 0
	.db #0x00	; 0
	.db #0x00	; 0
	.db #0x00	; 0
	.db #0x00	; 0
	.db #0x00	; 0
	.db #0x00	; 0
	.db #0x00	; 0
	.db #0x00	; 0
	.db #0x00	; 0
	.db #0x00	; 0
	.db #0x00	; 0
	.db #0x00	; 0
	.db #0x00	; 0
	.db #0x00	; 0
	.db #0x00	; 0
	.db #0x00	; 0
	.db #0x00	; 0
	.db #0x00	; 0
	.db #0x00	; 0
	.db #0x00	; 0
	.db #0x00	; 0
	.db #0x00	; 0
	.db #0x00	; 0
	.db #0x00	; 0
	.db #0x00	; 0
	.db #0x00	; 0
	.db #0x00	; 0
	.db #0x00	; 0
	.db #0x00	; 0
	.db #0x00	; 0
	.db #0x00	; 0
	.db #0x00	; 0
	.db #0x00	; 0
	.db #0x00	; 0
	.db #0x00	; 0
	.db #0x00	; 0
	.db #0x00	; 0
	.db #0x00	; 0
	.db #0x00	; 0
	.db #0x00	; 0
	.db #0x00	; 0
	.db #0x00	; 0
	.db #0x00	; 0
	.db #0x00	; 0
	.db #0x00	; 0
	.db #0x00	; 0
	.db #0x00	; 0
	.db #0x00	; 0
	.db #0x00	; 0
	.db #0x00	; 0
	.db #0x00	; 0
	.db #0x00	; 0
	.db #0x00	; 0
	.db #0x00	; 0
	.db #0x00	; 0
	.db #0x00	; 0
	.db #0x00	; 0
	.db #0x00	; 0
	.db #0x00	; 0
	.db #0x00	; 0
	.db #0x00	; 0
	.db #0x00	; 0
	.db #0x00	; 0
	.db #0x00	; 0
	.db #0x00	; 0
	.db #0x00	; 0
	.db #0x00	; 0
	.db #0x00	; 0
	.db #0x00	; 0
	.db #0x00	; 0
	.db #0x00	; 0
	.db #0x00	; 0
	.db #0x00	; 0
	.db #0x00	; 0
	.db #0x00	; 0
	.db #0x00	; 0
	.db #0x00	; 0
	.db #0x00	; 0
	.db #0x00	; 0
	.db #0x00	; 0
	.db #0x00	; 0
	.db #0x00	; 0
	.db #0x00	; 0
	.db #0x00	; 0
	.db #0x00	; 0
	.db #0x00	; 0
	.db #0x00	; 0
	.db #0x00	; 0
	.db #0x00	; 0
	.db #0x00	; 0
	.db #0x00	; 0
	.db #0x00	; 0
	.db #0x00	; 0
	.db #0x00	; 0
	.db #0x00	; 0
	.db #0x00	; 0
	.db #0x00	; 0
	.db #0x00	; 0
	.db #0x00	; 0
	.db #0x00	; 0
	.db #0x00	; 0
	.db #0x00	; 0
	.db #0x00	; 0
	.db #0x00	; 0
	.db #0x00	; 0
	.db #0x00	; 0
	.db #0x00	; 0
	.db #0x00	; 0
	.db #0x00	; 0
	.db #0x00	; 0
	.db #0x00	; 0
	.db #0x00	; 0
	.db #0x00	; 0
	.db #0x00	; 0
	.db #0x00	; 0
	.db #0x00	; 0
	.db #0x00	; 0
	.db #0x00	; 0
	.db #0x00	; 0
	.db #0x00	; 0
	.db #0x00	; 0
	.db #0x00	; 0
	.db #0x00	; 0
	.db #0x00	; 0
	.db #0x00	; 0
	.db #0x00	; 0
	.db #0x00	; 0
	.db #0x00	; 0
	.db #0x00	; 0
	.db #0x00	; 0
	.db #0x00	; 0
	.db #0x00	; 0
	.db #0x00	; 0
	.db #0x00	; 0
	.db #0x00	; 0
	.db #0x00	; 0
	.db #0x00	; 0
	.db #0x00	; 0
	.db #0x00	; 0
	.db #0x00	; 0
	.db #0x00	; 0
	.db #0x00	; 0
	.db #0x00	; 0
	.db #0x00	; 0
	.db #0x00	; 0
	.db #0x00	; 0
	.db #0x00	; 0
	.db #0x00	; 0
	.db #0x00	; 0
	.db #0x00	; 0
	.db #0x00	; 0
	.db #0x00	; 0
	.db #0x00	; 0
	.db #0x00	; 0
	.db #0x00	; 0
	.db #0x00	; 0
	.db #0x00	; 0
	.db #0x00	; 0
	.db #0x00	; 0
	.db #0x00	; 0
	.db #0x00	; 0
	.db #0x00	; 0
	.db #0x00	; 0
	.db #0x00	; 0
	.db #0x00	; 0
	.db #0x00	; 0
	.db #0x00	; 0
	.db #0x00	; 0
	.db #0x00	; 0
	.db #0x00	; 0
	.db #0x00	; 0
	.db #0x00	; 0
	.db #0x00	; 0
	.db #0x00	; 0
	.db #0x00	; 0
	.db #0x00	; 0
	.db #0x00	; 0
	.db #0x00	; 0
	.db #0x00	; 0
	.db #0x00	; 0
	.db #0x00	; 0
	.db #0x00	; 0
	.db #0x00	; 0
	.db #0x00	; 0
	.db #0x00	; 0
	.db #0x00	; 0
	.db #0x00	; 0
	.db #0x00	; 0
	.db #0x00	; 0
	.db #0x00	; 0
	.db #0x00	; 0
	.db #0x00	; 0
	.db #0x00	; 0
	.db #0x00	; 0
	.db #0x00	; 0
	.db #0x00	; 0
	.db #0x00	; 0
	.db #0x00	; 0
	.db #0x00	; 0
	.db #0x00	; 0
	.db #0x00	; 0
	.db #0x00	; 0
	.db #0x00	; 0
	.db #0x00	; 0
	.db #0x00	; 0
	.db #0x00	; 0
	.db #0x00	; 0
	.db #0x00	; 0
	.db #0x00	; 0
	.db #0x00	; 0
	.db #0x00	; 0
	.db #0x00	; 0
	.db #0x00	; 0
	.db #0x00	; 0
	.db #0x00	; 0
	.db #0x00	; 0
	.db #0x00	; 0
	.db #0x00	; 0
	.db #0x00	; 0
	.db #0x00	; 0
	.db #0x00	; 0
	.db #0x00	; 0
	.db #0x00	; 0
	.db #0x00	; 0
	.db #0x00	; 0
	.db #0x00	; 0
	.db #0x00	; 0
	.db #0x00	; 0
	.db #0x00	; 0
	.db #0x00	; 0
	.db #0x00	; 0
	.db #0x00	; 0
	.db #0x00	; 0
	.db #0x00	; 0
	.db #0x00	; 0
	.db #0x00	; 0
	.db #0x00	; 0
	.db #0x00	; 0
	.db #0x00	; 0
	.db #0x00	; 0
	.db #0x00	; 0
	.db #0x00	; 0
	.db #0x00	; 0
	.db #0x00	; 0
	.db #0x00	; 0
	.db #0x00	; 0
	.db #0x00	; 0
	.db #0x00	; 0
	.db #0x00	; 0
	.db #0x00	; 0
	.db #0x00	; 0
	.db #0x00	; 0
	.db #0x00	; 0
	.db #0x00	; 0
	.db #0x00	; 0
	.db #0x00	; 0
	.db #0x00	; 0
	.db #0x00	; 0
	.db #0x00	; 0
	.db #0x00	; 0
	.db #0x00	; 0
	.db #0x00	; 0
	.db #0x00	; 0
	.db #0x00	; 0
	.db #0x00	; 0
	.db #0x00	; 0
	.db #0x00	; 0
	.db #0x00	; 0
	.db #0x00	; 0
	.db #0x00	; 0
	.db #0x00	; 0
	.db #0x00	; 0
	.db #0x00	; 0
	.db #0x00	; 0
	.db #0x00	; 0
	.db #0x00	; 0
	.db #0x00	; 0
	.db #0x00	; 0
	.db #0x00	; 0
	.db #0x00	; 0
	.db #0x00	; 0
	.db #0x00	; 0
	.db #0x00	; 0
	.db #0x00	; 0
	.db #0x00	; 0
	.db #0x00	; 0
	.db #0x00	; 0
	.db #0x00	; 0
	.db #0x00	; 0
	.db #0x00	; 0
	.db #0x00	; 0
	.db #0x00	; 0
	.db #0x00	; 0
	.db #0x00	; 0
	.db #0x00	; 0
	.db #0x00	; 0
	.db #0x00	; 0
	.db #0x00	; 0
	.db #0x00	; 0
	.db #0x00	; 0
	.db #0x00	; 0
	.db #0x00	; 0
	.db #0x00	; 0
	.db #0x00	; 0
	.db #0x00	; 0
	.db #0x00	; 0
	.db #0x00	; 0
	.db #0x00	; 0
	.db #0x00	; 0
	.db #0x00	; 0
	.db #0x00	; 0
	.db #0x00	; 0
	.db #0x00	; 0
	.db #0x00	; 0
	.db #0x00	; 0
	.db #0x00	; 0
	.db #0x00	; 0
	.db #0x00	; 0
	.db #0x00	; 0
	.db #0x00	; 0
	.db #0x00	; 0
	.db #0x00	; 0
	.db #0x00	; 0
	.db #0x00	; 0
	.db #0x00	; 0
	.db #0x00	; 0
	.db #0x00	; 0
	.db #0x00	; 0
	.db #0x00	; 0
	.db #0x00	; 0
	.db #0x00	; 0
	.db #0x00	; 0
	.db #0x00	; 0
	.db #0x00	; 0
	.db #0x00	; 0
	.db #0x00	; 0
	.db #0x00	; 0
	.db #0x00	; 0
	.db #0x00	; 0
	.db #0x00	; 0
	.db #0x00	; 0
	.db #0x00	; 0
	.db #0x00	; 0
	.db #0x00	; 0
	.db #0x00	; 0
	.db #0x00	; 0
	.db #0x00	; 0
	.db #0x00	; 0
	.db #0x00	; 0
	.db #0x00	; 0
	.db #0x00	; 0
	.db #0x00	; 0
	.db #0x00	; 0
	.db #0x00	; 0
	.db #0x00	; 0
	.db #0x00	; 0
	.db #0x00	; 0
	.db #0x00	; 0
	.db #0x00	; 0
	.db #0x00	; 0
	.db #0x00	; 0
	.db #0x00	; 0
	.db #0x00	; 0
	.db #0x00	; 0
	.db #0x00	; 0
	.db #0x00	; 0
	.db #0x00	; 0
	.db #0x00	; 0
	.db #0x00	; 0
	.db #0x00	; 0
	.db #0x00	; 0
	.db #0x00	; 0
	.db #0x00	; 0
	.db #0x00	; 0
	.db #0x00	; 0
	.db #0x00	; 0
	.db #0x00	; 0
	.db #0x00	; 0
	.db #0x00	; 0
	.db #0x00	; 0
	.db #0x00	; 0
	.db #0x00	; 0
	.db #0x00	; 0
	.db #0x00	; 0
	.db #0x00	; 0
	.db #0x00	; 0
	.db #0x00	; 0
	.db #0x00	; 0
	.db #0x00	; 0
	.db #0x00	; 0
	.db #0x00	; 0
	.db #0x00	; 0
	.db #0x00	; 0
	.db #0x00	; 0
	.db #0x00	; 0
	.db #0x00	; 0
	.db #0x00	; 0
	.db #0x00	; 0
	.db #0x00	; 0
	.db #0x00	; 0
	.db #0x00	; 0
	.db #0x00	; 0
	.db #0x00	; 0
	.db #0x00	; 0
	.db #0x00	; 0
	.db #0x00	; 0
	.db #0x00	; 0
	.db #0x00	; 0
	.db #0x00	; 0
	.db #0x00	; 0
	.db #0x00	; 0
	.db #0x00	; 0
	.db #0x00	; 0
	.db #0x00	; 0
	.db #0x00	; 0
	.db #0x00	; 0
	.db #0x00	; 0
	.db #0x00	; 0
	.db #0x00	; 0
	.db #0x00	; 0
	.db #0x00	; 0
	.db #0x00	; 0
	.db #0x00	; 0
	.db #0x00	; 0
	.db #0x00	; 0
	.db #0x00	; 0
	.db #0x00	; 0
	.db #0x00	; 0
	.db #0x00	; 0
	.db #0x00	; 0
	.db #0x00	; 0
	.db #0x00	; 0
	.db #0x00	; 0
	.db #0x00	; 0
	.db #0x00	; 0
	.db #0x00	; 0
	.db #0x00	; 0
	.db #0x00	; 0
	.db #0x00	; 0
	.db #0x00	; 0
	.db #0x00	; 0
	.db #0x00	; 0
	.db #0x00	; 0
	.db #0x00	; 0
	.db #0x00	; 0
	.db #0x00	; 0
	.db #0x00	; 0
	.db #0x00	; 0
	.db #0x00	; 0
	.db #0x00	; 0
	.db #0x00	; 0
	.db #0x00	; 0
	.db #0x00	; 0
	.db #0x00	; 0
	.db #0x00	; 0
	.db #0x00	; 0
	.db #0x00	; 0
	.db #0x00	; 0
	.db #0x00	; 0
	.db #0x00	; 0
	.db #0x00	; 0
	.db #0x00	; 0
	.db #0x00	; 0
	.db #0x00	; 0
	.db #0x00	; 0
	.db #0x00	; 0
	.db #0x00	; 0
	.db #0x00	; 0
	.db #0x00	; 0
	.db #0x00	; 0
	.db #0x00	; 0
	.db #0x00	; 0
	.db #0x00	; 0
	.db #0x00	; 0
	.db #0x00	; 0
	.db #0x00	; 0
	.db #0x00	; 0
	.db #0x00	; 0
	.db #0x00	; 0
	.db #0x00	; 0
	.db #0x00	; 0
	.db #0x00	; 0
	.db #0x00	; 0
	.db #0x00	; 0
	.db #0x00	; 0
	.db #0x00	; 0
	.db #0x00	; 0
	.db #0x00	; 0
	.db #0x00	; 0
	.db #0x00	; 0
	.db #0x00	; 0
	.db #0x00	; 0
	.db #0x00	; 0
	.db #0x00	; 0
	.db #0x00	; 0
	.db #0x00	; 0
	.db #0x00	; 0
	.db #0x00	; 0
	.db #0x00	; 0
	.db #0x00	; 0
	.db #0x00	; 0
	.db #0x00	; 0
	.db #0x00	; 0
	.db #0x00	; 0
	.db #0x00	; 0
	.db #0x00	; 0
	.db #0x00	; 0
	.db #0x00	; 0
	.db #0x00	; 0
	.db #0x00	; 0
	.db #0x00	; 0
	.db #0x00	; 0
	.db #0x00	; 0
	.db #0x00	; 0
	.db #0x00	; 0
	.db #0x00	; 0
	.db #0x00	; 0
	.db #0x00	; 0
	.db #0x00	; 0
	.db #0x00	; 0
	.db #0x00	; 0
	.db #0x00	; 0
	.db #0x00	; 0
	.db #0x00	; 0
	.db #0x00	; 0
	.db #0x00	; 0
	.db #0x00	; 0
	.db #0x00	; 0
	.db #0x00	; 0
	.db #0x00	; 0
	.db #0x00	; 0
	.db #0x00	; 0
	.db #0x00	; 0
	.db #0x00	; 0
	.db #0x00	; 0
	.db #0x00	; 0
	.db #0x00	; 0
	.db #0x00	; 0
	.db #0x00	; 0
	.db #0x00	; 0
	.db #0x00	; 0
	.db #0x00	; 0
	.db #0x00	; 0
	.db #0x00	; 0
	.db #0x00	; 0
	.db #0x00	; 0
	.db #0x00	; 0
	.db #0x00	; 0
	.db #0x00	; 0
	.db #0x00	; 0
	.db #0x00	; 0
	.db #0x00	; 0
	.db #0x00	; 0
	.db #0x00	; 0
	.db #0x00	; 0
	.db #0x00	; 0
	.db #0x00	; 0
	.db #0x00	; 0
	.db #0x00	; 0
	.db #0x00	; 0
	.db #0x00	; 0
	.db #0x00	; 0
	.db #0x00	; 0
	.db #0x00	; 0
	.db #0x00	; 0
	.db #0x00	; 0
	.db #0x00	; 0
	.db #0x00	; 0
	.db #0x00	; 0
	.db #0x00	; 0
	.db #0x00	; 0
	.db #0x00	; 0
	.db #0x00	; 0
	.db #0x00	; 0
	.db #0x00	; 0
	.db #0x00	; 0
	.db #0x00	; 0
	.db #0x00	; 0
	.db #0x00	; 0
	.db #0x00	; 0
	.db #0x00	; 0
	.db #0x00	; 0
	.db #0x00	; 0
	.db #0x00	; 0
	.db #0x00	; 0
	.db #0x00	; 0
	.db #0x00	; 0
	.db #0x00	; 0
	.db #0x00	; 0
	.db #0x00	; 0
	.db #0x00	; 0
	.db #0x00	; 0
	.db #0x00	; 0
	.db #0x00	; 0
	.db #0x00	; 0
	.db #0x00	; 0
	.db #0x00	; 0
	.db #0x00	; 0
	.db #0x00	; 0
	.db #0x00	; 0
	.db #0x00	; 0
	.db #0x00	; 0
	.db #0x00	; 0
	.db #0x00	; 0
	.db #0x00	; 0
	.db #0x00	; 0
	.db #0x00	; 0
	.db #0x00	; 0
	.db #0x00	; 0
	.db #0x00	; 0
	.db #0x00	; 0
	.db #0x00	; 0
	.db #0x00	; 0
	.db #0x00	; 0
	.db #0x00	; 0
	.db #0x00	; 0
	.db #0x00	; 0
	.db #0x00	; 0
	.db #0x00	; 0
	.db #0x00	; 0
	.db #0x00	; 0
	.db #0x00	; 0
	.db #0x00	; 0
	.db #0x00	; 0
	.db #0x00	; 0
	.db #0x00	; 0
	.db #0x00	; 0
	.db #0x00	; 0
	.db #0x00	; 0
	.db #0x00	; 0
	.db #0x00	; 0
	.db #0x00	; 0
	.db #0x00	; 0
	.db #0x00	; 0
	.db #0x00	; 0
	.db #0x00	; 0
	.db #0x00	; 0
	.db #0x00	; 0
	.db #0x00	; 0
	.db #0x00	; 0
	.db #0x00	; 0
	.db #0x00	; 0
	.db #0x00	; 0
	.db #0x00	; 0
	.db #0x00	; 0
	.db #0x00	; 0
	.db #0x00	; 0
	.db #0x00	; 0
	.db #0x00	; 0
	.db #0x00	; 0
	.db #0x00	; 0
	.db #0x00	; 0
	.db #0x00	; 0
	.db #0x00	; 0
	.db #0x00	; 0
	.db #0x00	; 0
	.db #0x00	; 0
	.db #0x00	; 0
	.db #0x00	; 0
	.db #0x00	; 0
	.db #0x00	; 0
	.db #0x00	; 0
	.db #0x00	; 0
	.db #0x00	; 0
	.db #0x00	; 0
	.db #0x00	; 0
	.db #0x00	; 0
	.db #0x00	; 0
	.db #0x00	; 0
	.db #0x00	; 0
	.db #0x00	; 0
	.db #0x00	; 0
	.db #0x00	; 0
	.db #0x00	; 0
	.db #0x00	; 0
	.db #0x00	; 0
	.db #0x00	; 0
	.db #0x00	; 0
	.db #0x00	; 0
	.db #0x00	; 0
	.db #0x00	; 0
	.db #0x00	; 0
	.db #0x00	; 0
	.db #0x00	; 0
	.db #0x00	; 0
	.db #0x00	; 0
	.db #0x00	; 0
	.db #0x00	; 0
	.db #0x00	; 0
	.db #0x00	; 0
	.db #0x00	; 0
	.db #0x00	; 0
	.db #0x00	; 0
	.db #0x00	; 0
	.db #0x00	; 0
	.db #0x00	; 0
	.db #0x00	; 0
	.db #0x00	; 0
	.db #0x00	; 0
	.db #0x00	; 0
	.db #0x00	; 0
	.db #0x00	; 0
	.db #0x00	; 0
	.db #0x00	; 0
	.db #0x00	; 0
	.db #0x00	; 0
	.db #0x00	; 0
	.db #0x00	; 0
	.db #0x00	; 0
	.db #0x00	; 0
	.db #0x00	; 0
	.db #0x00	; 0
	.db #0x00	; 0
	.db #0x00	; 0
	.db #0x00	; 0
	.db #0x00	; 0
	.db #0x00	; 0
	.db #0x00	; 0
	.db #0x00	; 0
	.db #0x00	; 0
	.db #0x00	; 0
	.db #0x00	; 0
	.db #0x00	; 0
	.db #0x00	; 0
	.db #0x00	; 0
	.db #0x00	; 0
	.db #0x00	; 0
	.db #0x00	; 0
	.db #0x00	; 0
	.db #0x00	; 0
	.db #0x00	; 0
	.db #0x00	; 0
	.db #0x00	; 0
	.db #0x00	; 0
	.db #0x00	; 0
	.db #0x00	; 0
	.db #0x00	; 0
	.db #0x00	; 0
	.db #0x00	; 0
	.db #0x00	; 0
	.db #0x00	; 0
	.db #0x00	; 0
	.db #0x00	; 0
	.db #0x00	; 0
	.db #0x00	; 0
	.db #0x00	; 0
	.db #0x00	; 0
	.db #0x00	; 0
	.db #0x00	; 0
	.db #0x00	; 0
	.db #0x00	; 0
	.db #0x00	; 0
	.db #0x00	; 0
	.db #0x00	; 0
	.db #0x00	; 0
	.db #0x00	; 0
	.db #0x00	; 0
	.db #0x00	; 0
	.db #0x00	; 0
	.db #0x00	; 0
	.db #0x00	; 0
	.db #0x00	; 0
	.db #0x00	; 0
	.db #0x00	; 0
	.db #0x00	; 0
	.db #0x00	; 0
	.db #0x00	; 0
	.db #0x00	; 0
	.db #0x00	; 0
	.db #0x00	; 0
	.db #0x00	; 0
	.db #0x00	; 0
	.db #0x00	; 0
	.db #0x00	; 0
	.db #0x00	; 0
	.db #0x00	; 0
	.db #0x00	; 0
	.db #0x00	; 0
	.db #0x00	; 0
	.db #0x00	; 0
	.db #0x00	; 0
	.db #0x00	; 0
	.db #0x00	; 0
	.db #0x00	; 0
	.db #0x00	; 0
	.db #0x00	; 0
	.db #0x00	; 0
	.db #0x00	; 0
	.db #0x00	; 0
	.db #0x00	; 0
	.db #0x00	; 0
	.db #0x00	; 0
	.db #0x00	; 0
	.db #0x00	; 0
	.db #0x00	; 0
	.db #0x00	; 0
	.db #0x00	; 0
	.db #0x00	; 0
	.db #0x00	; 0
	.db #0x00	; 0
	.db #0x00	; 0
	.db #0x00	; 0
	.db #0x00	; 0
	.db #0x00	; 0
	.db #0x00	; 0
	.db #0x00	; 0
	.db #0x00	; 0
	.db #0x00	; 0
	.db #0x00	; 0
	.db #0x00	; 0
	.db #0x00	; 0
	.db #0x00	; 0
	.db #0x00	; 0
	.db #0x00	; 0
	.db #0x00	; 0
	.db #0x00	; 0
	.db #0x00	; 0
	.db #0x00	; 0
	.db #0x00	; 0
	.db #0x00	; 0
	.db #0x00	; 0
	.db #0x00	; 0
	.db #0x00	; 0
	.db #0x00	; 0
	.db #0x00	; 0
	.db #0x00	; 0
	.db #0x00	; 0
	.db #0x00	; 0
	.db #0x00	; 0
	.db #0x00	; 0
	.db #0x00	; 0
	.db #0x00	; 0
	.db #0x00	; 0
	.db #0x00	; 0
	.db #0x00	; 0
	.db #0x00	; 0
	.db #0x00	; 0
	.db #0x00	; 0
	.db #0x00	; 0
	.db #0x00	; 0
	.db #0x00	; 0
	.db #0x00	; 0
	.db #0x00	; 0
	.db #0x00	; 0
	.db #0x00	; 0
	.db #0x00	; 0
	.db #0x00	; 0
	.db #0x00	; 0
	.db #0x00	; 0
	.db #0x00	; 0
	.db #0x00	; 0
	.db #0x00	; 0
	.db #0x00	; 0
	.db #0x00	; 0
	.db #0x00	; 0
	.db #0x00	; 0
	.db #0x00	; 0
	.db #0x00	; 0
	.db #0x00	; 0
	.db #0x00	; 0
	.db #0x00	; 0
	.db #0x00	; 0
	.db #0x00	; 0
	.db #0x00	; 0
	.db #0x00	; 0
	.db #0x00	; 0
	.db #0x00	; 0
	.db #0x00	; 0
	.db #0x00	; 0
	.db #0x00	; 0
	.db #0x00	; 0
	.db #0x00	; 0
	.db #0x00	; 0
	.db #0x00	; 0
	.db #0x00	; 0
	.db #0x00	; 0
	.db #0x00	; 0
	.db #0x00	; 0
	.db #0x00	; 0
	.db #0x00	; 0
	.db #0x00	; 0
	.db #0x00	; 0
	.db #0x00	; 0
	.db #0x00	; 0
	.db #0x00	; 0
	.db #0x00	; 0
	.db #0x00	; 0
	.db #0x00	; 0
	.db #0x00	; 0
	.db #0x00	; 0
	.db #0x00	; 0
	.db #0x00	; 0
	.db #0x00	; 0
	.db #0x00	; 0
	.db #0x00	; 0
	.db #0x00	; 0
	.db #0x00	; 0
	.db #0x00	; 0
	.db #0x00	; 0
	.db #0x00	; 0
	.db #0x00	; 0
	.db #0x00	; 0
	.db #0x00	; 0
	.db #0x00	; 0
	.db #0x00	; 0
	.db #0x00	; 0
	.db #0x00	; 0
	.db #0x00	; 0
	.db #0x00	; 0
	.db #0x00	; 0
	.db #0x00	; 0
	.db #0x00	; 0
	.db #0x00	; 0
	.db #0x00	; 0
	.db #0x00	; 0
	.db #0x00	; 0
	.db #0x00	; 0
	.db #0x00	; 0
	.db #0x00	; 0
	.db #0x00	; 0
	.db #0x00	; 0
	.db #0x00	; 0
	.db #0x00	; 0
	.db #0x00	; 0
	.db #0x00	; 0
	.db #0x00	; 0
	.db #0x00	; 0
	.db #0x00	; 0
	.db #0x00	; 0
	.db #0x00	; 0
	.db #0x00	; 0
	.db #0x00	; 0
	.db #0x00	; 0
	.db #0x00	; 0
	.db #0x00	; 0
	.db #0x00	; 0
	.db #0x00	; 0
	.db #0x00	; 0
	.db #0x00	; 0
	.db #0x00	; 0
	.db #0x00	; 0
	.db #0x00	; 0
	.db #0x00	; 0
	.db #0x00	; 0
	.db #0x00	; 0
	.db #0x00	; 0
	.db #0x00	; 0
	.db #0x00	; 0
	.db #0x00	; 0
	.db #0x00	; 0
	.db #0x00	; 0
	.db #0x00	; 0
	.db #0x00	; 0
	.db #0x00	; 0
	.db #0x00	; 0
	.db #0x00	; 0
	.db #0x7c	; 124
	.db #0x3c	; 60
	.db #0xfe	; 254
	.db #0x7e	; 126
	.db #0xee	; 238
	.db #0x66	; 102	'f'
	.db #0xee	; 238
	.db #0x66	; 102	'f'
	.db #0xee	; 238
	.db #0x66	; 102	'f'
	.db #0xee	; 238
	.db #0x66	; 102	'f'
	.db #0xfe	; 254
	.db #0x7e	; 126
	.db #0x7c	; 124
	.db #0x3c	; 60
	.db #0x38	; 56	'8'
	.db #0x18	; 24
	.db #0x78	; 120	'x'
	.db #0x38	; 56	'8'
	.db #0xf8	; 248
	.db #0x78	; 120	'x'
	.db #0x38	; 56	'8'
	.db #0x18	; 24
	.db #0x38	; 56	'8'
	.db #0x18	; 24
	.db #0x38	; 56	'8'
	.db #0x18	; 24
	.db #0xfe	; 254
	.db #0x7e	; 126
	.db #0xfe	; 254
	.db #0x7e	; 126
	.db #0x3c	; 60
	.db #0x1c	; 28
	.db #0x7e	; 126
	.db #0x3e	; 62
	.db #0xee	; 238
	.db #0x66	; 102	'f'
	.db #0x1e	; 30
	.db #0x0e	; 14
	.db #0x3c	; 60
	.db #0x1c	; 28
	.db #0x78	; 120	'x'
	.db #0x38	; 56	'8'
	.db #0xfe	; 254
	.db #0x7e	; 126
	.db #0x7c	; 124
	.db #0x3c	; 60
	.db #0x3c	; 60
	.db #0x1c	; 28
	.db #0x7e	; 126
	.db #0x3e	; 62
	.db #0xee	; 238
	.db #0x66	; 102	'f'
	.db #0x1e	; 30
	.db #0x0e	; 14
	.db #0x3c	; 60
	.db #0x1c	; 28
	.db #0x1e	; 30
	.db #0x0e	; 14
	.db #0xfe	; 254
	.db #0x7e	; 126
	.db #0x7c	; 124
	.db #0x3c	; 60
	.db #0x18	; 24
	.db #0x08	; 8
	.db #0x38	; 56	'8'
	.db #0x18	; 24
	.db #0x78	; 120	'x'
	.db #0x38	; 56	'8'
	.db #0xf8	; 248
	.db #0x58	; 88	'X'
	.db #0xfe	; 254
	.db #0x7e	; 126
	.db #0xfe	; 254
	.db #0x7e	; 126
	.db #0x38	; 56	'8'
	.db #0x18	; 24
	.db #0x38	; 56	'8'
	.db #0x18	; 24
	.db #0x7c	; 124
	.db #0x3c	; 60
	.db #0xfe	; 254
	.db #0x7e	; 126
	.db #0xe0	; 224
	.db #0x60	; 96
	.db #0xfc	; 252
	.db #0x7c	; 124
	.db #0xfe	; 254
	.db #0x7e	; 126
	.db #0x0e	; 14
	.db #0x06	; 6
	.db #0xfe	; 254
	.db #0x7e	; 126
	.db #0x7c	; 124
	.db #0x3c	; 60
	.db #0x7c	; 124
	.db #0x3c	; 60
	.db #0xfe	; 254
	.db #0x7e	; 126
	.db #0xe0	; 224
	.db #0x60	; 96
	.db #0xfc	; 252
	.db #0x7c	; 124
	.db #0xfe	; 254
	.db #0x6e	; 110	'n'
	.db #0xee	; 238
	.db #0x66	; 102	'f'
	.db #0x7e	; 126
	.db #0x3e	; 62
	.db #0x3c	; 60
	.db #0x1c	; 28
	.db #0x3e	; 62
	.db #0x1e	; 30
	.db #0x7f	; 127
	.db #0x3f	; 63
	.db #0xee	; 238
	.db #0x66	; 102	'f'
	.db #0x1c	; 28
	.db #0x0c	; 12
	.db #0x38	; 56	'8'
	.db #0x18	; 24
	.db #0x38	; 56	'8'
	.db #0x18	; 24
	.db #0x38	; 56	'8'
	.db #0x18	; 24
	.db #0x38	; 56	'8'
	.db #0x18	; 24
	.db #0x7c	; 124
	.db #0x3c	; 60
	.db #0xfe	; 254
	.db #0x7e	; 126
	.db #0xee	; 238
	.db #0x66	; 102	'f'
	.db #0x7c	; 124
	.db #0x3c	; 60
	.db #0x38	; 56	'8'
	.db #0x18	; 24
	.db #0x6c	; 108	'l'
	.db #0x24	; 36
	.db #0xfe	; 254
	.db #0x7e	; 126
	.db #0x7c	; 124
	.db #0x3c	; 60
	.db #0x79	; 121	'y'
	.db #0x38	; 56	'8'
	.db #0xfc	; 252
	.db #0x7c	; 124
	.db #0xee	; 238
	.db #0x66	; 102	'f'
	.db #0xfe	; 254
	.db #0x76	; 118	'v'
	.db #0x7e	; 126
	.db #0x3e	; 62
	.db #0x0e	; 14
	.db #0x06	; 6
	.db #0xfe	; 254
	.db #0x7e	; 126
	.db #0x7c	; 124
	.db #0x3c	; 60
	.db #0x00	; 0
	.db #0x00	; 0
	.db #0x00	; 0
	.db #0x00	; 0
	.db #0x00	; 0
	.db #0x00	; 0
	.db #0x00	; 0
	.db #0x00	; 0
	.db #0x00	; 0
	.db #0x00	; 0
	.db #0x00	; 0
	.db #0x00	; 0
	.db #0x00	; 0
	.db #0x00	; 0
	.db #0x00	; 0
	.db #0x00	; 0
	.db #0x00	; 0
	.db #0x00	; 0
	.db #0x00	; 0
	.db #0x00	; 0
	.db #0x00	; 0
	.db #0x00	; 0
	.db #0x00	; 0
	.db #0x00	; 0
	.db #0x00	; 0
	.db #0x00	; 0
	.db #0x00	; 0
	.db #0x00	; 0
	.db #0x00	; 0
	.db #0x00	; 0
	.db #0x00	; 0
	.db #0x00	; 0
	.db #0x00	; 0
	.db #0x00	; 0
	.db #0x00	; 0
	.db #0x00	; 0
	.db #0x00	; 0
	.db #0x00	; 0
	.db #0x00	; 0
	.db #0x00	; 0
	.db #0x00	; 0
	.db #0x00	; 0
	.db #0x00	; 0
	.db #0x00	; 0
	.db #0x00	; 0
	.db #0x00	; 0
	.db #0x00	; 0
	.db #0x00	; 0
	.db #0x00	; 0
	.db #0x00	; 0
	.db #0x00	; 0
	.db #0x00	; 0
	.db #0x00	; 0
	.db #0x00	; 0
	.db #0x00	; 0
	.db #0x00	; 0
	.db #0x00	; 0
	.db #0x00	; 0
	.db #0x00	; 0
	.db #0x00	; 0
	.db #0x00	; 0
	.db #0x00	; 0
	.db #0x00	; 0
	.db #0x00	; 0
	.db #0x00	; 0
	.db #0x00	; 0
	.db #0x00	; 0
	.db #0x00	; 0
	.db #0x00	; 0
	.db #0x00	; 0
	.db #0x00	; 0
	.db #0x00	; 0
	.db #0x00	; 0
	.db #0x00	; 0
	.db #0x00	; 0
	.db #0x00	; 0
	.db #0x00	; 0
	.db #0x00	; 0
	.db #0x00	; 0
	.db #0x00	; 0
	.db #0x00	; 0
	.db #0x00	; 0
	.db #0x00	; 0
	.db #0x00	; 0
	.db #0x00	; 0
	.db #0x00	; 0
	.db #0x00	; 0
	.db #0x00	; 0
	.db #0x00	; 0
	.db #0x00	; 0
	.db #0x00	; 0
	.db #0x00	; 0
	.db #0x00	; 0
	.db #0x00	; 0
	.db #0x00	; 0
	.db #0x00	; 0
	.db #0x00	; 0
	.db #0x00	; 0
	.db #0x00	; 0
	.db #0x00	; 0
	.db #0x00	; 0
	.db #0x00	; 0
	.db #0x00	; 0
	.db #0x00	; 0
	.db #0x00	; 0
	.db #0x00	; 0
	.db #0x00	; 0
	.db #0x00	; 0
	.db #0x00	; 0
	.db #0x00	; 0
	.db #0x00	; 0
	.db #0x00	; 0
	.db #0x00	; 0
	.db #0x00	; 0
	.db #0x00	; 0
	.db #0x00	; 0
	.db #0x00	; 0
	.db #0x00	; 0
	.db #0x00	; 0
	.db #0x00	; 0
	.db #0x00	; 0
	.db #0x00	; 0
	.db #0x00	; 0
	.db #0x00	; 0
	.db #0x00	; 0
	.db #0x00	; 0
	.db #0x00	; 0
	.db #0x00	; 0
	.db #0x00	; 0
	.db #0x00	; 0
	.db #0x00	; 0
	.db #0x00	; 0
	.db #0x00	; 0
	.db #0x00	; 0
	.db #0x00	; 0
	.db #0x00	; 0
	.db #0x00	; 0
	.db #0x00	; 0
	.db #0x00	; 0
	.db #0x00	; 0
	.db #0x00	; 0
	.db #0x00	; 0
	.db #0x00	; 0
	.db #0x00	; 0
	.db #0x00	; 0
	.db #0x00	; 0
	.db #0x00	; 0
	.db #0x00	; 0
	.db #0x00	; 0
	.db #0x00	; 0
	.db #0x00	; 0
	.db #0x00	; 0
	.db #0x00	; 0
	.db #0x00	; 0
	.db #0x00	; 0
	.db #0x00	; 0
	.db #0x00	; 0
	.db #0x00	; 0
	.db #0x00	; 0
	.db #0x00	; 0
	.db #0x00	; 0
	.db #0x00	; 0
	.db #0x00	; 0
	.db #0x00	; 0
	.db #0x00	; 0
	.db #0x00	; 0
	.db #0x00	; 0
	.db #0x00	; 0
	.db #0x00	; 0
	.db #0x00	; 0
	.db #0x00	; 0
	.db #0x00	; 0
	.db #0x00	; 0
	.db #0x00	; 0
	.db #0x00	; 0
	.db #0x00	; 0
	.db #0x00	; 0
	.db #0x00	; 0
	.db #0x00	; 0
	.db #0x00	; 0
	.db #0x00	; 0
	.db #0x00	; 0
	.db #0x00	; 0
	.db #0x00	; 0
	.db #0x00	; 0
	.db #0x00	; 0
	.db #0x00	; 0
	.db #0x00	; 0
	.db #0x00	; 0
	.db #0x00	; 0
	.db #0x00	; 0
	.db #0x00	; 0
	.db #0x00	; 0
	.db #0x00	; 0
	.db #0x00	; 0
	.db #0x00	; 0
	.db #0x00	; 0
	.db #0x00	; 0
	.db #0x00	; 0
	.db #0x00	; 0
	.db #0x00	; 0
	.db #0x00	; 0
	.db #0x00	; 0
	.db #0x00	; 0
	.db #0x00	; 0
	.db #0x00	; 0
	.db #0x00	; 0
	.db #0x00	; 0
	.db #0x00	; 0
	.db #0x00	; 0
	.db #0x00	; 0
	.db #0x00	; 0
	.db #0x00	; 0
	.db #0x00	; 0
	.db #0x00	; 0
	.db #0x00	; 0
	.db #0x00	; 0
	.db #0x00	; 0
	.db #0x00	; 0
	.db #0x00	; 0
	.db #0x00	; 0
	.db #0x00	; 0
	.db #0x00	; 0
	.db #0x00	; 0
	.db #0x00	; 0
	.db #0x00	; 0
	.db #0x00	; 0
	.db #0x00	; 0
	.db #0x00	; 0
	.db #0x00	; 0
	.db #0x00	; 0
	.db #0x00	; 0
	.db #0x00	; 0
	.db #0x00	; 0
	.db #0x00	; 0
	.db #0x00	; 0
	.db #0x00	; 0
	.db #0x00	; 0
	.db #0x00	; 0
	.db #0x00	; 0
	.db #0x00	; 0
	.db #0x00	; 0
	.db #0x00	; 0
	.db #0x00	; 0
	.db #0x00	; 0
	.db #0x00	; 0
	.db #0x00	; 0
	.db #0x00	; 0
	.db #0x00	; 0
	.db #0x00	; 0
	.db #0x00	; 0
	.db #0x00	; 0
	.db #0x00	; 0
	.db #0x00	; 0
	.db #0x00	; 0
	.db #0x00	; 0
	.db #0x00	; 0
	.db #0x00	; 0
	.db #0x00	; 0
	.db #0x00	; 0
	.db #0x00	; 0
	.db #0x00	; 0
	.db #0x00	; 0
	.db #0x00	; 0
	.db #0x00	; 0
	.db #0x00	; 0
	.db #0x00	; 0
	.db #0x00	; 0
	.db #0x00	; 0
	.db #0x00	; 0
	.db #0x00	; 0
	.db #0x00	; 0
	.db #0x00	; 0
	.db #0x00	; 0
	.db #0x00	; 0
	.db #0x00	; 0
	.db #0x00	; 0
	.db #0x00	; 0
	.db #0x00	; 0
	.db #0x00	; 0
	.db #0x00	; 0
	.db #0x00	; 0
	.db #0x00	; 0
	.db #0x00	; 0
	.db #0x00	; 0
	.db #0x00	; 0
	.db #0x00	; 0
	.db #0x00	; 0
	.area _CABS (ABS)
