;--------------------------------------------------------
; File Created by SDCC : free open source ISO C Compiler 
; Version 4.2.2 #13350 (MINGW64)
;--------------------------------------------------------
	.module main
	.optsdcc -msm83
	
;--------------------------------------------------------
; Public variables in this module
;--------------------------------------------------------
	.globl _main
	.globl _startup
	.globl _game
	.globl _scoreInit
	.globl _scoreUpdate
	.globl _scoreDisplay
	.globl _level
	.globl _frameController
	.globl _squarePatternR
	.globl _squarePattern
	.globl _enemyUpdate
	.globl _enemyInit
	.globl _goToNode
	.globl _deactivateEnemy
	.globl _activateEnemy
	.globl _moveEnemy
	.globl _playerUpdate
	.globl _bulletUpdate
	.globl _playerMovement
	.globl _playerInit
	.globl _mainMenu
	.globl _set_sprite_data
	.globl _set_bkg_tiles
	.globl _set_bkg_data
	.globl _wait_vbl_done
	.globl _joypad
	.globl _delay
	.globl _titleSprites
	.globl _titleScreen
	.globl _state
	.globl _score10000
	.globl _score1000
	.globl _score100
	.globl _score10
	.globl _score1
	.globl _frame
	.globl _seconds
	.globl _skulls
	.globl _bullets
	.globl _player
	.globl _reload
	.globl _currentBullet
	.globl _sprites
;--------------------------------------------------------
; special function registers
;--------------------------------------------------------
;--------------------------------------------------------
; ram data
;--------------------------------------------------------
	.area _DATA
_currentBullet::
	.ds 1
_reload::
	.ds 1
_player::
	.ds 4
_bullets::
	.ds 15
_skulls::
	.ds 300
_seconds::
	.ds 1
_frame::
	.ds 1
_score1::
	.ds 1
_score10::
	.ds 1
_score100::
	.ds 1
_score1000::
	.ds 1
_score10000::
	.ds 1
_state::
	.ds 1
;--------------------------------------------------------
; ram data
;--------------------------------------------------------
	.area _INITIALIZED
_titleScreen::
	.ds 360
_titleSprites::
	.ds 2048
;--------------------------------------------------------
; absolute external ram data
;--------------------------------------------------------
	.area _DABS (ABS)
;--------------------------------------------------------
; global & static initialisations
;--------------------------------------------------------
	.area _HOME
	.area _GSINIT
	.area _GSFINAL
	.area _GSINIT
;--------------------------------------------------------
; Home
;--------------------------------------------------------
	.area _HOME
	.area _HOME
;--------------------------------------------------------
; code
;--------------------------------------------------------
	.area _CODE
;src/title.c:6: uint8_t mainMenu() {
;	---------------------------------
; Function mainMenu
; ---------------------------------
_mainMenu::
;src/title.c:10: selection = 1;
	ld	c, #0x01
;src/title.c:12: set_bkg_tiles   ( 0,   0, 20, 18 , titleScreen);
	ld	de, #_titleScreen
	push	de
	ld	hl, #0x1214
	push	hl
	xor	a, a
	rrca
	push	af
	call	_set_bkg_tiles
	add	sp, #6
;src/title.c:13: set_bkg_data    ( 0, 127, titleSprites);
	ld	de, #_titleSprites
	push	de
	ld	hl, #0x7f00
	push	hl
	call	_set_bkg_data
	add	sp, #4
;src/title.c:14: set_sprite_data ( 0, 2,sprites);
	ld	de, #_sprites
	push	de
	ld	a, #0x02
	push	af
	inc	sp
	xor	a, a
	push	af
	inc	sp
	call	_set_sprite_data
	add	sp, #4
;c:/gbdk/include/gb/gb.h:1602: shadow_OAM[nb].tile=tile;
	ld	hl, #(_shadow_OAM + 2)
	ld	(hl), #0x01
;src/title.c:17: while(1) {
00118$:
;src/title.c:18: if (joypad() & J_DOWN)  { selection ++; }
	call	_joypad
	bit	3, a
	jr	Z, 00102$
	inc	c
00102$:
;src/title.c:19: if (joypad() & J_UP)    { selection --; }
	call	_joypad
	bit	2, a
	jr	Z, 00104$
	dec	c
00104$:
;src/title.c:20: if (selection == 0)     { selection = 1;}
	ld	a, c
	or	a, a
	jr	NZ, 00106$
	ld	c, #0x01
00106$:
;src/title.c:21: if (selection == 4)     { selection = 3;}
	ld	a, c
	sub	a, #0x04
	jr	NZ, 00108$
	ld	c, #0x03
00108$:
;src/title.c:24: if (selection == 1) { 
	ld	a, c
	dec	a
	jr	NZ, 00112$
;c:/gbdk/include/gb/gb.h:1675: OAM_item_t * itm = &shadow_OAM[nb];
;c:/gbdk/include/gb/gb.h:1676: itm->y=y, itm->x=x;
	ld	hl, #_shadow_OAM
	ld	(hl), #0x70
	ld	hl, #(_shadow_OAM + 1)
	ld	(hl), #0x64
;src/title.c:26: if (joypad() & J_A) {
	call	_joypad
	bit	4, a
	jr	Z, 00112$
;src/title.c:27: return 3;
	ld	a, #0x03
	ret
;src/title.c:28: break;
00112$:
;src/title.c:33: if (selection == 2) { 
	ld	a, c
	sub	a, #0x02
	jr	NZ, 00114$
;c:/gbdk/include/gb/gb.h:1675: OAM_item_t * itm = &shadow_OAM[nb];
	ld	hl, #_shadow_OAM
;c:/gbdk/include/gb/gb.h:1676: itm->y=y, itm->x=x;
	ld	a, #0x80
	ld	(hl+), a
	ld	(hl), #0x64
;src/title.c:34: move_sprite (0, 100, 128);
00114$:
;src/title.c:38: if (selection == 3) { 
	ld	a, c
	sub	a, #0x03
	jr	NZ, 00116$
;c:/gbdk/include/gb/gb.h:1675: OAM_item_t * itm = &shadow_OAM[nb];
	ld	hl, #_shadow_OAM
;c:/gbdk/include/gb/gb.h:1676: itm->y=y, itm->x=x;
	ld	(hl), #0x90
	inc	hl
	ld	(hl), #0x64
;src/title.c:39: move_sprite (0, 100, 144);
00116$:
;src/title.c:42: delay(200);
	push	bc
	ld	de, #0x00c8
	call	_delay
	pop	bc
;src/title.c:44: }
	jr	00118$
_sprites:
	.db #0x00	; 0
	.db #0x00	; 0
	.db #0x00	; 0
	.db #0x00	; 0
	.db #0x00	; 0
	.db #0x00	; 0
	.db #0x00	; 0
	.db #0x00	; 0
	.db #0x00	; 0
	.db #0x00	; 0
	.db #0x00	; 0
	.db #0x00	; 0
	.db #0x00	; 0
	.db #0x00	; 0
	.db #0x00	; 0
	.db #0x00	; 0
	.db #0x0e	; 14
	.db #0x04	; 4
	.db #0x3e	; 62
	.db #0x0c	; 12
	.db #0x7f	; 127
	.db #0x3e	; 62
	.db #0x72	; 114	'r'
	.db #0x1c	; 28
	.db #0xff	; 255
	.db #0x7c	; 124
	.db #0x7c	; 124
	.db #0xff	; 255
	.db #0xff	; 255
	.db #0x38	; 56	'8'
	.db #0x38	; 56	'8'
	.db #0x00	; 0
	.db #0x00	; 0
	.db #0x00	; 0
	.db #0x00	; 0
	.db #0x00	; 0
	.db #0x00	; 0
	.db #0x00	; 0
	.db #0x0a	; 10
	.db #0x04	; 4
	.db #0xff	; 255
	.db #0x02	; 2
	.db #0x0a	; 10
	.db #0x04	; 4
	.db #0x00	; 0
	.db #0x00	; 0
	.db #0x00	; 0
	.db #0x00	; 0
	.db #0x3c	; 60
	.db #0x00	; 0
	.db #0x7e	; 126
	.db #0x3c	; 60
	.db #0xc3	; 195
	.db #0x7e	; 126
	.db #0xeb	; 235
	.db #0x7e	; 126
	.db #0xc3	; 195
	.db #0x7e	; 126
	.db #0xc6	; 198
	.db #0x7c	; 124
	.db #0x7c	; 124
	.db #0x38	; 56	'8'
	.db #0x38	; 56	'8'
	.db #0x00	; 0
	.db #0x0f	; 15
	.db #0x00	; 0
	.db #0x1f	; 31
	.db #0x0f	; 15
	.db #0x30	; 48	'0'
	.db #0x1f	; 31
	.db #0x60	; 96
	.db #0x3f	; 63
	.db #0xc0	; 192
	.db #0x7f	; 127
	.db #0xc0	; 192
	.db #0x7f	; 127
	.db #0xc0	; 192
	.db #0x7f	; 127
	.db #0xc1	; 193
	.db #0x7f	; 127
	.db #0x77	; 119	'w'
	.db #0x3e	; 62
	.db #0x63	; 99	'c'
	.db #0x3f	; 63
	.db #0xd0	; 208
	.db #0x7f	; 127
	.db #0xd0	; 208
	.db #0x7f	; 127
	.db #0x63	; 99	'c'
	.db #0x3f	; 63
	.db #0x61	; 97	'a'
	.db #0x3f	; 63
	.db #0x3f	; 63
	.db #0x1f	; 31
	.db #0x1f	; 31
	.db #0x00	; 0
	.db #0xf0	; 240
	.db #0x00	; 0
	.db #0xf8	; 248
	.db #0xf0	; 240
	.db #0x0c	; 12
	.db #0xf8	; 248
	.db #0x0e	; 14
	.db #0xfc	; 252
	.db #0x1f	; 31
	.db #0xfe	; 254
	.db #0x1f	; 31
	.db #0xfe	; 254
	.db #0x3f	; 63
	.db #0xfe	; 254
	.db #0x9f	; 159
	.db #0xfe	; 254
	.db #0x8f	; 143
	.db #0xfe	; 254
	.db #0x0e	; 14
	.db #0xfc	; 252
	.db #0x0c	; 12
	.db #0xf8	; 248
	.db #0x18	; 24
	.db #0xf0	; 240
	.db #0xf0	; 240
	.db #0xe0	; 224
	.db #0xe0	; 224
	.db #0x00	; 0
	.db #0x80	; 128
	.db #0x00	; 0
	.db #0x00	; 0
	.db #0x00	; 0
	.db #0x00	; 0
	.db #0x00	; 0
	.db #0x00	; 0
	.db #0x00	; 0
	.db #0x00	; 0
	.db #0x00	; 0
	.db #0x00	; 0
	.db #0x00	; 0
	.db #0x00	; 0
	.db #0x00	; 0
	.db #0x00	; 0
	.db #0x00	; 0
	.db #0x00	; 0
	.db #0x00	; 0
	.db #0x00	; 0
	.db #0x00	; 0
	.db #0x00	; 0
	.db #0x00	; 0
	.db #0x00	; 0
	.db #0x00	; 0
	.db #0x00	; 0
	.db #0x00	; 0
	.db #0x00	; 0
	.db #0x00	; 0
	.db #0x00	; 0
	.db #0x00	; 0
	.db #0x00	; 0
	.db #0x00	; 0
	.db #0x00	; 0
	.db #0x00	; 0
	.db #0x00	; 0
	.db #0x00	; 0
	.db #0x00	; 0
	.db #0x00	; 0
	.db #0x00	; 0
	.db #0x00	; 0
	.db #0x00	; 0
	.db #0x00	; 0
	.db #0x00	; 0
	.db #0x00	; 0
	.db #0x00	; 0
	.db #0x00	; 0
	.db #0x00	; 0
	.db #0x00	; 0
	.db #0x00	; 0
	.db #0x00	; 0
	.db #0x00	; 0
	.db #0x00	; 0
	.db #0x00	; 0
	.db #0x00	; 0
	.db #0x00	; 0
	.db #0x00	; 0
	.db #0x00	; 0
	.db #0x00	; 0
	.db #0x00	; 0
	.db #0x00	; 0
	.db #0x00	; 0
	.db #0x00	; 0
	.db #0x00	; 0
	.db #0x00	; 0
	.db #0x00	; 0
	.db #0x00	; 0
	.db #0x00	; 0
	.db #0x00	; 0
	.db #0x00	; 0
	.db #0x00	; 0
	.db #0x00	; 0
	.db #0x00	; 0
	.db #0x00	; 0
	.db #0x00	; 0
	.db #0x00	; 0
	.db #0x00	; 0
	.db #0x00	; 0
	.db #0x00	; 0
	.db #0x00	; 0
	.db #0x00	; 0
	.db #0x00	; 0
	.db #0x00	; 0
	.db #0x00	; 0
	.db #0x00	; 0
	.db #0x00	; 0
	.db #0x00	; 0
	.db #0x00	; 0
	.db #0x00	; 0
	.db #0x00	; 0
	.db #0x00	; 0
	.db #0x00	; 0
	.db #0x00	; 0
	.db #0x00	; 0
	.db #0x00	; 0
	.db #0x00	; 0
	.db #0x00	; 0
	.db #0x00	; 0
	.db #0x00	; 0
	.db #0x00	; 0
	.db #0x00	; 0
	.db #0x00	; 0
	.db #0x00	; 0
	.db #0x00	; 0
	.db #0x00	; 0
	.db #0x00	; 0
	.db #0x00	; 0
	.db #0x00	; 0
	.db #0x00	; 0
	.db #0x00	; 0
	.db #0x00	; 0
	.db #0x00	; 0
	.db #0x00	; 0
	.db #0x00	; 0
	.db #0x00	; 0
	.db #0x00	; 0
	.db #0x00	; 0
	.db #0x00	; 0
	.db #0x00	; 0
	.db #0x00	; 0
	.db #0x00	; 0
	.db #0x00	; 0
	.db #0x00	; 0
	.db #0x00	; 0
	.db #0x00	; 0
	.db #0x00	; 0
	.db #0x00	; 0
	.db #0x00	; 0
	.db #0x00	; 0
	.db #0x00	; 0
	.db #0x00	; 0
	.db #0x00	; 0
	.db #0x00	; 0
	.db #0x00	; 0
	.db #0x00	; 0
	.db #0x00	; 0
	.db #0x00	; 0
	.db #0x00	; 0
	.db #0x00	; 0
	.db #0x00	; 0
	.db #0x00	; 0
	.db #0x00	; 0
	.db #0x00	; 0
	.db #0x00	; 0
	.db #0x00	; 0
	.db #0x00	; 0
	.db #0x00	; 0
	.db #0x00	; 0
	.db #0x00	; 0
	.db #0x00	; 0
	.db #0x00	; 0
	.db #0x00	; 0
	.db #0x00	; 0
	.db #0x00	; 0
	.db #0x00	; 0
	.db #0x00	; 0
	.db #0x00	; 0
	.db #0x00	; 0
	.db #0x00	; 0
	.db #0x00	; 0
	.db #0x00	; 0
	.db #0x00	; 0
	.db #0x00	; 0
	.db #0x00	; 0
	.db #0x00	; 0
	.db #0x00	; 0
	.db #0x00	; 0
	.db #0x00	; 0
	.db #0x00	; 0
	.db #0x00	; 0
	.db #0x00	; 0
	.db #0x00	; 0
	.db #0x00	; 0
	.db #0x00	; 0
	.db #0x00	; 0
	.db #0x00	; 0
	.db #0x00	; 0
	.db #0x00	; 0
	.db #0x00	; 0
	.db #0x00	; 0
	.db #0x00	; 0
	.db #0x00	; 0
	.db #0x00	; 0
	.db #0x00	; 0
	.db #0x00	; 0
	.db #0x00	; 0
	.db #0x00	; 0
	.db #0x00	; 0
	.db #0x00	; 0
	.db #0x00	; 0
	.db #0x00	; 0
	.db #0x00	; 0
	.db #0x00	; 0
	.db #0x00	; 0
	.db #0x00	; 0
	.db #0x00	; 0
	.db #0x00	; 0
	.db #0x00	; 0
	.db #0x00	; 0
	.db #0x00	; 0
	.db #0x00	; 0
	.db #0x00	; 0
	.db #0x00	; 0
	.db #0x00	; 0
	.db #0x00	; 0
	.db #0x00	; 0
	.db #0x00	; 0
	.db #0x00	; 0
	.db #0x00	; 0
	.db #0x00	; 0
	.db #0x00	; 0
	.db #0x00	; 0
	.db #0x00	; 0
	.db #0x00	; 0
	.db #0x00	; 0
	.db #0x00	; 0
	.db #0x00	; 0
	.db #0x00	; 0
	.db #0x00	; 0
	.db #0x00	; 0
	.db #0x00	; 0
	.db #0x00	; 0
	.db #0x00	; 0
	.db #0x00	; 0
	.db #0x00	; 0
	.db #0x00	; 0
	.db #0x00	; 0
	.db #0x00	; 0
	.db #0x00	; 0
	.db #0x00	; 0
	.db #0x00	; 0
	.db #0x00	; 0
	.db #0x00	; 0
	.db #0x00	; 0
	.db #0x00	; 0
	.db #0x00	; 0
	.db #0x00	; 0
	.db #0x00	; 0
	.db #0x00	; 0
	.db #0x00	; 0
	.db #0x00	; 0
	.db #0x00	; 0
	.db #0x00	; 0
	.db #0x00	; 0
	.db #0x00	; 0
	.db #0x00	; 0
	.db #0x00	; 0
	.db #0x00	; 0
	.db #0x00	; 0
	.db #0x00	; 0
	.db #0x00	; 0
	.db #0x00	; 0
	.db #0x00	; 0
	.db #0x00	; 0
	.db #0x00	; 0
	.db #0x00	; 0
	.db #0x00	; 0
	.db #0x00	; 0
	.db #0x00	; 0
	.db #0x00	; 0
	.db #0x00	; 0
	.db #0x00	; 0
	.db #0x00	; 0
	.db #0x00	; 0
	.db #0x00	; 0
	.db #0x00	; 0
	.db #0x00	; 0
	.db #0x00	; 0
	.db #0x00	; 0
	.db #0x00	; 0
	.db #0x00	; 0
	.db #0x00	; 0
	.db #0x00	; 0
	.db #0x00	; 0
	.db #0x00	; 0
	.db #0x00	; 0
	.db #0x00	; 0
	.db #0x00	; 0
	.db #0x00	; 0
	.db #0x00	; 0
	.db #0x00	; 0
	.db #0x00	; 0
	.db #0x00	; 0
	.db #0x00	; 0
	.db #0x00	; 0
	.db #0x00	; 0
	.db #0x00	; 0
	.db #0x00	; 0
	.db #0x00	; 0
	.db #0x00	; 0
	.db #0x00	; 0
	.db #0x00	; 0
	.db #0x00	; 0
	.db #0x00	; 0
	.db #0x00	; 0
	.db #0x00	; 0
	.db #0x00	; 0
	.db #0x00	; 0
	.db #0x00	; 0
	.db #0x00	; 0
	.db #0x00	; 0
	.db #0x00	; 0
	.db #0x00	; 0
	.db #0x00	; 0
	.db #0x00	; 0
	.db #0x00	; 0
	.db #0x00	; 0
	.db #0x00	; 0
	.db #0x00	; 0
	.db #0x00	; 0
	.db #0x00	; 0
	.db #0x00	; 0
	.db #0x00	; 0
	.db #0x00	; 0
	.db #0x00	; 0
	.db #0x00	; 0
	.db #0x00	; 0
	.db #0x00	; 0
	.db #0x00	; 0
	.db #0x00	; 0
	.db #0x00	; 0
	.db #0x00	; 0
	.db #0x00	; 0
	.db #0x00	; 0
	.db #0x00	; 0
	.db #0x00	; 0
	.db #0x00	; 0
	.db #0x00	; 0
	.db #0x00	; 0
	.db #0x00	; 0
	.db #0x00	; 0
	.db #0x00	; 0
	.db #0x00	; 0
	.db #0x00	; 0
	.db #0x00	; 0
	.db #0x00	; 0
	.db #0x00	; 0
	.db #0x00	; 0
	.db #0x00	; 0
	.db #0x00	; 0
	.db #0x00	; 0
	.db #0x00	; 0
	.db #0x00	; 0
	.db #0x00	; 0
	.db #0x00	; 0
	.db #0x00	; 0
	.db #0x00	; 0
	.db #0x00	; 0
	.db #0x00	; 0
	.db #0x00	; 0
	.db #0x00	; 0
	.db #0x00	; 0
	.db #0x00	; 0
	.db #0x00	; 0
	.db #0x00	; 0
	.db #0x00	; 0
	.db #0x00	; 0
	.db #0x00	; 0
	.db #0x00	; 0
	.db #0x00	; 0
	.db #0x00	; 0
	.db #0x00	; 0
	.db #0x00	; 0
	.db #0x00	; 0
	.db #0x00	; 0
	.db #0x00	; 0
	.db #0x00	; 0
	.db #0x00	; 0
	.db #0x00	; 0
	.db #0x00	; 0
	.db #0x00	; 0
	.db #0x00	; 0
	.db #0x00	; 0
	.db #0x00	; 0
	.db #0x00	; 0
	.db #0x00	; 0
	.db #0x00	; 0
	.db #0x00	; 0
	.db #0x00	; 0
	.db #0x00	; 0
	.db #0x00	; 0
	.db #0x00	; 0
	.db #0x00	; 0
	.db #0x00	; 0
	.db #0x00	; 0
	.db #0x00	; 0
	.db #0x00	; 0
	.db #0x00	; 0
	.db #0x00	; 0
	.db #0x00	; 0
	.db #0x00	; 0
	.db #0x00	; 0
	.db #0x00	; 0
	.db #0x00	; 0
	.db #0x00	; 0
	.db #0x00	; 0
	.db #0x00	; 0
	.db #0x00	; 0
	.db #0x00	; 0
	.db #0x00	; 0
	.db #0x00	; 0
	.db #0x00	; 0
	.db #0x00	; 0
	.db #0x00	; 0
	.db #0x00	; 0
	.db #0x00	; 0
	.db #0x00	; 0
	.db #0x00	; 0
	.db #0x00	; 0
	.db #0x00	; 0
	.db #0x00	; 0
	.db #0x00	; 0
	.db #0x00	; 0
	.db #0x00	; 0
	.db #0x00	; 0
	.db #0x00	; 0
	.db #0x00	; 0
	.db #0x00	; 0
	.db #0x00	; 0
	.db #0x00	; 0
	.db #0x00	; 0
	.db #0x00	; 0
	.db #0x00	; 0
	.db #0x00	; 0
	.db #0x00	; 0
	.db #0x00	; 0
	.db #0x00	; 0
	.db #0x00	; 0
	.db #0x00	; 0
	.db #0x00	; 0
	.db #0x00	; 0
	.db #0x00	; 0
	.db #0x00	; 0
	.db #0x00	; 0
	.db #0x00	; 0
	.db #0x00	; 0
	.db #0x00	; 0
	.db #0x00	; 0
	.db #0x00	; 0
	.db #0x00	; 0
	.db #0x00	; 0
	.db #0x00	; 0
	.db #0x00	; 0
	.db #0x00	; 0
	.db #0x00	; 0
	.db #0x00	; 0
	.db #0x00	; 0
	.db #0x00	; 0
	.db #0x00	; 0
	.db #0x00	; 0
	.db #0x00	; 0
	.db #0x00	; 0
	.db #0x00	; 0
	.db #0x00	; 0
	.db #0x00	; 0
	.db #0x00	; 0
	.db #0x00	; 0
	.db #0x00	; 0
	.db #0x00	; 0
	.db #0x00	; 0
	.db #0x00	; 0
	.db #0x00	; 0
	.db #0x00	; 0
	.db #0x00	; 0
	.db #0x00	; 0
	.db #0x00	; 0
	.db #0x00	; 0
	.db #0x00	; 0
	.db #0x00	; 0
	.db #0x00	; 0
	.db #0x00	; 0
	.db #0x00	; 0
	.db #0x00	; 0
	.db #0x00	; 0
	.db #0x00	; 0
	.db #0x00	; 0
	.db #0x00	; 0
	.db #0x00	; 0
	.db #0x00	; 0
	.db #0x00	; 0
	.db #0x00	; 0
	.db #0x00	; 0
	.db #0x00	; 0
	.db #0x00	; 0
	.db #0x00	; 0
	.db #0x00	; 0
	.db #0x00	; 0
	.db #0x00	; 0
	.db #0x00	; 0
	.db #0x00	; 0
	.db #0x00	; 0
	.db #0x00	; 0
	.db #0x00	; 0
	.db #0x00	; 0
	.db #0x00	; 0
	.db #0x00	; 0
	.db #0x00	; 0
	.db #0x00	; 0
	.db #0x00	; 0
	.db #0x00	; 0
	.db #0x00	; 0
	.db #0x00	; 0
	.db #0x00	; 0
	.db #0x00	; 0
	.db #0x00	; 0
	.db #0x00	; 0
	.db #0x00	; 0
	.db #0x00	; 0
	.db #0x00	; 0
	.db #0x00	; 0
	.db #0x00	; 0
	.db #0x00	; 0
	.db #0x00	; 0
	.db #0x00	; 0
	.db #0x00	; 0
	.db #0x00	; 0
	.db #0x00	; 0
	.db #0x00	; 0
	.db #0x00	; 0
	.db #0x00	; 0
	.db #0x00	; 0
	.db #0x00	; 0
	.db #0x00	; 0
	.db #0x00	; 0
	.db #0x00	; 0
	.db #0x00	; 0
	.db #0x00	; 0
	.db #0x00	; 0
	.db #0x00	; 0
	.db #0x00	; 0
	.db #0x00	; 0
	.db #0x00	; 0
	.db #0x00	; 0
	.db #0x00	; 0
	.db #0x00	; 0
	.db #0x00	; 0
	.db #0x00	; 0
	.db #0x00	; 0
	.db #0x00	; 0
	.db #0x00	; 0
	.db #0x00	; 0
	.db #0x00	; 0
	.db #0x00	; 0
	.db #0x00	; 0
	.db #0x00	; 0
	.db #0x00	; 0
	.db #0x00	; 0
	.db #0x00	; 0
	.db #0x00	; 0
	.db #0x00	; 0
	.db #0x00	; 0
	.db #0x00	; 0
	.db #0x00	; 0
	.db #0x00	; 0
	.db #0x00	; 0
	.db #0x00	; 0
	.db #0x00	; 0
	.db #0x00	; 0
	.db #0x00	; 0
	.db #0x00	; 0
	.db #0x00	; 0
	.db #0x00	; 0
	.db #0x00	; 0
	.db #0x00	; 0
	.db #0x00	; 0
	.db #0x00	; 0
	.db #0x00	; 0
	.db #0x00	; 0
	.db #0x00	; 0
	.db #0x00	; 0
	.db #0x00	; 0
	.db #0x00	; 0
	.db #0x00	; 0
	.db #0x00	; 0
	.db #0x00	; 0
	.db #0x00	; 0
	.db #0x00	; 0
	.db #0x00	; 0
	.db #0x00	; 0
	.db #0x00	; 0
	.db #0x00	; 0
	.db #0x00	; 0
	.db #0x00	; 0
	.db #0x00	; 0
	.db #0x00	; 0
	.db #0x00	; 0
	.db #0x00	; 0
	.db #0x00	; 0
	.db #0x00	; 0
	.db #0x00	; 0
	.db #0x00	; 0
	.db #0x00	; 0
	.db #0x00	; 0
	.db #0x00	; 0
	.db #0x00	; 0
	.db #0x00	; 0
	.db #0x00	; 0
	.db #0x00	; 0
	.db #0x00	; 0
	.db #0x00	; 0
	.db #0x00	; 0
	.db #0x00	; 0
	.db #0x00	; 0
	.db #0x00	; 0
	.db #0x00	; 0
	.db #0x00	; 0
	.db #0x00	; 0
	.db #0x00	; 0
	.db #0x00	; 0
	.db #0x00	; 0
	.db #0x00	; 0
	.db #0x00	; 0
	.db #0x00	; 0
	.db #0x00	; 0
	.db #0x00	; 0
	.db #0x00	; 0
	.db #0x00	; 0
	.db #0x00	; 0
	.db #0x00	; 0
	.db #0x00	; 0
	.db #0x00	; 0
	.db #0x00	; 0
	.db #0x00	; 0
	.db #0x00	; 0
	.db #0x00	; 0
	.db #0x00	; 0
	.db #0x00	; 0
	.db #0x00	; 0
	.db #0x00	; 0
	.db #0x00	; 0
	.db #0x00	; 0
	.db #0x00	; 0
	.db #0x00	; 0
	.db #0x00	; 0
	.db #0x00	; 0
	.db #0x00	; 0
	.db #0x00	; 0
	.db #0x00	; 0
	.db #0x00	; 0
	.db #0x00	; 0
	.db #0x00	; 0
	.db #0x00	; 0
	.db #0x00	; 0
	.db #0x00	; 0
	.db #0x00	; 0
	.db #0x00	; 0
	.db #0x00	; 0
	.db #0x00	; 0
	.db #0x00	; 0
	.db #0x00	; 0
	.db #0x00	; 0
	.db #0x00	; 0
	.db #0x00	; 0
	.db #0x00	; 0
	.db #0x00	; 0
	.db #0x00	; 0
	.db #0x00	; 0
	.db #0x00	; 0
	.db #0x00	; 0
	.db #0x00	; 0
	.db #0x00	; 0
	.db #0x00	; 0
	.db #0x00	; 0
	.db #0x00	; 0
	.db #0x00	; 0
	.db #0x00	; 0
	.db #0x00	; 0
	.db #0x00	; 0
	.db #0x00	; 0
	.db #0x00	; 0
	.db #0x00	; 0
	.db #0x00	; 0
	.db #0x00	; 0
	.db #0x00	; 0
	.db #0x00	; 0
	.db #0x00	; 0
	.db #0x00	; 0
	.db #0x00	; 0
	.db #0x00	; 0
	.db #0x00	; 0
	.db #0x00	; 0
	.db #0x00	; 0
	.db #0x00	; 0
	.db #0x00	; 0
	.db #0x00	; 0
	.db #0x00	; 0
	.db #0x00	; 0
	.db #0x00	; 0
	.db #0x00	; 0
	.db #0x00	; 0
	.db #0x00	; 0
	.db #0x00	; 0
	.db #0x00	; 0
	.db #0x00	; 0
	.db #0x00	; 0
	.db #0x00	; 0
	.db #0x00	; 0
	.db #0x00	; 0
	.db #0x00	; 0
	.db #0x00	; 0
	.db #0x00	; 0
	.db #0x00	; 0
	.db #0x00	; 0
	.db #0x00	; 0
	.db #0x00	; 0
	.db #0x00	; 0
	.db #0x00	; 0
	.db #0x00	; 0
	.db #0x00	; 0
	.db #0x00	; 0
	.db #0x00	; 0
	.db #0x00	; 0
	.db #0x00	; 0
	.db #0x00	; 0
	.db #0x00	; 0
	.db #0x00	; 0
	.db #0x00	; 0
	.db #0x00	; 0
	.db #0x00	; 0
	.db #0x00	; 0
	.db #0x00	; 0
	.db #0x00	; 0
	.db #0x00	; 0
	.db #0x00	; 0
	.db #0x00	; 0
	.db #0x00	; 0
	.db #0x00	; 0
	.db #0x00	; 0
	.db #0x00	; 0
	.db #0x00	; 0
	.db #0x00	; 0
	.db #0x00	; 0
	.db #0x00	; 0
	.db #0x00	; 0
	.db #0x00	; 0
	.db #0x00	; 0
	.db #0x00	; 0
	.db #0x00	; 0
	.db #0x00	; 0
	.db #0x00	; 0
	.db #0x00	; 0
	.db #0x00	; 0
	.db #0x00	; 0
	.db #0x00	; 0
	.db #0x00	; 0
	.db #0x00	; 0
	.db #0x00	; 0
	.db #0x00	; 0
	.db #0x00	; 0
	.db #0x00	; 0
	.db #0x00	; 0
	.db #0x00	; 0
	.db #0x00	; 0
	.db #0x00	; 0
	.db #0x00	; 0
	.db #0x00	; 0
	.db #0x00	; 0
	.db #0x00	; 0
	.db #0x00	; 0
	.db #0x00	; 0
	.db #0x00	; 0
	.db #0x00	; 0
	.db #0x00	; 0
	.db #0x00	; 0
	.db #0x00	; 0
	.db #0x00	; 0
	.db #0x00	; 0
	.db #0x00	; 0
	.db #0x00	; 0
	.db #0x00	; 0
	.db #0x00	; 0
	.db #0x00	; 0
	.db #0x00	; 0
	.db #0x00	; 0
	.db #0x00	; 0
	.db #0x00	; 0
	.db #0x00	; 0
	.db #0x00	; 0
	.db #0x00	; 0
	.db #0x00	; 0
	.db #0x00	; 0
	.db #0x00	; 0
	.db #0x00	; 0
	.db #0x00	; 0
	.db #0x00	; 0
	.db #0x00	; 0
	.db #0x00	; 0
	.db #0x00	; 0
	.db #0x00	; 0
	.db #0x00	; 0
	.db #0x00	; 0
	.db #0x00	; 0
	.db #0x00	; 0
	.db #0x00	; 0
	.db #0x00	; 0
	.db #0x00	; 0
	.db #0x00	; 0
	.db #0x00	; 0
	.db #0x00	; 0
	.db #0x00	; 0
	.db #0x00	; 0
	.db #0x00	; 0
	.db #0x00	; 0
	.db #0x00	; 0
	.db #0x00	; 0
	.db #0x00	; 0
	.db #0x00	; 0
	.db #0x00	; 0
	.db #0x00	; 0
	.db #0x00	; 0
	.db #0x00	; 0
	.db #0x00	; 0
	.db #0x00	; 0
	.db #0x00	; 0
	.db #0x00	; 0
	.db #0x00	; 0
	.db #0x00	; 0
	.db #0x00	; 0
	.db #0x00	; 0
	.db #0x00	; 0
	.db #0x00	; 0
	.db #0x00	; 0
	.db #0x00	; 0
	.db #0x00	; 0
	.db #0x00	; 0
	.db #0x00	; 0
	.db #0x00	; 0
	.db #0x00	; 0
	.db #0x00	; 0
	.db #0x00	; 0
	.db #0x00	; 0
	.db #0x00	; 0
	.db #0x00	; 0
	.db #0x00	; 0
	.db #0x00	; 0
	.db #0x00	; 0
	.db #0x00	; 0
	.db #0x00	; 0
	.db #0x00	; 0
	.db #0x00	; 0
	.db #0x00	; 0
	.db #0x00	; 0
	.db #0x00	; 0
	.db #0x00	; 0
	.db #0x00	; 0
	.db #0x00	; 0
	.db #0x00	; 0
	.db #0x00	; 0
	.db #0x00	; 0
	.db #0x00	; 0
	.db #0x00	; 0
	.db #0x00	; 0
	.db #0x00	; 0
	.db #0x00	; 0
	.db #0x00	; 0
	.db #0x00	; 0
	.db #0x00	; 0
	.db #0x00	; 0
	.db #0x00	; 0
	.db #0x00	; 0
	.db #0x00	; 0
	.db #0x00	; 0
	.db #0x00	; 0
	.db #0x00	; 0
	.db #0x00	; 0
	.db #0x00	; 0
	.db #0x00	; 0
	.db #0x00	; 0
	.db #0x00	; 0
	.db #0x00	; 0
	.db #0x00	; 0
	.db #0x00	; 0
	.db #0x00	; 0
	.db #0x00	; 0
	.db #0x00	; 0
	.db #0x00	; 0
	.db #0x00	; 0
	.db #0x00	; 0
	.db #0x00	; 0
	.db #0x00	; 0
	.db #0x00	; 0
	.db #0x00	; 0
	.db #0x00	; 0
	.db #0x00	; 0
	.db #0x00	; 0
	.db #0x00	; 0
	.db #0x00	; 0
	.db #0x00	; 0
	.db #0x00	; 0
	.db #0x00	; 0
	.db #0x00	; 0
	.db #0x00	; 0
	.db #0x00	; 0
	.db #0x00	; 0
	.db #0x00	; 0
	.db #0x00	; 0
	.db #0x00	; 0
	.db #0x00	; 0
	.db #0x00	; 0
	.db #0x00	; 0
	.db #0x00	; 0
	.db #0x00	; 0
	.db #0x00	; 0
	.db #0x00	; 0
	.db #0x00	; 0
	.db #0x00	; 0
	.db #0x00	; 0
	.db #0x00	; 0
	.db #0x00	; 0
	.db #0x00	; 0
	.db #0x00	; 0
	.db #0x00	; 0
	.db #0x00	; 0
	.db #0x00	; 0
	.db #0x00	; 0
	.db #0x00	; 0
	.db #0x00	; 0
	.db #0x00	; 0
	.db #0x00	; 0
	.db #0x00	; 0
	.db #0x00	; 0
	.db #0x00	; 0
	.db #0x00	; 0
	.db #0x00	; 0
	.db #0x00	; 0
	.db #0x00	; 0
	.db #0x00	; 0
	.db #0x00	; 0
	.db #0x00	; 0
	.db #0x00	; 0
	.db #0x00	; 0
	.db #0x00	; 0
	.db #0x00	; 0
	.db #0x00	; 0
	.db #0x00	; 0
	.db #0x00	; 0
	.db #0x00	; 0
	.db #0x00	; 0
	.db #0x00	; 0
	.db #0x00	; 0
	.db #0x00	; 0
	.db #0x00	; 0
	.db #0x00	; 0
	.db #0x00	; 0
	.db #0x00	; 0
	.db #0x00	; 0
	.db #0x00	; 0
	.db #0x00	; 0
	.db #0x00	; 0
	.db #0x00	; 0
	.db #0x00	; 0
	.db #0x00	; 0
	.db #0x00	; 0
	.db #0x00	; 0
	.db #0x00	; 0
	.db #0x00	; 0
	.db #0x00	; 0
	.db #0x00	; 0
	.db #0x00	; 0
	.db #0x00	; 0
	.db #0x00	; 0
	.db #0x00	; 0
	.db #0x00	; 0
	.db #0x00	; 0
	.db #0x00	; 0
	.db #0x00	; 0
	.db #0x00	; 0
	.db #0x00	; 0
	.db #0x00	; 0
	.db #0x00	; 0
	.db #0x00	; 0
	.db #0x00	; 0
	.db #0x00	; 0
	.db #0x00	; 0
	.db #0x00	; 0
	.db #0x00	; 0
	.db #0x00	; 0
	.db #0x00	; 0
	.db #0x00	; 0
	.db #0x00	; 0
	.db #0x00	; 0
	.db #0x00	; 0
	.db #0x00	; 0
	.db #0x00	; 0
	.db #0x00	; 0
	.db #0x00	; 0
	.db #0x00	; 0
	.db #0x00	; 0
	.db #0x00	; 0
	.db #0x00	; 0
	.db #0x00	; 0
	.db #0x00	; 0
	.db #0x00	; 0
	.db #0x00	; 0
	.db #0x00	; 0
	.db #0x00	; 0
	.db #0x00	; 0
	.db #0x00	; 0
	.db #0x00	; 0
	.db #0x00	; 0
	.db #0x00	; 0
	.db #0x00	; 0
	.db #0x00	; 0
	.db #0x00	; 0
	.db #0x00	; 0
	.db #0x00	; 0
	.db #0x00	; 0
	.db #0x00	; 0
	.db #0x00	; 0
	.db #0x00	; 0
	.db #0x00	; 0
	.db #0x00	; 0
	.db #0x00	; 0
	.db #0x00	; 0
	.db #0x00	; 0
	.db #0x00	; 0
	.db #0x00	; 0
	.db #0x00	; 0
	.db #0x00	; 0
	.db #0x00	; 0
	.db #0x00	; 0
	.db #0x00	; 0
	.db #0x00	; 0
	.db #0x00	; 0
	.db #0x00	; 0
	.db #0x00	; 0
	.db #0x00	; 0
	.db #0x00	; 0
	.db #0x00	; 0
	.db #0x00	; 0
	.db #0x00	; 0
	.db #0x00	; 0
	.db #0x00	; 0
	.db #0x00	; 0
	.db #0x00	; 0
	.db #0x00	; 0
	.db #0x00	; 0
	.db #0x00	; 0
	.db #0x00	; 0
	.db #0x00	; 0
	.db #0x00	; 0
	.db #0x00	; 0
	.db #0x00	; 0
	.db #0x00	; 0
	.db #0x00	; 0
	.db #0x00	; 0
	.db #0x00	; 0
	.db #0x00	; 0
	.db #0x00	; 0
	.db #0x00	; 0
	.db #0x00	; 0
	.db #0x00	; 0
	.db #0x00	; 0
	.db #0x00	; 0
	.db #0x00	; 0
	.db #0x00	; 0
	.db #0x00	; 0
	.db #0x00	; 0
	.db #0x00	; 0
	.db #0x00	; 0
	.db #0x00	; 0
	.db #0x00	; 0
	.db #0x00	; 0
	.db #0x00	; 0
	.db #0x00	; 0
	.db #0x00	; 0
	.db #0x00	; 0
	.db #0x00	; 0
	.db #0x00	; 0
	.db #0x00	; 0
	.db #0x00	; 0
	.db #0x00	; 0
	.db #0x00	; 0
	.db #0x00	; 0
	.db #0x00	; 0
	.db #0x00	; 0
	.db #0x00	; 0
	.db #0x00	; 0
	.db #0x00	; 0
	.db #0x00	; 0
	.db #0x00	; 0
	.db #0x00	; 0
	.db #0x00	; 0
	.db #0x00	; 0
	.db #0x00	; 0
	.db #0x00	; 0
	.db #0x00	; 0
	.db #0x00	; 0
	.db #0x00	; 0
	.db #0x00	; 0
	.db #0x00	; 0
	.db #0x00	; 0
	.db #0x00	; 0
	.db #0x00	; 0
	.db #0x00	; 0
	.db #0x00	; 0
	.db #0x00	; 0
	.db #0x00	; 0
	.db #0x00	; 0
	.db #0x00	; 0
	.db #0x00	; 0
	.db #0x00	; 0
	.db #0x00	; 0
	.db #0x00	; 0
	.db #0x00	; 0
	.db #0x00	; 0
	.db #0x00	; 0
	.db #0x00	; 0
	.db #0x00	; 0
	.db #0x00	; 0
	.db #0x00	; 0
	.db #0x00	; 0
	.db #0x00	; 0
	.db #0x00	; 0
	.db #0x00	; 0
	.db #0x00	; 0
	.db #0x00	; 0
	.db #0x00	; 0
	.db #0x00	; 0
	.db #0x00	; 0
	.db #0x00	; 0
	.db #0x00	; 0
	.db #0x00	; 0
	.db #0x00	; 0
	.db #0x00	; 0
	.db #0x00	; 0
	.db #0x00	; 0
	.db #0x00	; 0
	.db #0x00	; 0
	.db #0x00	; 0
	.db #0x00	; 0
	.db #0x00	; 0
	.db #0x00	; 0
	.db #0x00	; 0
	.db #0x00	; 0
	.db #0x00	; 0
	.db #0x00	; 0
	.db #0x00	; 0
	.db #0x00	; 0
	.db #0x00	; 0
	.db #0x00	; 0
	.db #0x00	; 0
	.db #0x00	; 0
	.db #0x00	; 0
	.db #0x00	; 0
	.db #0x00	; 0
	.db #0x00	; 0
	.db #0x00	; 0
	.db #0x00	; 0
	.db #0x00	; 0
	.db #0x00	; 0
	.db #0x00	; 0
	.db #0x00	; 0
	.db #0x00	; 0
	.db #0x00	; 0
	.db #0x00	; 0
	.db #0x00	; 0
	.db #0x00	; 0
	.db #0x00	; 0
	.db #0x00	; 0
	.db #0x00	; 0
	.db #0x00	; 0
	.db #0x00	; 0
	.db #0x00	; 0
	.db #0x00	; 0
	.db #0x00	; 0
	.db #0x00	; 0
	.db #0x00	; 0
	.db #0x00	; 0
	.db #0x00	; 0
	.db #0x00	; 0
	.db #0x00	; 0
	.db #0x00	; 0
	.db #0x00	; 0
	.db #0x00	; 0
	.db #0x00	; 0
	.db #0x00	; 0
	.db #0x00	; 0
	.db #0x00	; 0
	.db #0x00	; 0
	.db #0x00	; 0
	.db #0x00	; 0
	.db #0x00	; 0
	.db #0x00	; 0
	.db #0x00	; 0
	.db #0x00	; 0
	.db #0x00	; 0
	.db #0x00	; 0
	.db #0x00	; 0
	.db #0x00	; 0
	.db #0x00	; 0
	.db #0x00	; 0
	.db #0x00	; 0
	.db #0x00	; 0
	.db #0x00	; 0
	.db #0x00	; 0
	.db #0x00	; 0
	.db #0x00	; 0
	.db #0x00	; 0
	.db #0x00	; 0
	.db #0x00	; 0
	.db #0x00	; 0
	.db #0x00	; 0
	.db #0x00	; 0
	.db #0x00	; 0
	.db #0x00	; 0
	.db #0x00	; 0
	.db #0x00	; 0
	.db #0x00	; 0
	.db #0x00	; 0
	.db #0x00	; 0
	.db #0x00	; 0
	.db #0x00	; 0
	.db #0x00	; 0
	.db #0x00	; 0
	.db #0x00	; 0
	.db #0x00	; 0
	.db #0x00	; 0
	.db #0x00	; 0
	.db #0x00	; 0
	.db #0x00	; 0
	.db #0x00	; 0
	.db #0x00	; 0
	.db #0x00	; 0
	.db #0x00	; 0
	.db #0x00	; 0
	.db #0x00	; 0
	.db #0x00	; 0
	.db #0x00	; 0
	.db #0x00	; 0
	.db #0x00	; 0
	.db #0x00	; 0
	.db #0x00	; 0
	.db #0x00	; 0
	.db #0x00	; 0
	.db #0x00	; 0
	.db #0x00	; 0
	.db #0x00	; 0
	.db #0x00	; 0
	.db #0x00	; 0
	.db #0x00	; 0
	.db #0x00	; 0
	.db #0x00	; 0
	.db #0x00	; 0
	.db #0x00	; 0
	.db #0x00	; 0
	.db #0x00	; 0
	.db #0x00	; 0
	.db #0x00	; 0
	.db #0x00	; 0
	.db #0x00	; 0
	.db #0x00	; 0
	.db #0x00	; 0
	.db #0x00	; 0
	.db #0x00	; 0
	.db #0x00	; 0
	.db #0x00	; 0
	.db #0x00	; 0
	.db #0x00	; 0
	.db #0x00	; 0
	.db #0x00	; 0
	.db #0x00	; 0
	.db #0x00	; 0
	.db #0x00	; 0
	.db #0x00	; 0
	.db #0x00	; 0
	.db #0x00	; 0
	.db #0x00	; 0
	.db #0x00	; 0
	.db #0x00	; 0
	.db #0x00	; 0
	.db #0x00	; 0
	.db #0x00	; 0
	.db #0x00	; 0
	.db #0x00	; 0
	.db #0x00	; 0
	.db #0x00	; 0
	.db #0x00	; 0
	.db #0x00	; 0
	.db #0x00	; 0
	.db #0x00	; 0
	.db #0x00	; 0
	.db #0x00	; 0
	.db #0x00	; 0
	.db #0x00	; 0
	.db #0x00	; 0
	.db #0x00	; 0
	.db #0x00	; 0
	.db #0x00	; 0
	.db #0x00	; 0
	.db #0x00	; 0
	.db #0x00	; 0
	.db #0x00	; 0
	.db #0x00	; 0
	.db #0x00	; 0
	.db #0x00	; 0
	.db #0x00	; 0
	.db #0x00	; 0
	.db #0x00	; 0
	.db #0x00	; 0
	.db #0x00	; 0
	.db #0x00	; 0
	.db #0x00	; 0
	.db #0x00	; 0
	.db #0x00	; 0
	.db #0x00	; 0
	.db #0x00	; 0
	.db #0x00	; 0
	.db #0x00	; 0
	.db #0x00	; 0
	.db #0x00	; 0
	.db #0x00	; 0
	.db #0x00	; 0
	.db #0x00	; 0
	.db #0x00	; 0
	.db #0x00	; 0
	.db #0x00	; 0
	.db #0x00	; 0
	.db #0x00	; 0
	.db #0x00	; 0
	.db #0x00	; 0
	.db #0x00	; 0
	.db #0x00	; 0
	.db #0x00	; 0
	.db #0x00	; 0
	.db #0x00	; 0
	.db #0x00	; 0
	.db #0x00	; 0
	.db #0x00	; 0
	.db #0x00	; 0
	.db #0x00	; 0
	.db #0x00	; 0
	.db #0x00	; 0
	.db #0x00	; 0
	.db #0x00	; 0
	.db #0x00	; 0
	.db #0x00	; 0
	.db #0x00	; 0
	.db #0x00	; 0
	.db #0x00	; 0
	.db #0x00	; 0
	.db #0x00	; 0
	.db #0x00	; 0
	.db #0x00	; 0
	.db #0x00	; 0
	.db #0x00	; 0
	.db #0x00	; 0
	.db #0x00	; 0
	.db #0x00	; 0
	.db #0x00	; 0
	.db #0x00	; 0
	.db #0x00	; 0
	.db #0x00	; 0
	.db #0x00	; 0
	.db #0x00	; 0
	.db #0x00	; 0
	.db #0x00	; 0
	.db #0x00	; 0
	.db #0x00	; 0
	.db #0x00	; 0
	.db #0x00	; 0
	.db #0x00	; 0
	.db #0x00	; 0
	.db #0x00	; 0
	.db #0x00	; 0
	.db #0x00	; 0
	.db #0x00	; 0
	.db #0x00	; 0
	.db #0x00	; 0
	.db #0x00	; 0
	.db #0x00	; 0
	.db #0x00	; 0
	.db #0x00	; 0
	.db #0x00	; 0
	.db #0x00	; 0
	.db #0x00	; 0
	.db #0x00	; 0
	.db #0x00	; 0
	.db #0x00	; 0
	.db #0x00	; 0
	.db #0x00	; 0
	.db #0x00	; 0
	.db #0x00	; 0
	.db #0x00	; 0
	.db #0x00	; 0
	.db #0x00	; 0
	.db #0x00	; 0
	.db #0x00	; 0
	.db #0x00	; 0
	.db #0x00	; 0
	.db #0x00	; 0
	.db #0x00	; 0
	.db #0x00	; 0
	.db #0x00	; 0
	.db #0x00	; 0
	.db #0x00	; 0
	.db #0x00	; 0
	.db #0x00	; 0
	.db #0x00	; 0
	.db #0x00	; 0
	.db #0x00	; 0
	.db #0x00	; 0
	.db #0x00	; 0
	.db #0x00	; 0
	.db #0x00	; 0
	.db #0x00	; 0
	.db #0x00	; 0
	.db #0x00	; 0
	.db #0x00	; 0
	.db #0x00	; 0
	.db #0x00	; 0
	.db #0x00	; 0
	.db #0x00	; 0
	.db #0x00	; 0
	.db #0x00	; 0
	.db #0x00	; 0
	.db #0x00	; 0
	.db #0x00	; 0
	.db #0x00	; 0
	.db #0x00	; 0
	.db #0x00	; 0
	.db #0x00	; 0
	.db #0x00	; 0
	.db #0x00	; 0
	.db #0x00	; 0
	.db #0x00	; 0
	.db #0x00	; 0
	.db #0x00	; 0
	.db #0x00	; 0
	.db #0x00	; 0
	.db #0x00	; 0
	.db #0x00	; 0
	.db #0x00	; 0
	.db #0x00	; 0
	.db #0x00	; 0
	.db #0x00	; 0
	.db #0x00	; 0
	.db #0x00	; 0
	.db #0x00	; 0
	.db #0x00	; 0
	.db #0x00	; 0
	.db #0x00	; 0
	.db #0x00	; 0
	.db #0x00	; 0
	.db #0x00	; 0
	.db #0x00	; 0
	.db #0x00	; 0
	.db #0x00	; 0
	.db #0x00	; 0
	.db #0x00	; 0
	.db #0x00	; 0
	.db #0x00	; 0
	.db #0x00	; 0
	.db #0x00	; 0
	.db #0x00	; 0
	.db #0x00	; 0
	.db #0x00	; 0
	.db #0x00	; 0
	.db #0x00	; 0
	.db #0x00	; 0
	.db #0x00	; 0
	.db #0x00	; 0
	.db #0x00	; 0
	.db #0x00	; 0
	.db #0x00	; 0
	.db #0x00	; 0
	.db #0x00	; 0
	.db #0x00	; 0
	.db #0x00	; 0
	.db #0x00	; 0
	.db #0x00	; 0
	.db #0x00	; 0
	.db #0x00	; 0
	.db #0x00	; 0
	.db #0x00	; 0
	.db #0x00	; 0
	.db #0x00	; 0
	.db #0x7c	; 124
	.db #0x3c	; 60
	.db #0xfe	; 254
	.db #0x7e	; 126
	.db #0xee	; 238
	.db #0x66	; 102	'f'
	.db #0xee	; 238
	.db #0x66	; 102	'f'
	.db #0xee	; 238
	.db #0x66	; 102	'f'
	.db #0xee	; 238
	.db #0x66	; 102	'f'
	.db #0xfe	; 254
	.db #0x7e	; 126
	.db #0x7c	; 124
	.db #0x3c	; 60
	.db #0x38	; 56	'8'
	.db #0x18	; 24
	.db #0x78	; 120	'x'
	.db #0x38	; 56	'8'
	.db #0xf8	; 248
	.db #0x78	; 120	'x'
	.db #0x38	; 56	'8'
	.db #0x18	; 24
	.db #0x38	; 56	'8'
	.db #0x18	; 24
	.db #0x38	; 56	'8'
	.db #0x18	; 24
	.db #0xfe	; 254
	.db #0x7e	; 126
	.db #0xfe	; 254
	.db #0x7e	; 126
	.db #0x3c	; 60
	.db #0x1c	; 28
	.db #0x7e	; 126
	.db #0x3e	; 62
	.db #0xee	; 238
	.db #0x66	; 102	'f'
	.db #0x1e	; 30
	.db #0x0e	; 14
	.db #0x3c	; 60
	.db #0x1c	; 28
	.db #0x78	; 120	'x'
	.db #0x38	; 56	'8'
	.db #0xfe	; 254
	.db #0x7e	; 126
	.db #0x7c	; 124
	.db #0x3c	; 60
	.db #0x3c	; 60
	.db #0x1c	; 28
	.db #0x7e	; 126
	.db #0x3e	; 62
	.db #0xee	; 238
	.db #0x66	; 102	'f'
	.db #0x1e	; 30
	.db #0x0e	; 14
	.db #0x3c	; 60
	.db #0x1c	; 28
	.db #0x1e	; 30
	.db #0x0e	; 14
	.db #0xfe	; 254
	.db #0x7e	; 126
	.db #0x7c	; 124
	.db #0x3c	; 60
	.db #0x18	; 24
	.db #0x08	; 8
	.db #0x38	; 56	'8'
	.db #0x18	; 24
	.db #0x78	; 120	'x'
	.db #0x38	; 56	'8'
	.db #0xf8	; 248
	.db #0x58	; 88	'X'
	.db #0xfe	; 254
	.db #0x7e	; 126
	.db #0xfe	; 254
	.db #0x7e	; 126
	.db #0x38	; 56	'8'
	.db #0x18	; 24
	.db #0x38	; 56	'8'
	.db #0x18	; 24
	.db #0x7c	; 124
	.db #0x3c	; 60
	.db #0xfe	; 254
	.db #0x7e	; 126
	.db #0xe0	; 224
	.db #0x60	; 96
	.db #0xfc	; 252
	.db #0x7c	; 124
	.db #0xfe	; 254
	.db #0x7e	; 126
	.db #0x0e	; 14
	.db #0x06	; 6
	.db #0xfe	; 254
	.db #0x7e	; 126
	.db #0x7c	; 124
	.db #0x3c	; 60
	.db #0x7c	; 124
	.db #0x3c	; 60
	.db #0xfe	; 254
	.db #0x7e	; 126
	.db #0xe0	; 224
	.db #0x60	; 96
	.db #0xfc	; 252
	.db #0x7c	; 124
	.db #0xfe	; 254
	.db #0x6e	; 110	'n'
	.db #0xee	; 238
	.db #0x66	; 102	'f'
	.db #0x7e	; 126
	.db #0x3e	; 62
	.db #0x3c	; 60
	.db #0x1c	; 28
	.db #0x3e	; 62
	.db #0x1e	; 30
	.db #0x7f	; 127
	.db #0x3f	; 63
	.db #0xee	; 238
	.db #0x66	; 102	'f'
	.db #0x1c	; 28
	.db #0x0c	; 12
	.db #0x38	; 56	'8'
	.db #0x18	; 24
	.db #0x38	; 56	'8'
	.db #0x18	; 24
	.db #0x38	; 56	'8'
	.db #0x18	; 24
	.db #0x38	; 56	'8'
	.db #0x18	; 24
	.db #0x7c	; 124
	.db #0x3c	; 60
	.db #0xfe	; 254
	.db #0x7e	; 126
	.db #0xee	; 238
	.db #0x66	; 102	'f'
	.db #0x7c	; 124
	.db #0x3c	; 60
	.db #0x38	; 56	'8'
	.db #0x18	; 24
	.db #0x6c	; 108	'l'
	.db #0x24	; 36
	.db #0xfe	; 254
	.db #0x7e	; 126
	.db #0x7c	; 124
	.db #0x3c	; 60
	.db #0x79	; 121	'y'
	.db #0x38	; 56	'8'
	.db #0xfc	; 252
	.db #0x7c	; 124
	.db #0xee	; 238
	.db #0x66	; 102	'f'
	.db #0xfe	; 254
	.db #0x76	; 118	'v'
	.db #0x7e	; 126
	.db #0x3e	; 62
	.db #0x0e	; 14
	.db #0x06	; 6
	.db #0xfe	; 254
	.db #0x7e	; 126
	.db #0x7c	; 124
	.db #0x3c	; 60
	.db #0x00	; 0
	.db #0x00	; 0
	.db #0x00	; 0
	.db #0x00	; 0
	.db #0x00	; 0
	.db #0x00	; 0
	.db #0x00	; 0
	.db #0x00	; 0
	.db #0x00	; 0
	.db #0x00	; 0
	.db #0x00	; 0
	.db #0x00	; 0
	.db #0x00	; 0
	.db #0x00	; 0
	.db #0x00	; 0
	.db #0x00	; 0
	.db #0x00	; 0
	.db #0x00	; 0
	.db #0x00	; 0
	.db #0x00	; 0
	.db #0x00	; 0
	.db #0x00	; 0
	.db #0x00	; 0
	.db #0x00	; 0
	.db #0x00	; 0
	.db #0x00	; 0
	.db #0x00	; 0
	.db #0x00	; 0
	.db #0x00	; 0
	.db #0x00	; 0
	.db #0x00	; 0
	.db #0x00	; 0
	.db #0x00	; 0
	.db #0x00	; 0
	.db #0x00	; 0
	.db #0x00	; 0
	.db #0x00	; 0
	.db #0x00	; 0
	.db #0x00	; 0
	.db #0x00	; 0
	.db #0x00	; 0
	.db #0x00	; 0
	.db #0x00	; 0
	.db #0x00	; 0
	.db #0x00	; 0
	.db #0x00	; 0
	.db #0x00	; 0
	.db #0x00	; 0
	.db #0x00	; 0
	.db #0x00	; 0
	.db #0x00	; 0
	.db #0x00	; 0
	.db #0x00	; 0
	.db #0x00	; 0
	.db #0x00	; 0
	.db #0x00	; 0
	.db #0x00	; 0
	.db #0x00	; 0
	.db #0x00	; 0
	.db #0x00	; 0
	.db #0x00	; 0
	.db #0x00	; 0
	.db #0x00	; 0
	.db #0x00	; 0
	.db #0x00	; 0
	.db #0x00	; 0
	.db #0x00	; 0
	.db #0x00	; 0
	.db #0x00	; 0
	.db #0x00	; 0
	.db #0x00	; 0
	.db #0x00	; 0
	.db #0x00	; 0
	.db #0x00	; 0
	.db #0x00	; 0
	.db #0x00	; 0
	.db #0x00	; 0
	.db #0x00	; 0
	.db #0x00	; 0
	.db #0x00	; 0
	.db #0x00	; 0
	.db #0x00	; 0
	.db #0x00	; 0
	.db #0x00	; 0
	.db #0x00	; 0
	.db #0x00	; 0
	.db #0x00	; 0
	.db #0x00	; 0
	.db #0x00	; 0
	.db #0x00	; 0
	.db #0x00	; 0
	.db #0x00	; 0
	.db #0x00	; 0
	.db #0x00	; 0
	.db #0x00	; 0
	.db #0x00	; 0
	.db #0x00	; 0
	.db #0x00	; 0
	.db #0x00	; 0
	.db #0x00	; 0
	.db #0x00	; 0
	.db #0x00	; 0
	.db #0x00	; 0
	.db #0x00	; 0
	.db #0x00	; 0
	.db #0x00	; 0
	.db #0x00	; 0
	.db #0x00	; 0
	.db #0x00	; 0
	.db #0x00	; 0
	.db #0x00	; 0
	.db #0x00	; 0
	.db #0x00	; 0
	.db #0x00	; 0
	.db #0x00	; 0
	.db #0x00	; 0
	.db #0x00	; 0
	.db #0x00	; 0
	.db #0x00	; 0
	.db #0x00	; 0
	.db #0x00	; 0
	.db #0x00	; 0
	.db #0x00	; 0
	.db #0x00	; 0
	.db #0x00	; 0
	.db #0x00	; 0
	.db #0x00	; 0
	.db #0x00	; 0
	.db #0x00	; 0
	.db #0x00	; 0
	.db #0x00	; 0
	.db #0x00	; 0
	.db #0x00	; 0
	.db #0x00	; 0
	.db #0x00	; 0
	.db #0x00	; 0
	.db #0x00	; 0
	.db #0x00	; 0
	.db #0x00	; 0
	.db #0x00	; 0
	.db #0x00	; 0
	.db #0x00	; 0
	.db #0x00	; 0
	.db #0x00	; 0
	.db #0x00	; 0
	.db #0x00	; 0
	.db #0x00	; 0
	.db #0x00	; 0
	.db #0x00	; 0
	.db #0x00	; 0
	.db #0x00	; 0
	.db #0x00	; 0
	.db #0x00	; 0
	.db #0x00	; 0
	.db #0x00	; 0
	.db #0x00	; 0
	.db #0x00	; 0
	.db #0x00	; 0
	.db #0x00	; 0
	.db #0x00	; 0
	.db #0x00	; 0
	.db #0x00	; 0
	.db #0x00	; 0
	.db #0x00	; 0
	.db #0x00	; 0
	.db #0x00	; 0
	.db #0x00	; 0
	.db #0x00	; 0
	.db #0x00	; 0
	.db #0x00	; 0
	.db #0x00	; 0
	.db #0x00	; 0
	.db #0x00	; 0
	.db #0x00	; 0
	.db #0x00	; 0
	.db #0x00	; 0
	.db #0x00	; 0
	.db #0x00	; 0
	.db #0x00	; 0
	.db #0x00	; 0
	.db #0x00	; 0
	.db #0x00	; 0
	.db #0x00	; 0
	.db #0x00	; 0
	.db #0x00	; 0
	.db #0x00	; 0
	.db #0x00	; 0
	.db #0x00	; 0
	.db #0x00	; 0
	.db #0x00	; 0
	.db #0x00	; 0
	.db #0x00	; 0
	.db #0x00	; 0
	.db #0x00	; 0
	.db #0x00	; 0
	.db #0x00	; 0
	.db #0x00	; 0
	.db #0x00	; 0
	.db #0x00	; 0
	.db #0x00	; 0
	.db #0x00	; 0
	.db #0x00	; 0
	.db #0x00	; 0
	.db #0x00	; 0
	.db #0x00	; 0
	.db #0x00	; 0
	.db #0x00	; 0
	.db #0x00	; 0
	.db #0x00	; 0
	.db #0x00	; 0
	.db #0x00	; 0
	.db #0x00	; 0
	.db #0x00	; 0
	.db #0x00	; 0
	.db #0x00	; 0
	.db #0x00	; 0
	.db #0x00	; 0
	.db #0x00	; 0
	.db #0x00	; 0
	.db #0x00	; 0
	.db #0x00	; 0
	.db #0x00	; 0
	.db #0x00	; 0
	.db #0x00	; 0
	.db #0x00	; 0
	.db #0x00	; 0
	.db #0x00	; 0
	.db #0x00	; 0
	.db #0x00	; 0
	.db #0x00	; 0
	.db #0x00	; 0
	.db #0x00	; 0
	.db #0x00	; 0
	.db #0x00	; 0
	.db #0x00	; 0
	.db #0x00	; 0
	.db #0x00	; 0
	.db #0x00	; 0
	.db #0x00	; 0
	.db #0x00	; 0
	.db #0x00	; 0
	.db #0x00	; 0
	.db #0x00	; 0
	.db #0x00	; 0
	.db #0x00	; 0
	.db #0x00	; 0
	.db #0x00	; 0
	.db #0x00	; 0
	.db #0x00	; 0
	.db #0x00	; 0
	.db #0x00	; 0
	.db #0x00	; 0
	.db #0x00	; 0
	.db #0x00	; 0
	.db #0x00	; 0
	.db #0x00	; 0
	.db #0x00	; 0
	.db #0x00	; 0
	.db #0x00	; 0
	.db #0x00	; 0
	.db #0x00	; 0
	.db #0x00	; 0
	.db #0x00	; 0
	.db #0x00	; 0
	.db #0x00	; 0
	.db #0x00	; 0
	.db #0x00	; 0
	.db #0x00	; 0
	.db #0x00	; 0
	.db #0x00	; 0
	.db #0x00	; 0
	.db #0x00	; 0
	.db #0x00	; 0
	.db #0x00	; 0
	.db #0x00	; 0
	.db #0x00	; 0
	.db #0x00	; 0
	.db #0x00	; 0
	.db #0x00	; 0
	.db #0x00	; 0
	.db #0x00	; 0
	.db #0x00	; 0
	.db #0x00	; 0
	.db #0x00	; 0
	.db #0x00	; 0
	.db #0x00	; 0
	.db #0x00	; 0
	.db #0x00	; 0
;src/player.c:16: void playerInit() {
;	---------------------------------
; Function playerInit
; ---------------------------------
_playerInit::
	add	sp, #-4
;src/player.c:17: reload = 0;
	ld	hl, #_reload
	ld	(hl), #0x00
;src/player.c:18: player.x        =  50;
	ld	hl, #_player
	ld	(hl), #0x32
;src/player.c:19: player.y        =  50;
	ld	hl, #(_player + 1)
	ld	(hl), #0x32
;src/player.c:20: player.id       =   20;
	ld	bc, #_player + 2
	ld	a, #0x14
	ld	(bc), a
;src/player.c:21: player.shooting = FALSE;
	ld	hl, #(_player + 3)
	ld	(hl), #0x00
;src/player.c:22: set_sprite_tile(player.id,1);   // Sprite to use.
	ld	a, (bc)
;c:/gbdk/include/gb/gb.h:1602: shadow_OAM[nb].tile=tile;
	ld	l, a
	ld	bc, #_shadow_OAM+0
;	spillPairReg hl
;	spillPairReg hl
	ld	h, #0x00
;	spillPairReg hl
;	spillPairReg hl
	add	hl, hl
	add	hl, hl
	add	hl, bc
	inc	hl
	inc	hl
	ld	(hl), #0x01
;src/player.c:23: currentBullet   =   1;
	ld	hl, #_currentBullet
	ld	(hl), #0x01
;src/player.c:24: for (int i = 0; i < NUM_BULLETS; i++) {
	ld	bc, #0x0000
00105$:
	ld	a, c
	sub	a, #0x03
	ld	a, b
	rla
	ccf
	rra
	sbc	a, #0x80
	jr	NC, 00107$
;src/player.c:25: bullets[i].ready = TRUE;
	ld	l, c
	ld	h, b
	add	hl, hl
	add	hl, hl
	add	hl, bc
	inc	sp
	inc	sp
	ld	e, l
	ld	d, h
	push	de
	ld	hl, #_bullets
	add	hl, de
	push	hl
	ld	a, l
	ldhl	sp,	#4
	ld	(hl), a
	pop	hl
	ld	a, h
	ldhl	sp,	#3
	ld	(hl-), a
	ld	a, (hl+)
	ld	e, a
	ld	d, (hl)
	ld	hl, #0x0004
	add	hl, de
	ld	(hl), #0x01
;src/player.c:26: bullets[i].x     = 200;   
	ldhl	sp,	#2
	ld	a,	(hl+)
	ld	h, (hl)
	ld	l, a
	ld	(hl), #0xc8
;src/player.c:27: bullets[i].y     = 0;
	ldhl	sp,	#2
	ld	a, (hl+)
	ld	e, a
;src/player.c:28: bullets[i].id    = i + 1;  
	ld	a, (hl-)
	ld	d, a
	inc	de
	xor	a, a
	ld	(de), a
	ld	a, (hl+)
	ld	e, a
	ld	d, (hl)
	inc	de
	inc	de
	ld	a, c
	inc	a
	ld	(de), a
;src/player.c:29: bullets[i].tile  = 2;
;	spillPairReg hl
;	spillPairReg hl
	ld	a, (hl-)
	ld	l, (hl)
	ld	h, a
;	spillPairReg hl
;	spillPairReg hl
	inc	hl
	inc	hl
	inc	hl
	ld	(hl), #0x02
;src/player.c:30: set_sprite_tile(bullets[i].id, bullets[i].tile);
	ld	a, (hl)
	ldhl	sp,	#3
	ld	(hl), a
	ld	a, (de)
	ld	e, a
;c:/gbdk/include/gb/gb.h:1602: shadow_OAM[nb].tile=tile;
	ld	h, #0x00
;	spillPairReg hl
;	spillPairReg hl
	ld	l, e
	add	hl, hl
	add	hl, hl
	ld	de, #_shadow_OAM
	add	hl, de
	inc	hl
	inc	hl
	ld	e, l
	ld	d, h
	ldhl	sp,	#3
	ld	a, (hl)
	ld	(de), a
;src/player.c:24: for (int i = 0; i < NUM_BULLETS; i++) {
	inc	bc
	jr	00105$
00107$:
;src/player.c:32: }
	add	sp, #4
	ret
;src/player.c:35: void playerMovement() {
;	---------------------------------
; Function playerMovement
; ---------------------------------
_playerMovement::
;src/player.c:36: if (joypad() & J_UP   ) { player.y -- ; if ( player.y < MIN_Y ) { player.y = MIN_Y; } }
	call	_joypad
	bit	2, a
	jr	Z, 00104$
	ld	bc, #_player+1
	ld	a, (bc)
	dec	a
	ld	(bc), a
	sub	a, #0x10
	jr	NC, 00104$
	ld	a, #0x10
	ld	(bc), a
00104$:
;src/player.c:37: if (joypad() & J_DOWN ) { player.y ++ ; if ( player.y > MAX_Y ) { player.y = MAX_Y; } }
	call	_joypad
	bit	3, a
	jr	Z, 00108$
	ld	bc, #_player+1
	ld	a, (bc)
	inc	a
	ld	e, a
	ld	(bc), a
	ld	a, #0x88
	sub	a, e
	jr	NC, 00108$
	ld	a, #0x88
	ld	(bc), a
00108$:
;src/player.c:38: if (joypad() & J_LEFT ) { player.x -- ; if ( player.x < MIN_X ) { player.x = MIN_X; } }
	call	_joypad
	bit	1, a
	jr	Z, 00112$
	ld	bc, #_player+0
	ld	a, (bc)
	dec	a
	ld	(bc), a
	sub	a, #0x08
	jr	NC, 00112$
	ld	a, #0x08
	ld	(bc), a
00112$:
;src/player.c:39: if (joypad() & J_RIGHT) { player.x ++ ; if ( player.x > MAX_X ) { player.x = MAX_X; } }
	call	_joypad
	rrca
	jr	NC, 00116$
	ld	bc, #_player+0
	ld	a, (bc)
	inc	a
	ld	e, a
	ld	(bc), a
	ld	a, #0xa0
	sub	a, e
	jr	NC, 00116$
	ld	a, #0xa0
	ld	(bc), a
00116$:
;src/player.c:40: if (joypad() & J_A    ) { player.shooting = TRUE; } else { player.shooting = FALSE; } 
	call	_joypad
	bit	4, a
	jr	Z, 00118$
	ld	hl, #(_player + 3)
	ld	(hl), #0x01
	ret
00118$:
	ld	hl, #(_player + 3)
	ld	(hl), #0x00
;src/player.c:42: }
	ret
;src/player.c:44: void bulletUpdate() {
;	---------------------------------
; Function bulletUpdate
; ---------------------------------
_bulletUpdate::
	dec	sp
	dec	sp
;src/player.c:46: if (reload > 0) {
	ld	hl, #_reload
	ld	e, (hl)
	xor	a, a
	ld	d, a
	sub	a, (hl)
	bit	7, e
	jr	Z, 00167$
	bit	7, d
	jr	NZ, 00168$
	cp	a, a
	jr	00168$
00167$:
	bit	7, d
	jr	Z, 00168$
	scf
00168$:
	jr	NC, 00102$
;src/player.c:47: reload --;
	ld	hl, #_reload
	dec	(hl)
00102$:
;src/player.c:50: if (player.shooting && reload == 0) {
	ld	a, (#(_player + 3) + 0)
	or	a, a
	jr	Z, 00129$
	ld	a, (#_reload)
	or	a, a
	jr	NZ, 00129$
;src/player.c:51: for (int i = 0; i < NUM_BULLETS; i++) {
	ld	bc, #0x0000
00114$:
	ld	a, c
	sub	a, #0x03
	ld	a, b
	rla
	ccf
	rra
	sbc	a, #0x80
	jr	NC, 00129$
;src/player.c:52: if (currentBullet == i + 1) {
	ld	e, c
	ld	d, b
	inc	de
	ld	hl, #_currentBullet
	ld	l, (hl)
;	spillPairReg hl
;	spillPairReg hl
	ld	h, #0x00
;	spillPairReg hl
;	spillPairReg hl
	ld	a, l
	sub	a, e
	jr	NZ, 00115$
	ld	a, h
	sub	a, d
	jr	NZ, 00115$
;src/player.c:53: bullets[i].x     = player.x;
	ld	l, c
	ld	h, b
	add	hl, hl
	add	hl, hl
	add	hl, bc
	ld	bc,#_bullets
	add	hl,bc
	ld	c, l
	ld	b, h
	ld	a, (#_player + 0)
	ld	(bc), a
;src/player.c:54: bullets[i].y     = player.y;
	ld	e, c
	ld	d, b
	inc	de
	ld	a, (#_player + 1)
	ld	(de), a
;src/player.c:55: bullets[i].ready = FALSE;
	inc	bc
	inc	bc
	inc	bc
	inc	bc
	xor	a, a
	ld	(bc), a
;src/player.c:56: reload += RELOAD;
	ld	hl, #_reload
	ld	a, (hl)
	add	a, #0x14
	ld	(hl), a
;src/player.c:57: currentBullet = (currentBullet % NUM_BULLETS) + 1;
	ld	hl, #_currentBullet
	ld	e, (hl)
	ld	d, #0x00
	ld	bc, #0x0003
	call	__modsint
	ld	a, c
	inc	a
	ld	(#_currentBullet),a
;src/player.c:58: break;
	jr	00129$
00115$:
;src/player.c:51: for (int i = 0; i < NUM_BULLETS; i++) {
	ld	c, e
	ld	b, d
	jr	00114$
;src/player.c:64: for (int i = 0; i < NUM_BULLETS; i++) {
00129$:
	ld	bc, #0x0000
00117$:
	ld	a, c
	sub	a, #0x03
	ld	a, b
	rla
	ccf
	rra
	sbc	a, #0x80
	jr	NC, 00119$
;src/player.c:66: if (bullets[i].x >= MAX_X) {
	ld	l, c
	ld	h, b
	add	hl, hl
	add	hl, hl
	add	hl, bc
	ld	a, l
	add	a, #<(_bullets)
	ld	e, a
	ld	a, h
	adc	a, #>(_bullets)
	ld	d, a
	ld	a, (de)
	sub	a, #0xa0
	jr	C, 00110$
;src/player.c:67: bullets[i].x = 170;
	ld	a, #0xaa
	ld	(de), a
;src/player.c:68: bullets[i].ready = TRUE;
	ld	hl, #0x0004
	add	hl, de
	ld	(hl), #0x01
00110$:
;src/player.c:71: bullets[i].x += 3;
	ld	a, (de)
	add	a, #0x03
	ld	(de), a
;src/player.c:72: move_sprite(bullets[i].id, bullets[i].x, bullets[i].y);
	ld	l, e
;	spillPairReg hl
;	spillPairReg hl
	ld	h, d
;	spillPairReg hl
;	spillPairReg hl
	inc	hl
	ld	a, (hl)
	ldhl	sp,	#0
	ld	(hl), a
	ld	a, (de)
	ldhl	sp,	#1
	ld	(hl), a
	inc	de
	inc	de
	ld	a, (de)
	ld	e, a
;c:/gbdk/include/gb/gb.h:1675: OAM_item_t * itm = &shadow_OAM[nb];
	ld	h, #0x00
;	spillPairReg hl
;	spillPairReg hl
	ld	l, e
	add	hl, hl
	add	hl, hl
	ld	de, #_shadow_OAM
	add	hl, de
	ld	e, l
	ld	d, h
;c:/gbdk/include/gb/gb.h:1676: itm->y=y, itm->x=x;
	ldhl	sp,	#0
	ld	a, (hl+)
	ld	(de), a
	inc	de
	ld	a, (hl)
	ld	(de), a
;src/player.c:64: for (int i = 0; i < NUM_BULLETS; i++) {
	inc	bc
	jr	00117$
00119$:
;src/player.c:74: }
	inc	sp
	inc	sp
	ret
;src/player.c:76: void playerUpdate() {
;	---------------------------------
; Function playerUpdate
; ---------------------------------
_playerUpdate::
	dec	sp
;src/player.c:77: move_sprite( player.id , player.x , player.y );
	ld	de, #_player+0
	ld	l, e
;	spillPairReg hl
;	spillPairReg hl
	ld	h, d
;	spillPairReg hl
;	spillPairReg hl
	inc	hl
	ld	c, (hl)
	ld	a, (de)
	ldhl	sp,	#0
	ld	(hl), a
	inc	de
	inc	de
	ld	a, (de)
;c:/gbdk/include/gb/gb.h:1675: OAM_item_t * itm = &shadow_OAM[nb];
	ld	l, a
;	spillPairReg hl
;	spillPairReg hl
	ld	h, #0x00
;	spillPairReg hl
;	spillPairReg hl
	add	hl, hl
	add	hl, hl
	ld	de, #_shadow_OAM
	add	hl, de
;c:/gbdk/include/gb/gb.h:1676: itm->y=y, itm->x=x;
	ld	a, c
	ld	(hl+), a
	ld	c, l
	ld	b, h
	ldhl	sp,	#0
	ld	a, (hl)
	ld	(bc), a
;src/player.c:78: playerMovement();
	call	_playerMovement
;src/player.c:79: bulletUpdate();
	inc	sp
	jp	_bulletUpdate
;src/player.c:80: }
	inc	sp
	ret
;src/enemy.c:11: void moveEnemy(struct Enemy * m)		{ move_sprite( m-> id , m -> x , m -> y); }
;	---------------------------------
; Function moveEnemy
; ---------------------------------
_moveEnemy::
	ld	l, e
;	spillPairReg hl
;	spillPairReg hl
	ld	h, d
;	spillPairReg hl
;	spillPairReg hl
	inc	hl
	inc	hl
	ld	b, (hl)
	ld	a, (de)
	ld	c, a
	ld	hl, #0x0004
	add	hl, de
;c:/gbdk/include/gb/gb.h:1675: OAM_item_t * itm = &shadow_OAM[nb];
	ld	l, (hl)
;	spillPairReg hl
;	spillPairReg hl
	ld	h, #0x00
;	spillPairReg hl
;	spillPairReg hl
	add	hl, hl
	add	hl, hl
	ld	de, #_shadow_OAM
	add	hl, de
;c:/gbdk/include/gb/gb.h:1676: itm->y=y, itm->x=x;
	ld	a, b
	ld	(hl+), a
	ld	(hl), c
;src/enemy.c:11: void moveEnemy(struct Enemy * m)		{ move_sprite( m-> id , m -> x , m -> y); }
	ret
;src/enemy.c:12: void activateEnemy(struct Enemy * m)	{ m -> active = 1; }
;	---------------------------------
; Function activateEnemy
; ---------------------------------
_activateEnemy::
	ld	hl, #0x0006
	add	hl, de
	ld	(hl), #0x01
	ret
;src/enemy.c:13: void deactivateEnemy(struct Enemy * m)	{ m -> active = 0; }
;	---------------------------------
; Function deactivateEnemy
; ---------------------------------
_deactivateEnemy::
	ld	hl, #0x0006
	add	hl, de
	ld	(hl), #0x00
	ret
;src/enemy.c:15: void goToNode(struct Enemy * m, struct Node * n) {
;	---------------------------------
; Function goToNode
; ---------------------------------
_goToNode::
	ld	l, e
;	spillPairReg hl
;	spillPairReg hl
	ld	h, d
;	spillPairReg hl
;	spillPairReg hl
;src/enemy.c:16: if ( m -> x > n -> x) { m -> x --; }    // If monster x > node x. Mode left.
	ld	e, (hl)
	ld	a, (bc)
	sub	a, e
	jr	NC, 00102$
	dec	e
	ld	(hl), e
00102$:
	ld	e, (hl)
;src/enemy.c:17: if ( m -> x < n -> x) { m -> x ++; }    // If monster x < ndoe x. Move right.
	ld	a, (bc)
	ld	d, a
	ld	a, e
	sub	a, d
	jr	NC, 00104$
	inc	e
	ld	(hl), e
00104$:
;src/enemy.c:18: if ( m -> y > n -> y) { m -> y --; }    // If monster y > node y. Move up.
	inc	hl
	inc	hl
	ld	e, (hl)
	inc	bc
	ld	a, (bc)
	sub	a, e
	jr	NC, 00106$
	dec	e
	ld	(hl), e
00106$:
	ld	e, (hl)
;src/enemy.c:19: if ( m -> y < n -> y) { m -> y ++; }    // If monster y < node y. Move down.
	ld	a, (bc)
	ld	c, a
	ld	a, e
	sub	a, c
	ret	NC
	inc	e
	ld	(hl), e
;src/enemy.c:20: }
	ret
;src/enemy.c:22: void enemyInit(struct Enemy * m, uint8_t id, uint8_t x, uint8_t y, uint8_t sprite) {
;	---------------------------------
; Function enemyInit
; ---------------------------------
_enemyInit::
	dec	sp
	ldhl	sp,	#0
	ld	(hl), a
;src/enemy.c:23: m -> active 		=	1;
	ld	hl, #0x0006
	add	hl, de
	ld	(hl), #0x01
;src/enemy.c:24: m -> x      		=	x;
	ldhl	sp,	#3
	ld	a, (hl)
	ld	(de), a
;src/enemy.c:25: m -> startx 		=	x;
	ld	c, e
	ld	b, d
	inc	bc
;src/enemy.c:26: m -> y      		=	y;
	ld	a, (hl+)
	ld	(bc), a
	ld	c, e
	ld	b, d
	inc	bc
	inc	bc
	ld	a, (hl)
	ld	(bc), a
;src/enemy.c:27: m -> starty 		=	y;
	ld	c, e
	ld	b, d
	inc	bc
	inc	bc
	inc	bc
	ld	a, (hl)
	ld	(bc), a
;src/enemy.c:28: m -> id     		=	id;
	ld	hl, #0x0004
	add	hl, de
	ld	c, l
	ld	b, h
	ldhl	sp,	#0
	ld	a, (hl)
	ld	(bc), a
;src/enemy.c:29: m -> currentNode 	= 	0;
	ld	hl, #0x0005
	add	hl, de
	ld	(hl), #0x00
;src/enemy.c:30: set_sprite_tile(m -> id , sprite);
	ldhl	sp,	#5
	ld	c, (hl)
;c:/gbdk/include/gb/gb.h:1602: shadow_OAM[nb].tile=tile;
	ld	de, #_shadow_OAM+0
	ldhl	sp,	#0
	ld	a, (hl)
	ld	b, #0x00
	ld	l, a
	ld	h, b
	add	hl, hl
	add	hl, hl
	add	hl, de
	inc	hl
	inc	hl
	ld	(hl), c
;src/enemy.c:30: set_sprite_tile(m -> id , sprite);
;src/enemy.c:31: }
	inc	sp
	pop	hl
	add	sp, #3
	jp	(hl)
;src/enemy.c:33: void enemyUpdate(struct Enemy * m) {
;	---------------------------------
; Function enemyUpdate
; ---------------------------------
_enemyUpdate::
	add	sp, #-14
	ldhl	sp,	#12
	ld	a, e
	ld	(hl+), a
;src/enemy.c:34: if ( m -> active) { 
	ld	a, d
	ld	(hl-), a
	ld	a, (hl+)
	ld	e, a
	ld	d, (hl)
	ld	hl, #0x0006
	add	hl, de
	inc	sp
	inc	sp
	ld	e, l
	ld	d, h
	push	de
	ld	a, (de)
	ldhl	sp,	#11
;src/enemy.c:36: if ( m -> x == m -> node[ m -> currentNode ].x && m -> y == m -> node [ m -> currentNode ].y) { m -> currentNode ++; }
	ld	(hl+), a
	ld	a, (hl+)
	ld	e, a
	ld	d, (hl)
	ld	hl, #0x0002
	add	hl, de
	push	hl
	ld	a, l
	ldhl	sp,	#4
	ld	(hl), a
	pop	hl
	ld	a, h
	ldhl	sp,	#3
	ld	(hl), a
;src/enemy.c:34: if ( m -> active) { 
	ldhl	sp,	#11
	ld	a, (hl)
	or	a, a
	jp	Z, 00107$
;src/enemy.c:35: moveEnemy(m);
	inc	hl
	ld	a, (hl+)
	ld	e, a
	ld	d, (hl)
	call	_moveEnemy
;src/enemy.c:36: if ( m -> x == m -> node[ m -> currentNode ].x && m -> y == m -> node [ m -> currentNode ].y) { m -> currentNode ++; }
	ldhl	sp,#12
	ld	a, (hl+)
	ld	e, a
	ld	d, (hl)
	ld	a, (de)
	ldhl	sp,	#4
	ld	(hl), a
	ldhl	sp,#12
	ld	a, (hl+)
	ld	e, a
	ld	d, (hl)
	ld	hl, #0x0007
	add	hl, de
	push	hl
	ld	a, l
	ldhl	sp,	#7
	ld	(hl), a
	pop	hl
	ld	a, h
	ldhl	sp,	#6
	ld	(hl), a
	ldhl	sp,#12
	ld	a, (hl+)
	ld	e, a
	ld	d, (hl)
	ld	hl, #0x0005
	add	hl, de
	push	hl
	ld	a, l
	ldhl	sp,	#9
	ld	(hl), a
	pop	hl
	ld	a, h
	ldhl	sp,	#8
	ld	(hl-), a
	ld	a, (hl+)
	ld	e, a
	ld	a, (hl+)
	ld	d, a
	ld	a, (de)
	ld	(hl+), a
	inc	hl
	add	a, a
	ld	(hl), a
	ld	e, (hl)
	ld	d, #0x00
	ldhl	sp,	#5
	ld	a,	(hl+)
	ld	h, (hl)
	ld	l, a
	add	hl, de
	push	hl
	ld	a, l
	ldhl	sp,	#12
	ld	(hl), a
	pop	hl
	ld	a, h
	ldhl	sp,	#11
	ld	(hl-), a
	ld	a, (hl+)
	ld	e, a
	ld	d, (hl)
	ld	a, (de)
	ld	c, a
	ldhl	sp,	#4
	ld	a, (hl)
	sub	a, c
	jr	NZ, 00102$
	ldhl	sp,#2
	ld	a, (hl+)
	ld	e, a
	ld	d, (hl)
	ld	a, (de)
	ldhl	sp,	#10
	ld	e, (hl)
	inc	hl
	ld	h, (hl)
;	spillPairReg hl
;	spillPairReg hl
	ld	l, e
;	spillPairReg hl
;	spillPairReg hl
	inc	hl
	ld	c, (hl)
	sub	a, c
	jr	NZ, 00102$
	ldhl	sp,	#9
	ld	a, (hl-)
	ld	c, a
	inc	c
	ld	a, (hl-)
	ld	l, (hl)
	ld	h, a
	ld	(hl), c
00102$:
;src/enemy.c:37: goToNode (m, & m -> node[m -> currentNode]);
	ldhl	sp,#7
	ld	a, (hl+)
	ld	e, a
	ld	d, (hl)
	ld	a, (de)
	add	a, a
	ld	e, a
	ld	d, #0x00
	ldhl	sp,	#5
	ld	a,	(hl+)
	ld	h, (hl)
	ld	l, a
	add	hl, de
	ld	c, l
	ld	b, h
	ldhl	sp,	#12
	ld	a, (hl+)
	ld	e, a
	ld	d, (hl)
	call	_goToNode
;src/enemy.c:38: if (m -> currentNode == 4) { m -> active = 0; }
	ldhl	sp,#7
	ld	a, (hl+)
	ld	e, a
	ld	d, (hl)
	ld	a, (de)
	sub	a, #0x04
	jr	NZ, 00107$
	pop	hl
	ld	(hl), #0x00
	push	hl
00107$:
;src/enemy.c:41: if ( m -> active == 0 ) {
	pop	de
	push	de
	ld	a, (de)
	or	a, a
	jr	NZ, 00110$
;src/enemy.c:42: m -> x = 0;
	ldhl	sp,	#12
	ld	a,	(hl+)
	ld	h, (hl)
	ld	l, a
	ld	(hl), #0x00
;src/enemy.c:43: m -> y = 0;
	ldhl	sp,	#2
	ld	a,	(hl+)
	ld	h, (hl)
	ld	l, a
	ld	(hl), #0x00
;src/enemy.c:44: moveEnemy(m);
	ldhl	sp,	#12
	ld	a, (hl+)
	ld	e, a
	ld	d, (hl)
	call	_moveEnemy
00110$:
;src/enemy.c:46: }
	add	sp, #14
	ret
;src/enemy.c:48: void squarePattern(struct Enemy * m, uint8_t distance) {	
;	---------------------------------
; Function squarePattern
; ---------------------------------
_squarePattern::
	add	sp, #-9
	ldhl	sp,	#7
	ld	(hl), e
	inc	hl
	ld	(hl), d
	dec	hl
	dec	hl
;src/enemy.c:49: m -> node[0].x = m -> startx;                   m -> node[0].y = m -> starty;                   // Start
	ld	(hl+), a
	ld	a, (hl+)
	ld	e, a
	ld	d, (hl)
	ld	hl, #0x0007
	add	hl, de
	ld	e, l
	ld	d, h
	ldhl	sp,	#7
	ld	a, (hl+)
	ld	c, a
	ld	b, (hl)
	inc	bc
	ld	a, (bc)
	ldhl	sp,	#5
	ld	(hl+), a
	inc	hl
	ld	(de), a
	ld	c, e
	ld	b, d
	inc	bc
	ld	a, (hl+)
	ld	h, (hl)
;	spillPairReg hl
;	spillPairReg hl
	ld	l, a
;	spillPairReg hl
;	spillPairReg hl
	inc	hl
	inc	hl
	inc	hl
	ld	a, (hl)
	ld	(bc), a
;src/enemy.c:50: m -> node[1].x = m -> node[0].x -= distance;    m -> node[1].y = m -> node[0].y;                // Move Left
	ld	c, e
	ld	b, d
	inc	bc
	inc	bc
	ldhl	sp,	#5
	ld	a, (hl+)
	sub	a, (hl)
	inc	hl
	ld	(de), a
	ld	(bc), a
	ld	a, (hl+)
	ld	e, a
	ld	d, (hl)
	ld	hl, #0x0007
	add	hl, de
	inc	sp
	inc	sp
	ld	e, l
	ld	d, h
	push	de
	inc	de
	inc	de
	pop	bc
	push	bc
	inc	bc
	inc	bc
	inc	bc
	pop	hl
	push	hl
	inc	hl
	ld	a, (hl)
	ldhl	sp,#5
	ld	(hl), a
	ld	(bc), a
;src/enemy.c:51: m -> node[2].x = m -> node[1].x;                m -> node[2].y = m -> node[1].y += distance;    // Move Down
	push	de
	ldhl	sp,#2
	ld	a, (hl+)
	ld	e, a
	ld	d, (hl)
	ld	hl, #0x0004
	add	hl, de
	pop	de
	push	hl
	ld	a, l
	ldhl	sp,	#4
	ld	(hl), a
	pop	hl
	ld	a, h
	ldhl	sp,	#3
	ld	(hl+), a
	ld	a, (de)
	ld	(hl-), a
	dec	hl
	ld	a, (hl+)
	ld	e, a
	ld	a, (hl+)
	ld	d, a
	ld	a, (hl)
	ld	(de), a
	pop	de
	push	de
	ld	hl, #0x0005
	add	hl, de
	ld	e, l
	ld	d, h
	ldhl	sp,	#5
	ld	a, (hl+)
	add	a, (hl)
	dec	hl
	ld	(hl), a
	ld	(bc), a
	ld	(de), a
;src/enemy.c:52: m -> node[3].x = m -> node[2].x += distance;    m -> node[3].y = m -> node[2].y;                // Move Right
	pop	de
	push	de
	ld	hl, #0x0006
	add	hl, de
	ld	c, l
	ld	b, h
	ldhl	sp,	#4
	ld	a, (hl+)
	inc	hl
	add	a, (hl)
	ldhl	sp,	#2
	push	af
	ld	a,	(hl+)
	ld	h, (hl)
	ld	l, a
	pop	af
	ld	(hl), a
	ld	(bc), a
	pop	de
	push	de
	ld	hl, #0x0007
	add	hl, de
	ld	c, l
	ld	b, h
	ldhl	sp,	#5
	ld	a, (hl)
	ld	(bc), a
;src/enemy.c:53: }
	add	sp, #9
	ret
;src/enemy.c:55: void squarePatternR(struct Enemy * m, uint8_t distance) {	
;	---------------------------------
; Function squarePatternR
; ---------------------------------
_squarePatternR::
	add	sp, #-9
	ldhl	sp,	#7
	ld	(hl), e
	inc	hl
	ld	(hl), d
	dec	hl
	dec	hl
;src/enemy.c:56: m -> node[0].x = m -> startx;                   m -> node[0].y = m -> starty;                   // Start
	ld	(hl+), a
	ld	a, (hl+)
	ld	e, a
	ld	d, (hl)
	ld	hl, #0x0007
	add	hl, de
	ld	e, l
	ld	d, h
	ldhl	sp,	#7
	ld	a, (hl+)
	ld	c, a
	ld	b, (hl)
	inc	bc
	ld	a, (bc)
	ldhl	sp,	#5
	ld	(hl+), a
	inc	hl
	ld	(de), a
	ld	c, e
	ld	b, d
	inc	bc
	ld	a, (hl+)
	ld	h, (hl)
;	spillPairReg hl
;	spillPairReg hl
	ld	l, a
;	spillPairReg hl
;	spillPairReg hl
	inc	hl
	inc	hl
	inc	hl
	ld	a, (hl)
	ld	(bc), a
;src/enemy.c:57: m -> node[1].x = m -> node[0].x -= distance;    m -> node[1].y = m -> node[0].y;                // Move Left
	ld	c, e
	ld	b, d
	inc	bc
	inc	bc
	ldhl	sp,	#5
	ld	a, (hl+)
	sub	a, (hl)
	inc	hl
	ld	(de), a
	ld	(bc), a
	ld	a, (hl+)
	ld	e, a
	ld	d, (hl)
	ld	hl, #0x0007
	add	hl, de
	inc	sp
	inc	sp
	ld	e, l
	ld	d, h
	push	de
	inc	de
	inc	de
	pop	bc
	push	bc
	inc	bc
	inc	bc
	inc	bc
	pop	hl
	push	hl
	inc	hl
	ld	a, (hl)
	ldhl	sp,#5
	ld	(hl), a
	ld	(bc), a
;src/enemy.c:58: m -> node[2].x = m -> node[1].x;                m -> node[2].y = m -> node[1].y -= distance;    // Move Up
	push	de
	ldhl	sp,#2
	ld	a, (hl+)
	ld	e, a
	ld	d, (hl)
	ld	hl, #0x0004
	add	hl, de
	pop	de
	push	hl
	ld	a, l
	ldhl	sp,	#4
	ld	(hl), a
	pop	hl
	ld	a, h
	ldhl	sp,	#3
	ld	(hl+), a
	ld	a, (de)
	ld	(hl-), a
	dec	hl
	ld	a, (hl+)
	ld	e, a
	ld	a, (hl+)
	ld	d, a
	ld	a, (hl)
	ld	(de), a
	pop	de
	push	de
	ld	hl, #0x0005
	add	hl, de
	ld	e, l
	ld	d, h
	ldhl	sp,	#5
	ld	a, (hl+)
	sub	a, (hl)
	dec	hl
	ld	(hl), a
	ld	(bc), a
	ld	(de), a
;src/enemy.c:59: m -> node[3].x = m -> node[2].x += distance;    m -> node[3].y = m -> node[2].y;                // Move Right
	pop	de
	push	de
	ld	hl, #0x0006
	add	hl, de
	ld	c, l
	ld	b, h
	ldhl	sp,	#4
	ld	a, (hl+)
	inc	hl
	add	a, (hl)
	ldhl	sp,	#2
	push	af
	ld	a,	(hl+)
	ld	h, (hl)
	ld	l, a
	pop	af
	ld	(hl), a
	ld	(bc), a
	pop	de
	push	de
	ld	hl, #0x0007
	add	hl, de
	ld	c, l
	ld	b, h
	ldhl	sp,	#5
	ld	a, (hl)
	ld	(bc), a
;src/enemy.c:60: }
	add	sp, #9
	ret
;src/stage_controller.c:7: void frameController() { frame++; if (frame == 60) { seconds++; frame = 0; } }
;	---------------------------------
; Function frameController
; ---------------------------------
_frameController::
	ld	hl, #_frame
	inc	(hl)
	ld	a, (hl)
	sub	a, #0x3c
	ret	NZ
	ld	hl, #_seconds
	inc	(hl)
	ld	hl, #_frame
	ld	(hl), #0x00
	ret
;src/stage_controller.c:9: void level() {
;	---------------------------------
; Function level
; ---------------------------------
_level::
;src/stage_controller.c:10: playerUpdate();
	call	_playerUpdate
;src/stage_controller.c:11: enemyUpdate(&skulls[0]);
	ld	de, #_skulls
	call	_enemyUpdate
;src/stage_controller.c:12: enemyUpdate(&skulls[1]);
	ld	de, #(_skulls + 15)
	call	_enemyUpdate
;src/stage_controller.c:13: enemyUpdate(&skulls[2]);
	ld	de, #(_skulls + 30)
	call	_enemyUpdate
;src/stage_controller.c:14: enemyUpdate(&skulls[3]);
	ld	de, #(_skulls + 45)
	call	_enemyUpdate
;src/stage_controller.c:15: enemyUpdate(&skulls[4]);
	ld	de, #(_skulls + 60)
	call	_enemyUpdate
;src/stage_controller.c:18: frameController();
	call	_frameController
;src/stage_controller.c:21: if (seconds ==  2 && frame ==  0) { enemyInit(&skulls[0], 10, 170,  50, SKULL_SPRITE_TILE);  squarePattern(&skulls[0], 60); }
	ld	a, (#_seconds)
	sub	a, #0x02
	jr	NZ, 00102$
	ld	a, (#_frame)
	or	a, a
	jr	NZ, 00102$
	ld	hl, #0x332
	push	hl
	ld	a, #0xaa
	push	af
	inc	sp
	ld	a, #0x0a
	ld	de, #_skulls
	call	_enemyInit
	ld	a, #0x3c
	ld	de, #_skulls
	call	_squarePattern
00102$:
;src/stage_controller.c:22: if (seconds ==  2 && frame == 20) { enemyInit(&skulls[1], 11, 170,  50, SKULL_SPRITE_TILE);  squarePattern(&skulls[1], 60); }
	ld	a, (#_seconds)
	sub	a, #0x02
	jr	NZ, 00105$
	ld	a, (#_frame)
	sub	a, #0x14
	jr	NZ, 00105$
	ld	hl, #0x332
	push	hl
	ld	a, #0xaa
	push	af
	inc	sp
	ld	a, #0x0b
	ld	de, #(_skulls + 15)
	call	_enemyInit
	ld	a, #0x3c
	ld	de, #(_skulls + 15)
	call	_squarePattern
00105$:
;src/stage_controller.c:23: if (seconds ==  2 && frame == 40) {	enemyInit(&skulls[2], 12, 170,  50, SKULL_SPRITE_TILE);  squarePattern(&skulls[2], 60); }
	ld	a, (#_seconds)
	sub	a, #0x02
	jr	NZ, 00108$
	ld	a, (#_frame)
	sub	a, #0x28
	jr	NZ, 00108$
	ld	hl, #0x332
	push	hl
	ld	a, #0xaa
	push	af
	inc	sp
	ld	a, #0x0c
	ld	de, #(_skulls + 30)
	call	_enemyInit
	ld	a, #0x3c
	ld	de, #(_skulls + 30)
	call	_squarePattern
00108$:
;src/stage_controller.c:24: if (seconds ==  3 && frame ==  0) { enemyInit(&skulls[3], 13, 170,  50, SKULL_SPRITE_TILE);  squarePattern(&skulls[3], 60); }
	ld	a, (#_seconds)
	sub	a, #0x03
	jr	NZ, 00111$
	ld	a, (#_frame)
	or	a, a
	jr	NZ, 00111$
	ld	hl, #0x332
	push	hl
	ld	a, #0xaa
	push	af
	inc	sp
	ld	a, #0x0d
	ld	de, #(_skulls + 45)
	call	_enemyInit
	ld	a, #0x3c
	ld	de, #(_skulls + 45)
	call	_squarePattern
00111$:
;src/stage_controller.c:25: if (seconds ==  3 && frame == 20) { enemyInit(&skulls[4], 14, 170,  50, SKULL_SPRITE_TILE);  squarePattern(&skulls[4], 60); }
	ld	a, (#_seconds)
	sub	a, #0x03
	jr	NZ, 00114$
	ld	a, (#_frame)
	sub	a, #0x14
	jr	NZ, 00114$
	ld	hl, #0x332
	push	hl
	ld	a, #0xaa
	push	af
	inc	sp
	ld	a, #0x0e
	ld	de, #(_skulls + 60)
	call	_enemyInit
	ld	a, #0x3c
	ld	de, #(_skulls + 60)
	call	_squarePattern
00114$:
;src/stage_controller.c:42: if (seconds == 20) { seconds = 0; }
	ld	a, (#_seconds)
	sub	a, #0x14
	ret	NZ
	ld	hl, #_seconds
	ld	(hl), #0x00
;src/stage_controller.c:43: }
	ret
;src/score.c:9: void scoreDisplay(uint8_t s, uint8_t id, uint8_t x) { 
;	---------------------------------
; Function scoreDisplay
; ---------------------------------
_scoreDisplay::
;src/score.c:10: if (s == 0) { set_sprite_tile(id,100); }
	ld	d, a
	or	a, a
	jr	NZ, 00102$
;c:/gbdk/include/gb/gb.h:1602: shadow_OAM[nb].tile=tile;
	ld	bc, #_shadow_OAM+0
	ld	l, e
;	spillPairReg hl
;	spillPairReg hl
	ld	h, #0x00
;	spillPairReg hl
;	spillPairReg hl
	add	hl, hl
	add	hl, hl
	add	hl, bc
	inc	hl
	inc	hl
	ld	(hl), #0x64
;src/score.c:10: if (s == 0) { set_sprite_tile(id,100); }
00102$:
;src/score.c:11: if (s == 1) { set_sprite_tile(id,101); }
	ld	a, d
	dec	a
	jr	NZ, 00104$
;c:/gbdk/include/gb/gb.h:1602: shadow_OAM[nb].tile=tile;
	ld	bc, #_shadow_OAM+0
	ld	l, e
;	spillPairReg hl
;	spillPairReg hl
	ld	h, #0x00
;	spillPairReg hl
;	spillPairReg hl
	add	hl, hl
	add	hl, hl
	add	hl, bc
	inc	hl
	inc	hl
	ld	(hl), #0x65
;src/score.c:11: if (s == 1) { set_sprite_tile(id,101); }
00104$:
;src/score.c:12: if (s == 2) { set_sprite_tile(id,102); }
	ld	a, d
	sub	a, #0x02
	jr	NZ, 00106$
;c:/gbdk/include/gb/gb.h:1602: shadow_OAM[nb].tile=tile;
	ld	bc, #_shadow_OAM+0
	ld	l, e
;	spillPairReg hl
;	spillPairReg hl
	ld	h, #0x00
;	spillPairReg hl
;	spillPairReg hl
	add	hl, hl
	add	hl, hl
	add	hl, bc
	inc	hl
	inc	hl
	ld	(hl), #0x66
;src/score.c:12: if (s == 2) { set_sprite_tile(id,102); }
00106$:
;src/score.c:13: if (s == 3) { set_sprite_tile(id,103); }
	ld	a, d
	sub	a, #0x03
	jr	NZ, 00108$
;c:/gbdk/include/gb/gb.h:1602: shadow_OAM[nb].tile=tile;
	ld	bc, #_shadow_OAM+0
	ld	l, e
;	spillPairReg hl
;	spillPairReg hl
	ld	h, #0x00
;	spillPairReg hl
;	spillPairReg hl
	add	hl, hl
	add	hl, hl
	add	hl, bc
	inc	hl
	inc	hl
	ld	(hl), #0x67
;src/score.c:13: if (s == 3) { set_sprite_tile(id,103); }
00108$:
;src/score.c:14: if (s == 4) { set_sprite_tile(id,104); }
	ld	a, d
	sub	a, #0x04
	jr	NZ, 00110$
;c:/gbdk/include/gb/gb.h:1602: shadow_OAM[nb].tile=tile;
	ld	bc, #_shadow_OAM+0
	ld	l, e
;	spillPairReg hl
;	spillPairReg hl
	ld	h, #0x00
;	spillPairReg hl
;	spillPairReg hl
	add	hl, hl
	add	hl, hl
	add	hl, bc
	inc	hl
	inc	hl
	ld	(hl), #0x68
;src/score.c:14: if (s == 4) { set_sprite_tile(id,104); }
00110$:
;src/score.c:15: if (s == 5) { set_sprite_tile(id,105); }
	ld	a, d
	sub	a, #0x05
	jr	NZ, 00112$
;c:/gbdk/include/gb/gb.h:1602: shadow_OAM[nb].tile=tile;
	ld	bc, #_shadow_OAM+0
	ld	l, e
;	spillPairReg hl
;	spillPairReg hl
	ld	h, #0x00
;	spillPairReg hl
;	spillPairReg hl
	add	hl, hl
	add	hl, hl
	add	hl, bc
	inc	hl
	inc	hl
	ld	(hl), #0x69
;src/score.c:15: if (s == 5) { set_sprite_tile(id,105); }
00112$:
;src/score.c:16: if (s == 6) { set_sprite_tile(id,106); }
	ld	a, d
	sub	a, #0x06
	jr	NZ, 00114$
;c:/gbdk/include/gb/gb.h:1602: shadow_OAM[nb].tile=tile;
	ld	bc, #_shadow_OAM+0
	ld	l, e
;	spillPairReg hl
;	spillPairReg hl
	ld	h, #0x00
;	spillPairReg hl
;	spillPairReg hl
	add	hl, hl
	add	hl, hl
	add	hl, bc
	inc	hl
	inc	hl
	ld	(hl), #0x6a
;src/score.c:16: if (s == 6) { set_sprite_tile(id,106); }
00114$:
;src/score.c:17: if (s == 7) { set_sprite_tile(id,107); }
	ld	a, d
	sub	a, #0x07
	jr	NZ, 00116$
;c:/gbdk/include/gb/gb.h:1602: shadow_OAM[nb].tile=tile;
	ld	bc, #_shadow_OAM+0
	ld	l, e
;	spillPairReg hl
;	spillPairReg hl
	ld	h, #0x00
;	spillPairReg hl
;	spillPairReg hl
	add	hl, hl
	add	hl, hl
	add	hl, bc
	inc	hl
	inc	hl
	ld	(hl), #0x6b
;src/score.c:17: if (s == 7) { set_sprite_tile(id,107); }
00116$:
;src/score.c:18: if (s == 8) { set_sprite_tile(id,108); }
	ld	a, d
	sub	a, #0x08
	jr	NZ, 00118$
;c:/gbdk/include/gb/gb.h:1602: shadow_OAM[nb].tile=tile;
	ld	bc, #_shadow_OAM+0
	ld	l, e
;	spillPairReg hl
;	spillPairReg hl
	ld	h, #0x00
;	spillPairReg hl
;	spillPairReg hl
	add	hl, hl
	add	hl, hl
	add	hl, bc
	inc	hl
	inc	hl
	ld	(hl), #0x6c
;src/score.c:18: if (s == 8) { set_sprite_tile(id,108); }
00118$:
;src/score.c:19: if (s == 9) { set_sprite_tile(id,109); }
	ld	a, d
	sub	a, #0x09
	jr	NZ, 00120$
;c:/gbdk/include/gb/gb.h:1602: shadow_OAM[nb].tile=tile;
	ld	bc, #_shadow_OAM+0
	ld	l, e
;	spillPairReg hl
;	spillPairReg hl
	ld	h, #0x00
;	spillPairReg hl
;	spillPairReg hl
	add	hl, hl
	add	hl, hl
	add	hl, bc
	inc	hl
	inc	hl
	ld	(hl), #0x6d
;src/score.c:19: if (s == 9) { set_sprite_tile(id,109); }
00120$:
;src/score.c:20: move_sprite(id,x,152);
	ldhl	sp,	#2
	ld	c, (hl)
;c:/gbdk/include/gb/gb.h:1675: OAM_item_t * itm = &shadow_OAM[nb];
	ld	l, e
;	spillPairReg hl
;	spillPairReg hl
	ld	h, #0x00
;	spillPairReg hl
;	spillPairReg hl
	add	hl, hl
	add	hl, hl
	ld	de, #_shadow_OAM
	add	hl, de
;c:/gbdk/include/gb/gb.h:1676: itm->y=y, itm->x=x;
	ld	(hl), #0x98
	inc	hl
	ld	(hl), c
;src/score.c:20: move_sprite(id,x,152);
;src/score.c:21: }
	pop	hl
	inc	sp
	jp	(hl)
;src/score.c:23: void scoreUpdate() {
;	---------------------------------
; Function scoreUpdate
; ---------------------------------
_scoreUpdate::
;src/score.c:24: scoreDisplay(score10000, 30,  8);
	ld	a, #0x08
	push	af
	inc	sp
	ld	e, #0x1e
	ld	a, (#_score10000)
	call	_scoreDisplay
;src/score.c:25: scoreDisplay(score1000,  31, 16);
	ld	a, #0x10
	push	af
	inc	sp
	ld	e, #0x1f
	ld	a, (#_score1000)
	call	_scoreDisplay
;src/score.c:26: scoreDisplay(score100,   32, 24);
	ld	a, #0x18
	push	af
	inc	sp
	ld	e, #0x20
	ld	a, (#_score100)
	call	_scoreDisplay
;src/score.c:27: scoreDisplay(score10,    33, 32);
	ld	a, #0x20
	push	af
	inc	sp
	ld	e, #0x21
	ld	a, (#_score10)
	call	_scoreDisplay
;src/score.c:28: scoreDisplay(score1,     34, 40);
	ld	a, #0x28
	push	af
	inc	sp
	ld	e, #0x22
	ld	a, (#_score1)
	call	_scoreDisplay
;c:/gbdk/include/gb/gb.h:1602: shadow_OAM[nb].tile=tile;
	ld	hl, #(_shadow_OAM + 142)
	ld	(hl), #0x64
;c:/gbdk/include/gb/gb.h:1675: OAM_item_t * itm = &shadow_OAM[nb];
	ld	hl, #(_shadow_OAM + 140)
;c:/gbdk/include/gb/gb.h:1676: itm->y=y, itm->x=x;
	ld	a, #0x98
	ld	(hl+), a
	ld	(hl), #0x30
;src/score.c:31: if (score1 >= 10) { score10 ++; score1 -= 10;}
	ld	a, (#_score1)
	sub	a, #0x0a
	ret	C
	ld	hl, #_score10
	inc	(hl)
	ld	hl, #_score1
	ld	a, (hl)
	add	a, #0xf6
	ld	(hl), a
;src/score.c:32: }
	ret
;src/score.c:34: void scoreInit() {
;	---------------------------------
; Function scoreInit
; ---------------------------------
_scoreInit::
;src/score.c:35: score10000 = 0;
	ld	hl, #_score10000
	ld	(hl), #0x00
;src/score.c:36: score1000 = 0;
	ld	hl, #_score1000
	ld	(hl), #0x00
;src/score.c:37: score100 = 0;
	ld	hl, #_score100
	ld	(hl), #0x00
;src/score.c:38: score10 = 0;
	ld	hl, #_score10
	ld	(hl), #0x00
;src/score.c:39: score1 = 0;
	ld	hl, #_score1
	ld	(hl), #0x00
;src/score.c:40: }
	ret
;src/game.c:3: uint8_t game() {
;	---------------------------------
; Function game
; ---------------------------------
_game::
;src/game.c:10: scoreInit();
	call	_scoreInit
;src/game.c:11: playerInit();
	call	_playerInit
;src/game.c:13: while(currentlevel = 1) {
00101$:
;src/game.c:14: scoreUpdate();
	call	_scoreUpdate
;src/game.c:15: level();
	call	_level
;src/game.c:17: scoreUpdate();
	call	_scoreUpdate
;src/game.c:18: wait_vbl_done();
	call	_wait_vbl_done
;src/game.c:20: }
	jr	00101$
;src/main.c:10: void startup() {
;	---------------------------------
; Function startup
; ---------------------------------
_startup::
;src/main.c:11: state = 0;
	ld	hl, #_state
	ld	(hl), #0x00
;src/main.c:12: set_sprite_data ( 0, 128, sprites);
	ld	de, #_sprites
	push	de
	ld	hl, #0x8000
	push	hl
	call	_set_sprite_data
	add	sp, #4
;src/main.c:13: }
	ret
;src/main.c:16: void main() {
;	---------------------------------
; Function main
; ---------------------------------
_main::
;src/main.c:17: SHOW_BKG;
	ldh	a, (_LCDC_REG + 0)
	or	a, #0x01
	ldh	(_LCDC_REG + 0), a
;src/main.c:18: SHOW_SPRITES;
	ldh	a, (_LCDC_REG + 0)
	or	a, #0x02
	ldh	(_LCDC_REG + 0), a
;src/main.c:19: DISPLAY_ON;	
	ldh	a, (_LCDC_REG + 0)
	or	a, #0x80
	ldh	(_LCDC_REG + 0), a
;src/main.c:20: startup();
	call	_startup
;src/main.c:22: if (state == 0) { state = mainMenu(); }
	ld	a, (#_state)
	or	a, a
	jr	NZ, 00102$
	call	_mainMenu
	ld	(#_state),a
00102$:
;src/main.c:25: if (state == 3) { state = game(); }
	ld	a, (#_state)
	sub	a, #0x03
	ret	NZ
	call	_game
	ld	(#_state),a
;src/main.c:27: }
	ret
	.area _CODE
	.area _INITIALIZER
__xinit__titleScreen:
	.db #0x7f	; 127
	.db #0x7f	; 127
	.db #0x7f	; 127
	.db #0x7f	; 127
	.db #0x7f	; 127
	.db #0x7f	; 127
	.db #0x7f	; 127
	.db #0x7f	; 127
	.db #0x7f	; 127
	.db #0x7f	; 127
	.db #0x7f	; 127
	.db #0x7f	; 127
	.db #0x7f	; 127
	.db #0x7f	; 127
	.db #0x7f	; 127
	.db #0x7f	; 127
	.db #0x7f	; 127
	.db #0x7f	; 127
	.db #0x7f	; 127
	.db #0x7f	; 127
	.db #0x7f	; 127
	.db #0x7f	; 127
	.db #0x7f	; 127
	.db #0x7f	; 127
	.db #0x5b	; 91
	.db #0x5a	; 90	'Z'
	.db #0x5a	; 90	'Z'
	.db #0x5a	; 90	'Z'
	.db #0x5a	; 90	'Z'
	.db #0x5a	; 90	'Z'
	.db #0x5a	; 90	'Z'
	.db #0x5a	; 90	'Z'
	.db #0x5a	; 90	'Z'
	.db #0x5a	; 90	'Z'
	.db #0x5a	; 90	'Z'
	.db #0x59	; 89	'Y'
	.db #0x7f	; 127
	.db #0x7f	; 127
	.db #0x7f	; 127
	.db #0x7f	; 127
	.db #0x4d	; 77	'M'
	.db #0x4e	; 78	'N'
	.db #0x4f	; 79	'O'
	.db #0x7f	; 127
	.db #0x7f	; 127
	.db #0x53	; 83	'S'
	.db #0x54	; 84	'T'
	.db #0x54	; 84	'T'
	.db #0x55	; 85	'U'
	.db #0x7f	; 127
	.db #0x7f	; 127
	.db #0x56	; 86	'V'
	.db #0x57	; 87	'W'
	.db #0x56	; 86	'V'
	.db #0x58	; 88	'X'
	.db #0x7f	; 127
	.db #0x7f	; 127
	.db #0x7f	; 127
	.db #0x7f	; 127
	.db #0x7f	; 127
	.db #0x40	; 64
	.db #0x41	; 65	'A'
	.db #0x42	; 66	'B'
	.db #0x7f	; 127
	.db #0x43	; 67	'C'
	.db #0x44	; 68	'D'
	.db #0x45	; 69	'E'
	.db #0x46	; 70	'F'
	.db #0x7f	; 127
	.db #0x7f	; 127
	.db #0x47	; 71	'G'
	.db #0x48	; 72	'H'
	.db #0x7f	; 127
	.db #0x49	; 73	'I'
	.db #0x48	; 72	'H'
	.db #0x7f	; 127
	.db #0x4a	; 74	'J'
	.db #0x4b	; 75	'K'
	.db #0x4c	; 76	'L'
	.db #0x7f	; 127
	.db #0x2c	; 44
	.db #0x2d	; 45
	.db #0x2e	; 46
	.db #0x2f	; 47
	.db #0x30	; 48	'0'
	.db #0x31	; 49	'1'
	.db #0x32	; 50	'2'
	.db #0x33	; 51	'3'
	.db #0x34	; 52	'4'
	.db #0x35	; 53	'5'
	.db #0x36	; 54	'6'
	.db #0x37	; 55	'7'
	.db #0x38	; 56	'8'
	.db #0x39	; 57	'9'
	.db #0x3a	; 58
	.db #0x3b	; 59
	.db #0x3c	; 60
	.db #0x3d	; 61
	.db #0x3e	; 62
	.db #0x3f	; 63
	.db #0x18	; 24
	.db #0x19	; 25
	.db #0x1a	; 26
	.db #0x1b	; 27
	.db #0x1c	; 28
	.db #0x1d	; 29
	.db #0x1e	; 30
	.db #0x1f	; 31
	.db #0x20	; 32
	.db #0x21	; 33
	.db #0x22	; 34
	.db #0x23	; 35
	.db #0x24	; 36
	.db #0x25	; 37
	.db #0x26	; 38
	.db #0x27	; 39
	.db #0x28	; 40
	.db #0x29	; 41
	.db #0x2a	; 42
	.db #0x2b	; 43
	.db #0x04	; 4
	.db #0x05	; 5
	.db #0x06	; 6
	.db #0x07	; 7
	.db #0x08	; 8
	.db #0x09	; 9
	.db #0x0a	; 10
	.db #0x0b	; 11
	.db #0x0c	; 12
	.db #0x0d	; 13
	.db #0x0e	; 14
	.db #0x0f	; 15
	.db #0x10	; 16
	.db #0x11	; 17
	.db #0x12	; 18
	.db #0x13	; 19
	.db #0x14	; 20
	.db #0x15	; 21
	.db #0x16	; 22
	.db #0x17	; 23
	.db #0x00	; 0
	.db #0x01	; 1
	.db #0x51	; 81	'Q'
	.db #0x50	; 80	'P'
	.db #0x50	; 80	'P'
	.db #0x50	; 80	'P'
	.db #0x50	; 80	'P'
	.db #0x50	; 80	'P'
	.db #0x50	; 80	'P'
	.db #0x50	; 80	'P'
	.db #0x50	; 80	'P'
	.db #0x50	; 80	'P'
	.db #0x50	; 80	'P'
	.db #0x50	; 80	'P'
	.db #0x50	; 80	'P'
	.db #0x50	; 80	'P'
	.db #0x50	; 80	'P'
	.db #0x50	; 80	'P'
	.db #0x50	; 80	'P'
	.db #0x52	; 82	'R'
	.db #0x7f	; 127
	.db #0x7f	; 127
	.db #0x7f	; 127
	.db #0x7f	; 127
	.db #0x7f	; 127
	.db #0x7f	; 127
	.db #0x7f	; 127
	.db #0x7f	; 127
	.db #0x7f	; 127
	.db #0x7f	; 127
	.db #0x7f	; 127
	.db #0x7f	; 127
	.db #0x7f	; 127
	.db #0x7f	; 127
	.db #0x7f	; 127
	.db #0x7f	; 127
	.db #0x7f	; 127
	.db #0x7f	; 127
	.db #0x7f	; 127
	.db #0x7f	; 127
	.db #0x7f	; 127
	.db #0x7f	; 127
	.db #0x7f	; 127
	.db #0x7f	; 127
	.db #0x7f	; 127
	.db #0x7f	; 127
	.db #0x7f	; 127
	.db #0x7f	; 127
	.db #0x7f	; 127
	.db #0x7f	; 127
	.db #0x7f	; 127
	.db #0x7f	; 127
	.db #0x7f	; 127
	.db #0x7f	; 127
	.db #0x7f	; 127
	.db #0x7f	; 127
	.db #0x7f	; 127
	.db #0x7f	; 127
	.db #0x7f	; 127
	.db #0x7f	; 127
	.db #0x7f	; 127
	.db #0x7f	; 127
	.db #0x7f	; 127
	.db #0x7f	; 127
	.db #0x7f	; 127
	.db #0x7f	; 127
	.db #0x7f	; 127
	.db #0x7f	; 127
	.db #0x7f	; 127
	.db #0x7f	; 127
	.db #0x7f	; 127
	.db #0x7f	; 127
	.db #0x7f	; 127
	.db #0x7f	; 127
	.db #0x7f	; 127
	.db #0x7f	; 127
	.db #0x7f	; 127
	.db #0x7f	; 127
	.db #0x7f	; 127
	.db #0x7f	; 127
	.db #0x7f	; 127
	.db #0x7f	; 127
	.db #0x7f	; 127
	.db #0x7f	; 127
	.db #0x7f	; 127
	.db #0x7f	; 127
	.db #0x7f	; 127
	.db #0x7f	; 127
	.db #0x7f	; 127
	.db #0x7f	; 127
	.db #0x7f	; 127
	.db #0x7f	; 127
	.db #0x7f	; 127
	.db #0x7f	; 127
	.db #0x7f	; 127
	.db #0x7f	; 127
	.db #0x7f	; 127
	.db #0x7f	; 127
	.db #0x7f	; 127
	.db #0x7f	; 127
	.db #0x7f	; 127
	.db #0x7f	; 127
	.db #0x7f	; 127
	.db #0x7f	; 127
	.db #0x7f	; 127
	.db #0x7f	; 127
	.db #0x7f	; 127
	.db #0x7f	; 127
	.db #0x7f	; 127
	.db #0x7f	; 127
	.db #0x7f	; 127
	.db #0x7f	; 127
	.db #0x7f	; 127
	.db #0x5c	; 92
	.db #0x5d	; 93
	.db #0x5e	; 94
	.db #0x5f	; 95
	.db #0x5d	; 93
	.db #0x7f	; 127
	.db #0x7f	; 127
	.db #0x7f	; 127
	.db #0x7f	; 127
	.db #0x7f	; 127
	.db #0x7f	; 127
	.db #0x7f	; 127
	.db #0x7f	; 127
	.db #0x7f	; 127
	.db #0x7f	; 127
	.db #0x7f	; 127
	.db #0x7f	; 127
	.db #0x7f	; 127
	.db #0x7f	; 127
	.db #0x7f	; 127
	.db #0x7f	; 127
	.db #0x7f	; 127
	.db #0x7f	; 127
	.db #0x7f	; 127
	.db #0x7f	; 127
	.db #0x7f	; 127
	.db #0x7f	; 127
	.db #0x7f	; 127
	.db #0x7f	; 127
	.db #0x7f	; 127
	.db #0x7f	; 127
	.db #0x7f	; 127
	.db #0x7f	; 127
	.db #0x7f	; 127
	.db #0x7f	; 127
	.db #0x7f	; 127
	.db #0x7f	; 127
	.db #0x7f	; 127
	.db #0x7f	; 127
	.db #0x7f	; 127
	.db #0x5c	; 92
	.db #0x64	; 100	'd'
	.db #0x60	; 96
	.db #0x5f	; 95
	.db #0x65	; 101	'e'
	.db #0x7f	; 127
	.db #0x7f	; 127
	.db #0x7f	; 127
	.db #0x7f	; 127
	.db #0x7f	; 127
	.db #0x7f	; 127
	.db #0x7f	; 127
	.db #0x7f	; 127
	.db #0x7f	; 127
	.db #0x7f	; 127
	.db #0x7f	; 127
	.db #0x7f	; 127
	.db #0x7f	; 127
	.db #0x7f	; 127
	.db #0x7f	; 127
	.db #0x7f	; 127
	.db #0x7f	; 127
	.db #0x7f	; 127
	.db #0x7f	; 127
	.db #0x7f	; 127
	.db #0x7f	; 127
	.db #0x7f	; 127
	.db #0x7f	; 127
	.db #0x7f	; 127
	.db #0x7f	; 127
	.db #0x7f	; 127
	.db #0x7f	; 127
	.db #0x7f	; 127
	.db #0x7f	; 127
	.db #0x7f	; 127
	.db #0x7f	; 127
	.db #0x7f	; 127
	.db #0x7f	; 127
	.db #0x7f	; 127
	.db #0x7f	; 127
	.db #0x60	; 96
	.db #0x61	; 97	'a'
	.db #0x5d	; 93
	.db #0x62	; 98	'b'
	.db #0x60	; 96
	.db #0x63	; 99	'c'
	.db #0x5c	; 92
	.db #0x7f	; 127
	.db #0x7f	; 127
	.db #0x7f	; 127
	.db #0x7f	; 127
	.db #0x7f	; 127
	.db #0x7f	; 127
	.db #0x7f	; 127
	.db #0x7f	; 127
	.db #0x7f	; 127
	.db #0x7f	; 127
	.db #0x7f	; 127
	.db #0x7f	; 127
	.db #0x7f	; 127
	.db #0x7f	; 127
	.db #0x7f	; 127
	.db #0x7f	; 127
	.db #0x7f	; 127
	.db #0x7f	; 127
	.db #0x7f	; 127
	.db #0x7f	; 127
__xinit__titleSprites:
	.db #0x00	; 0
	.db #0x80	; 128
	.db #0x80	; 128
	.db #0xe0	; 224
	.db #0x80	; 128
	.db #0xff	; 255
	.db #0x40	; 64
	.db #0x7f	; 127
	.db #0x70	; 112	'p'
	.db #0x7f	; 127
	.db #0x3e	; 62
	.db #0x3f	; 63
	.db #0x0f	; 15
	.db #0x0f	; 15
	.db #0x01	; 1
	.db #0x01	; 1
	.db #0x41	; 65	'A'
	.db #0x43	; 67	'C'
	.db #0x00	; 0
	.db #0x06	; 6
	.db #0x02	; 2
	.db #0xfe	; 254
	.db #0x06	; 6
	.db #0xfe	; 254
	.db #0x0c	; 12
	.db #0xfc	; 252
	.db #0x38	; 56	'8'
	.db #0xf8	; 248
	.db #0xf0	; 240
	.db #0xf0	; 240
	.db #0xc0	; 192
	.db #0xc0	; 192
	.db #0x03	; 3
	.db #0x03	; 3
	.db #0x00	; 0
	.db #0x00	; 0
	.db #0x00	; 0
	.db #0x00	; 0
	.db #0x00	; 0
	.db #0x00	; 0
	.db #0x00	; 0
	.db #0x00	; 0
	.db #0x00	; 0
	.db #0x00	; 0
	.db #0x00	; 0
	.db #0x00	; 0
	.db #0x00	; 0
	.db #0x00	; 0
	.db #0x80	; 128
	.db #0x80	; 128
	.db #0x00	; 0
	.db #0x00	; 0
	.db #0x00	; 0
	.db #0x00	; 0
	.db #0x00	; 0
	.db #0x00	; 0
	.db #0x00	; 0
	.db #0x00	; 0
	.db #0x00	; 0
	.db #0x00	; 0
	.db #0x00	; 0
	.db #0x00	; 0
	.db #0x00	; 0
	.db #0x00	; 0
	.db #0x00	; 0
	.db #0x3f	; 63
	.db #0x00	; 0
	.db #0x7f	; 127
	.db #0x00	; 0
	.db #0x7f	; 127
	.db #0x00	; 0
	.db #0xff	; 255
	.db #0x3e	; 62
	.db #0xff	; 255
	.db #0x7f	; 127
	.db #0xff	; 255
	.db #0x41	; 65	'A'
	.db #0xc1	; 193
	.db #0x00	; 0
	.db #0x80	; 128
	.db #0x00	; 0
	.db #0xfa	; 250
	.db #0x01	; 1
	.db #0xfd	; 253
	.db #0x02	; 2
	.db #0xfa	; 250
	.db #0x04	; 4
	.db #0xfc	; 252
	.db #0x08	; 8
	.db #0xf8	; 248
	.db #0x18	; 24
	.db #0xf8	; 248
	.db #0xb0	; 176
	.db #0xf0	; 240
	.db #0xe0	; 224
	.db #0xe0	; 224
	.db #0x40	; 64
	.db #0x7f	; 127
	.db #0x00	; 0
	.db #0x3f	; 63
	.db #0x00	; 0
	.db #0x3f	; 63
	.db #0x20	; 32
	.db #0x3f	; 63
	.db #0x20	; 32
	.db #0x3f	; 63
	.db #0x10	; 16
	.db #0x1f	; 31
	.db #0x1c	; 28
	.db #0x1f	; 31
	.db #0x0f	; 15
	.db #0x0f	; 15
	.db #0x00	; 0
	.db #0xdb	; 219
	.db #0x08	; 8
	.db #0xff	; 255
	.db #0x13	; 19
	.db #0xff	; 255
	.db #0x17	; 23
	.db #0xf7	; 247
	.db #0x2c	; 44
	.db #0xec	; 236
	.db #0x60	; 96
	.db #0xe0	; 224
	.db #0x40	; 64
	.db #0xc0	; 192
	.db #0x80	; 128
	.db #0x80	; 128
	.db #0x00	; 0
	.db #0xff	; 255
	.db #0x00	; 0
	.db #0xff	; 255
	.db #0x00	; 0
	.db #0xff	; 255
	.db #0xc1	; 193
	.db #0xff	; 255
	.db #0xf1	; 241
	.db #0xff	; 255
	.db #0x3a	; 58
	.db #0x3e	; 62
	.db #0x0e	; 14
	.db #0x0e	; 14
	.db #0x04	; 4
	.db #0x04	; 4
	.db #0x20	; 32
	.db #0xe7	; 231
	.db #0x40	; 64
	.db #0xc7	; 199
	.db #0xc7	; 199
	.db #0xcf	; 207
	.db #0x87	; 135
	.db #0x87	; 135
	.db #0x08	; 8
	.db #0x08	; 8
	.db #0x00	; 0
	.db #0x00	; 0
	.db #0x00	; 0
	.db #0x00	; 0
	.db #0x00	; 0
	.db #0x00	; 0
	.db #0x00	; 0
	.db #0xff	; 255
	.db #0x00	; 0
	.db #0xff	; 255
	.db #0x00	; 0
	.db #0xff	; 255
	.db #0x81	; 129
	.db #0xff	; 255
	.db #0xe3	; 227
	.db #0xff	; 255
	.db #0x7e	; 126
	.db #0x7e	; 126
	.db #0x1c	; 28
	.db #0x1c	; 28
	.db #0x00	; 0
	.db #0x00	; 0
	.db #0x60	; 96
	.db #0xe3	; 227
	.db #0x40	; 64
	.db #0x43	; 67	'C'
	.db #0x80	; 128
	.db #0x87	; 135
	.db #0x03	; 3
	.db #0x0b	; 11
	.db #0x07	; 7
	.db #0x07	; 7
	.db #0x08	; 8
	.db #0x08	; 8
	.db #0x00	; 0
	.db #0x00	; 0
	.db #0x00	; 0
	.db #0x00	; 0
	.db #0x00	; 0
	.db #0xfd	; 253
	.db #0x00	; 0
	.db #0xfe	; 254
	.db #0x01	; 1
	.db #0xfd	; 253
	.db #0x06	; 6
	.db #0xfe	; 254
	.db #0x8c	; 140
	.db #0xfc	; 252
	.db #0xd8	; 216
	.db #0xf8	; 248
	.db #0x70	; 112	'p'
	.db #0x70	; 112	'p'
	.db #0x20	; 32
	.db #0x20	; 32
	.db #0x00	; 0
	.db #0x7f	; 127
	.db #0x80	; 128
	.db #0xff	; 255
	.db #0x00	; 0
	.db #0x7f	; 127
	.db #0x40	; 64
	.db #0x7f	; 127
	.db #0x61	; 97	'a'
	.db #0x7f	; 127
	.db #0x33	; 51	'3'
	.db #0x3f	; 63
	.db #0x1e	; 30
	.db #0x1e	; 30
	.db #0x0c	; 12
	.db #0x0c	; 12
	.db #0x00	; 0
	.db #0x43	; 67	'C'
	.db #0x00	; 0
	.db #0xc7	; 199
	.db #0x43	; 67	'C'
	.db #0xcf	; 207
	.db #0xc7	; 199
	.db #0xc7	; 199
	.db #0x8c	; 140
	.db #0x8c	; 140
	.db #0x00	; 0
	.db #0x00	; 0
	.db #0x00	; 0
	.db #0x00	; 0
	.db #0x00	; 0
	.db #0x00	; 0
	.db #0x00	; 0
	.db #0xff	; 255
	.db #0x00	; 0
	.db #0xff	; 255
	.db #0x00	; 0
	.db #0xff	; 255
	.db #0x81	; 129
	.db #0xff	; 255
	.db #0xe3	; 227
	.db #0xff	; 255
	.db #0x76	; 118	'v'
	.db #0x7e	; 126
	.db #0x1c	; 28
	.db #0x1c	; 28
	.db #0x08	; 8
	.db #0x08	; 8
	.db #0x00	; 0
	.db #0xc7	; 199
	.db #0x60	; 96
	.db #0xe3	; 227
	.db #0xc7	; 199
	.db #0xc7	; 199
	.db #0x83	; 131
	.db #0x83	; 131
	.db #0x00	; 0
	.db #0x00	; 0
	.db #0x00	; 0
	.db #0x00	; 0
	.db #0x00	; 0
	.db #0x00	; 0
	.db #0x00	; 0
	.db #0x00	; 0
	.db #0x00	; 0
	.db #0xff	; 255
	.db #0x00	; 0
	.db #0xff	; 255
	.db #0x80	; 128
	.db #0xff	; 255
	.db #0xf0	; 240
	.db #0xff	; 255
	.db #0x7c	; 124
	.db #0x7f	; 127
	.db #0x0f	; 15
	.db #0x0f	; 15
	.db #0x03	; 3
	.db #0x03	; 3
	.db #0x00	; 0
	.db #0x00	; 0
	.db #0x03	; 3
	.db #0xbf	; 191
	.db #0x02	; 2
	.db #0xfe	; 254
	.db #0x04	; 4
	.db #0xfc	; 252
	.db #0x0c	; 12
	.db #0xfc	; 252
	.db #0x18	; 24
	.db #0xf8	; 248
	.db #0x30	; 48	'0'
	.db #0xf0	; 240
	.db #0xe0	; 224
	.db #0xe0	; 224
	.db #0xc0	; 192
	.db #0xc0	; 192
	.db #0x00	; 0
	.db #0x3f	; 63
	.db #0x00	; 0
	.db #0x3f	; 63
	.db #0x30	; 48	'0'
	.db #0x7f	; 127
	.db #0x3c	; 60
	.db #0x3f	; 63
	.db #0x4f	; 79	'O'
	.db #0x4f	; 79	'O'
	.db #0x03	; 3
	.db #0x03	; 3
	.db #0x00	; 0
	.db #0x00	; 0
	.db #0x00	; 0
	.db #0x00	; 0
	.db #0x01	; 1
	.db #0xff	; 255
	.db #0x03	; 3
	.db #0xff	; 255
	.db #0x06	; 6
	.db #0xfe	; 254
	.db #0x0c	; 12
	.db #0xfc	; 252
	.db #0x08	; 8
	.db #0xf8	; 248
	.db #0xd0	; 208
	.db #0xf0	; 240
	.db #0xf0	; 240
	.db #0xf0	; 240
	.db #0x20	; 32
	.db #0x20	; 32
	.db #0x00	; 0
	.db #0x3f	; 63
	.db #0x18	; 24
	.db #0x1f	; 31
	.db #0x3c	; 60
	.db #0x3f	; 63
	.db #0x07	; 7
	.db #0x07	; 7
	.db #0x03	; 3
	.db #0x03	; 3
	.db #0x00	; 0
	.db #0x00	; 0
	.db #0x00	; 0
	.db #0x00	; 0
	.db #0x00	; 0
	.db #0x00	; 0
	.db #0x00	; 0
	.db #0xfb	; 251
	.db #0x00	; 0
	.db #0xff	; 255
	.db #0x01	; 1
	.db #0xff	; 255
	.db #0x07	; 7
	.db #0xff	; 255
	.db #0x8e	; 142
	.db #0xfe	; 254
	.db #0xd8	; 216
	.db #0xf8	; 248
	.db #0x70	; 112	'p'
	.db #0x70	; 112	'p'
	.db #0x20	; 32
	.db #0x20	; 32
	.db #0x00	; 0
	.db #0xf0	; 240
	.db #0x00	; 0
	.db #0xf0	; 240
	.db #0xf0	; 240
	.db #0xf0	; 240
	.db #0xf0	; 240
	.db #0xf0	; 240
	.db #0x00	; 0
	.db #0x00	; 0
	.db #0x00	; 0
	.db #0x00	; 0
	.db #0x00	; 0
	.db #0x00	; 0
	.db #0x00	; 0
	.db #0x00	; 0
	.db #0x00	; 0
	.db #0x00	; 0
	.db #0x00	; 0
	.db #0x00	; 0
	.db #0x00	; 0
	.db #0x01	; 1
	.db #0x00	; 0
	.db #0x01	; 1
	.db #0x00	; 0
	.db #0x01	; 1
	.db #0x00	; 0
	.db #0x01	; 1
	.db #0x00	; 0
	.db #0x07	; 7
	.db #0x00	; 0
	.db #0x1f	; 31
	.db #0x00	; 0
	.db #0xff	; 255
	.db #0x00	; 0
	.db #0xff	; 255
	.db #0x00	; 0
	.db #0xff	; 255
	.db #0x7f	; 127
	.db #0xff	; 255
	.db #0xff	; 255
	.db #0xff	; 255
	.db #0x80	; 128
	.db #0x80	; 128
	.db #0x00	; 0
	.db #0xc0	; 192
	.db #0x00	; 0
	.db #0xf1	; 241
	.db #0x00	; 0
	.db #0xfe	; 254
	.db #0x00	; 0
	.db #0xff	; 255
	.db #0x00	; 0
	.db #0xff	; 255
	.db #0x00	; 0
	.db #0xff	; 255
	.db #0x80	; 128
	.db #0xff	; 255
	.db #0x80	; 128
	.db #0xff	; 255
	.db #0x00	; 0
	.db #0x7f	; 127
	.db #0x40	; 64
	.db #0x7f	; 127
	.db #0x00	; 0
	.db #0x03	; 3
	.db #0x00	; 0
	.db #0x03	; 3
	.db #0x00	; 0
	.db #0x03	; 3
	.db #0x00	; 0
	.db #0x03	; 3
	.db #0x00	; 0
	.db #0x03	; 3
	.db #0x00	; 0
	.db #0x83	; 131
	.db #0x00	; 0
	.db #0x83	; 131
	.db #0x00	; 0
	.db #0x8b	; 139
	.db #0x00	; 0
	.db #0xf0	; 240
	.db #0x00	; 0
	.db #0xf0	; 240
	.db #0x00	; 0
	.db #0xf0	; 240
	.db #0x00	; 0
	.db #0xf0	; 240
	.db #0x00	; 0
	.db #0xf0	; 240
	.db #0x00	; 0
	.db #0xf0	; 240
	.db #0x00	; 0
	.db #0xf8	; 248
	.db #0x00	; 0
	.db #0xfc	; 252
	.db #0x00	; 0
	.db #0x03	; 3
	.db #0x00	; 0
	.db #0x03	; 3
	.db #0x00	; 0
	.db #0x03	; 3
	.db #0x00	; 0
	.db #0x03	; 3
	.db #0x00	; 0
	.db #0x03	; 3
	.db #0x00	; 0
	.db #0x03	; 3
	.db #0x00	; 0
	.db #0x23	; 35
	.db #0x00	; 0
	.db #0x43	; 67	'C'
	.db #0x00	; 0
	.db #0xf0	; 240
	.db #0x00	; 0
	.db #0xf0	; 240
	.db #0x00	; 0
	.db #0xf0	; 240
	.db #0x00	; 0
	.db #0xf0	; 240
	.db #0x00	; 0
	.db #0xf0	; 240
	.db #0x00	; 0
	.db #0xf0	; 240
	.db #0x00	; 0
	.db #0xf8	; 248
	.db #0x00	; 0
	.db #0xfc	; 252
	.db #0x00	; 0
	.db #0x01	; 1
	.db #0x00	; 0
	.db #0x01	; 1
	.db #0x00	; 0
	.db #0x01	; 1
	.db #0x00	; 0
	.db #0x01	; 1
	.db #0x00	; 0
	.db #0x01	; 1
	.db #0x00	; 0
	.db #0x01	; 1
	.db #0x00	; 0
	.db #0x61	; 97	'a'
	.db #0x00	; 0
	.db #0x41	; 65	'A'
	.db #0x00	; 0
	.db #0xf8	; 248
	.db #0x00	; 0
	.db #0xf8	; 248
	.db #0x00	; 0
	.db #0xf8	; 248
	.db #0x00	; 0
	.db #0xf8	; 248
	.db #0x00	; 0
	.db #0xf8	; 248
	.db #0x00	; 0
	.db #0xf8	; 248
	.db #0x00	; 0
	.db #0xf8	; 248
	.db #0x00	; 0
	.db #0xf8	; 248
	.db #0x00	; 0
	.db #0x7e	; 126
	.db #0x00	; 0
	.db #0x7e	; 126
	.db #0x00	; 0
	.db #0x7e	; 126
	.db #0x00	; 0
	.db #0x7e	; 126
	.db #0x00	; 0
	.db #0x7e	; 126
	.db #0x00	; 0
	.db #0x7e	; 126
	.db #0x00	; 0
	.db #0x7e	; 126
	.db #0x00	; 0
	.db #0xfe	; 254
	.db #0x00	; 0
	.db #0x01	; 1
	.db #0x00	; 0
	.db #0x01	; 1
	.db #0x00	; 0
	.db #0x01	; 1
	.db #0x00	; 0
	.db #0x01	; 1
	.db #0x00	; 0
	.db #0x01	; 1
	.db #0x00	; 0
	.db #0x01	; 1
	.db #0x00	; 0
	.db #0x03	; 3
	.db #0x00	; 0
	.db #0x03	; 3
	.db #0x00	; 0
	.db #0xf8	; 248
	.db #0x00	; 0
	.db #0xf8	; 248
	.db #0x00	; 0
	.db #0xf8	; 248
	.db #0x00	; 0
	.db #0xf8	; 248
	.db #0x00	; 0
	.db #0xf8	; 248
	.db #0x00	; 0
	.db #0xf8	; 248
	.db #0x00	; 0
	.db #0xf8	; 248
	.db #0x00	; 0
	.db #0xfc	; 252
	.db #0x42	; 66	'B'
	.db #0x43	; 67	'C'
	.db #0x01	; 1
	.db #0x01	; 1
	.db #0x01	; 1
	.db #0x01	; 1
	.db #0x00	; 0
	.db #0x00	; 0
	.db #0x00	; 0
	.db #0x00	; 0
	.db #0x00	; 0
	.db #0x00	; 0
	.db #0x00	; 0
	.db #0x01	; 1
	.db #0x00	; 0
	.db #0x63	; 99	'c'
	.db #0x00	; 0
	.db #0xff	; 255
	.db #0x00	; 0
	.db #0xff	; 255
	.db #0x01	; 1
	.db #0xff	; 255
	.db #0x83	; 131
	.db #0xff	; 255
	.db #0x86	; 134
	.db #0xfe	; 254
	.db #0x04	; 4
	.db #0xfc	; 252
	.db #0x00	; 0
	.db #0xf8	; 248
	.db #0x00	; 0
	.db #0xfe	; 254
	.db #0x00	; 0
	.db #0xfe	; 254
	.db #0x00	; 0
	.db #0xfe	; 254
	.db #0x80	; 128
	.db #0xff	; 255
	.db #0x80	; 128
	.db #0xff	; 255
	.db #0x40	; 64
	.db #0x7f	; 127
	.db #0x40	; 64
	.db #0x7f	; 127
	.db #0x00	; 0
	.db #0x3f	; 63
	.db #0x01	; 1
	.db #0x3f	; 63
	.db #0x00	; 0
	.db #0x1f	; 31
	.db #0x00	; 0
	.db #0x1f	; 31
	.db #0x00	; 0
	.db #0x1f	; 31
	.db #0x00	; 0
	.db #0x1f	; 31
	.db #0x00	; 0
	.db #0x1f	; 31
	.db #0x00	; 0
	.db #0x1f	; 31
	.db #0x00	; 0
	.db #0x1f	; 31
	.db #0x00	; 0
	.db #0x1f	; 31
	.db #0x03	; 3
	.db #0x8f	; 143
	.db #0x0f	; 15
	.db #0xbf	; 191
	.db #0x0c	; 12
	.db #0xcc	; 204
	.db #0x30	; 48	'0'
	.db #0xb0	; 176
	.db #0x40	; 64
	.db #0xc0	; 192
	.db #0x00	; 0
	.db #0x80	; 128
	.db #0x00	; 0
	.db #0xc1	; 193
	.db #0x00	; 0
	.db #0xf3	; 243
	.db #0x88	; 136
	.db #0x8f	; 143
	.db #0x08	; 8
	.db #0x0f	; 15
	.db #0x00	; 0
	.db #0x07	; 7
	.db #0x00	; 0
	.db #0x0f	; 15
	.db #0x00	; 0
	.db #0x0f	; 15
	.db #0x00	; 0
	.db #0x0f	; 15
	.db #0x00	; 0
	.db #0x0f	; 15
	.db #0x00	; 0
	.db #0x1f	; 31
	.db #0x00	; 0
	.db #0xe3	; 227
	.db #0x00	; 0
	.db #0xe3	; 227
	.db #0x00	; 0
	.db #0xe3	; 227
	.db #0x00	; 0
	.db #0xe3	; 227
	.db #0x00	; 0
	.db #0xe3	; 227
	.db #0x00	; 0
	.db #0xe3	; 227
	.db #0x00	; 0
	.db #0xe3	; 227
	.db #0x00	; 0
	.db #0xf3	; 243
	.db #0x00	; 0
	.db #0xf0	; 240
	.db #0x00	; 0
	.db #0xf0	; 240
	.db #0x00	; 0
	.db #0xf0	; 240
	.db #0x00	; 0
	.db #0xf0	; 240
	.db #0x00	; 0
	.db #0xf0	; 240
	.db #0x00	; 0
	.db #0xf0	; 240
	.db #0x00	; 0
	.db #0xf0	; 240
	.db #0x00	; 0
	.db #0xf0	; 240
	.db #0x0f	; 15
	.db #0x0f	; 15
	.db #0x0f	; 15
	.db #0x0f	; 15
	.db #0x00	; 0
	.db #0x00	; 0
	.db #0x00	; 0
	.db #0x00	; 0
	.db #0x00	; 0
	.db #0x00	; 0
	.db #0x00	; 0
	.db #0x00	; 0
	.db #0x00	; 0
	.db #0x00	; 0
	.db #0x00	; 0
	.db #0x00	; 0
	.db #0xcc	; 204
	.db #0xdf	; 223
	.db #0x80	; 128
	.db #0x93	; 147
	.db #0x10	; 16
	.db #0x33	; 51	'3'
	.db #0x12	; 18
	.db #0x33	; 51	'3'
	.db #0x02	; 2
	.db #0x23	; 35
	.db #0x20	; 32
	.db #0x61	; 97	'a'
	.db #0x20	; 32
	.db #0x61	; 97	'a'
	.db #0x00	; 0
	.db #0x7f	; 127
	.db #0x00	; 0
	.db #0xf8	; 248
	.db #0x00	; 0
	.db #0xfc	; 252
	.db #0x00	; 0
	.db #0xfc	; 252
	.db #0x00	; 0
	.db #0xfc	; 252
	.db #0x00	; 0
	.db #0xfc	; 252
	.db #0x00	; 0
	.db #0xfe	; 254
	.db #0x00	; 0
	.db #0xfe	; 254
	.db #0x00	; 0
	.db #0xfe	; 254
	.db #0x00	; 0
	.db #0x00	; 0
	.db #0x00	; 0
	.db #0x00	; 0
	.db #0x00	; 0
	.db #0x03	; 3
	.db #0x00	; 0
	.db #0x03	; 3
	.db #0x00	; 0
	.db #0x03	; 3
	.db #0x00	; 0
	.db #0x03	; 3
	.db #0x00	; 0
	.db #0x03	; 3
	.db #0x00	; 0
	.db #0x03	; 3
	.db #0x00	; 0
	.db #0x07	; 7
	.db #0x00	; 0
	.db #0x7f	; 127
	.db #0x00	; 0
	.db #0xf7	; 247
	.db #0x0c	; 12
	.db #0xff	; 255
	.db #0x07	; 7
	.db #0xf7	; 247
	.db #0x03	; 3
	.db #0xf3	; 243
	.db #0x00	; 0
	.db #0xf0	; 240
	.db #0x00	; 0
	.db #0xf0	; 240
	.db #0x00	; 0
	.db #0xe0	; 224
	.db #0x00	; 0
	.db #0xe0	; 224
	.db #0x20	; 32
	.db #0xe3	; 227
	.db #0x20	; 32
	.db #0xe3	; 227
	.db #0xc0	; 192
	.db #0xc3	; 195
	.db #0xc0	; 192
	.db #0xc3	; 195
	.db #0x00	; 0
	.db #0x03	; 3
	.db #0x00	; 0
	.db #0x03	; 3
	.db #0x00	; 0
	.db #0x0f	; 15
	.db #0x00	; 0
	.db #0x7f	; 127
	.db #0x00	; 0
	.db #0xff	; 255
	.db #0x08	; 8
	.db #0xff	; 255
	.db #0x0f	; 15
	.db #0xff	; 255
	.db #0x07	; 7
	.db #0xf7	; 247
	.db #0x00	; 0
	.db #0xf0	; 240
	.db #0x00	; 0
	.db #0xf0	; 240
	.db #0x00	; 0
	.db #0xe1	; 225
	.db #0x20	; 32
	.db #0xe3	; 227
	.db #0x20	; 32
	.db #0xe7	; 231
	.db #0x40	; 64
	.db #0xcf	; 207
	.db #0xc0	; 192
	.db #0xdf	; 223
	.db #0x8e	; 142
	.db #0x8f	; 143
	.db #0x1e	; 30
	.db #0x1f	; 31
	.db #0x00	; 0
	.db #0x01	; 1
	.db #0x00	; 0
	.db #0xc0	; 192
	.db #0x00	; 0
	.db #0xe0	; 224
	.db #0x00	; 0
	.db #0xf8	; 248
	.db #0x00	; 0
	.db #0xf9	; 249
	.db #0x00	; 0
	.db #0xf9	; 249
	.db #0x01	; 1
	.db #0xf9	; 249
	.db #0x01	; 1
	.db #0xf9	; 249
	.db #0x00	; 0
	.db #0xf8	; 248
	.db #0x00	; 0
	.db #0x70	; 112	'p'
	.db #0x00	; 0
	.db #0xf8	; 248
	.db #0x00	; 0
	.db #0xfd	; 253
	.db #0x00	; 0
	.db #0xff	; 255
	.db #0x01	; 1
	.db #0xff	; 255
	.db #0x01	; 1
	.db #0xff	; 255
	.db #0x80	; 128
	.db #0xfe	; 254
	.db #0x80	; 128
	.db #0xfe	; 254
	.db #0x00	; 0
	.db #0x03	; 3
	.db #0x00	; 0
	.db #0x03	; 3
	.db #0x00	; 0
	.db #0x87	; 135
	.db #0x00	; 0
	.db #0x0f	; 15
	.db #0x84	; 132
	.db #0x97	; 151
	.db #0x0e	; 14
	.db #0x0f	; 15
	.db #0x12	; 18
	.db #0x13	; 19
	.db #0x00	; 0
	.db #0x01	; 1
	.db #0x00	; 0
	.db #0xe0	; 224
	.db #0x00	; 0
	.db #0xf0	; 240
	.db #0x00	; 0
	.db #0xf9	; 249
	.db #0x00	; 0
	.db #0xfb	; 251
	.db #0x00	; 0
	.db #0xff	; 255
	.db #0x02	; 2
	.db #0xfb	; 251
	.db #0x07	; 7
	.db #0xff	; 255
	.db #0x01	; 1
	.db #0xf9	; 249
	.db #0x00	; 0
	.db #0x64	; 100	'd'
	.db #0x00	; 0
	.db #0xe4	; 228
	.db #0x00	; 0
	.db #0xfc	; 252
	.db #0x00	; 0
	.db #0xfd	; 253
	.db #0x04	; 4
	.db #0xff	; 255
	.db #0x0c	; 12
	.db #0xff	; 255
	.db #0xb8	; 184
	.db #0xfb	; 251
	.db #0xf2	; 242
	.db #0xf3	; 243
	.db #0x00	; 0
	.db #0x1f	; 31
	.db #0x00	; 0
	.db #0x7f	; 127
	.db #0x06	; 6
	.db #0x7f	; 127
	.db #0x07	; 7
	.db #0xff	; 255
	.db #0x01	; 1
	.db #0xf9	; 249
	.db #0x00	; 0
	.db #0xf8	; 248
	.db #0x00	; 0
	.db #0xf8	; 248
	.db #0x00	; 0
	.db #0xf9	; 249
	.db #0x00	; 0
	.db #0xff	; 255
	.db #0x00	; 0
	.db #0xfe	; 254
	.db #0x03	; 3
	.db #0xff	; 255
	.db #0x06	; 6
	.db #0xfe	; 254
	.db #0x8c	; 140
	.db #0xfc	; 252
	.db #0x80	; 128
	.db #0xf8	; 248
	.db #0x00	; 0
	.db #0xfc	; 252
	.db #0x00	; 0
	.db #0xfc	; 252
	.db #0x00	; 0
	.db #0x00	; 0
	.db #0x00	; 0
	.db #0x11	; 17
	.db #0x00	; 0
	.db #0x1f	; 31
	.db #0x00	; 0
	.db #0x1f	; 31
	.db #0x00	; 0
	.db #0x1f	; 31
	.db #0x00	; 0
	.db #0x1f	; 31
	.db #0x00	; 0
	.db #0x1f	; 31
	.db #0x00	; 0
	.db #0x1f	; 31
	.db #0x00	; 0
	.db #0x3e	; 62
	.db #0x00	; 0
	.db #0xfe	; 254
	.db #0x00	; 0
	.db #0xff	; 255
	.db #0x40	; 64
	.db #0xff	; 255
	.db #0x40	; 64
	.db #0xff	; 255
	.db #0x20	; 32
	.db #0xbf	; 191
	.db #0x30	; 48	'0'
	.db #0xbf	; 191
	.db #0x10	; 16
	.db #0x9f	; 159
	.db #0x1c	; 28
	.db #0x1f	; 31
	.db #0x0e	; 14
	.db #0x0f	; 15
	.db #0x03	; 3
	.db #0x03	; 3
	.db #0x01	; 1
	.db #0x01	; 1
	.db #0x00	; 0
	.db #0x8f	; 143
	.db #0x00	; 0
	.db #0x8f	; 143
	.db #0x00	; 0
	.db #0x8f	; 143
	.db #0x80	; 128
	.db #0x8f	; 143
	.db #0x00	; 0
	.db #0xff	; 255
	.db #0x00	; 0
	.db #0xff	; 255
	.db #0x80	; 128
	.db #0xff	; 255
	.db #0x00	; 0
	.db #0xff	; 255
	.db #0x00	; 0
	.db #0xff	; 255
	.db #0x18	; 24
	.db #0xff	; 255
	.db #0x1c	; 28
	.db #0xff	; 255
	.db #0x04	; 4
	.db #0xe7	; 231
	.db #0x00	; 0
	.db #0x00	; 0
	.db #0x00	; 0
	.db #0x80	; 128
	.db #0x00	; 0
	.db #0xe4	; 228
	.db #0x00	; 0
	.db #0xf8	; 248
	.db #0x04	; 4
	.db #0xfc	; 252
	.db #0x08	; 8
	.db #0xf8	; 248
	.db #0x08	; 8
	.db #0xf8	; 248
	.db #0x00	; 0
	.db #0xf0	; 240
	.db #0x01	; 1
	.db #0x0d	; 13
	.db #0x07	; 7
	.db #0x0f	; 15
	.db #0x0c	; 12
	.db #0x1c	; 28
	.db #0x08	; 8
	.db #0x18	; 24
	.db #0x00	; 0
	.db #0x18	; 24
	.db #0x00	; 0
	.db #0x1c	; 28
	.db #0x10	; 16
	.db #0x1f	; 31
	.db #0x10	; 16
	.db #0x1f	; 31
	.db #0xc0	; 192
	.db #0xff	; 255
	.db #0xe0	; 224
	.db #0xff	; 255
	.db #0x30	; 48	'0'
	.db #0x3f	; 63
	.db #0x10	; 16
	.db #0x3f	; 63
	.db #0x00	; 0
	.db #0x6f	; 111	'o'
	.db #0x20	; 32
	.db #0xef	; 239
	.db #0x20	; 32
	.db #0xef	; 239
	.db #0x4c	; 76	'L'
	.db #0xdf	; 223
	.db #0x00	; 0
	.db #0xc4	; 196
	.db #0x04	; 4
	.db #0xec	; 236
	.db #0x04	; 4
	.db #0xec	; 236
	.db #0x00	; 0
	.db #0xf8	; 248
	.db #0x00	; 0
	.db #0xf8	; 248
	.db #0x00	; 0
	.db #0xf8	; 248
	.db #0x00	; 0
	.db #0xf8	; 248
	.db #0x00	; 0
	.db #0xf8	; 248
	.db #0x00	; 0
	.db #0x00	; 0
	.db #0x00	; 0
	.db #0x00	; 0
	.db #0x00	; 0
	.db #0x00	; 0
	.db #0x00	; 0
	.db #0x00	; 0
	.db #0x00	; 0
	.db #0x00	; 0
	.db #0x00	; 0
	.db #0x00	; 0
	.db #0x00	; 0
	.db #0x01	; 1
	.db #0x00	; 0
	.db #0x03	; 3
	.db #0x00	; 0
	.db #0x00	; 0
	.db #0x00	; 0
	.db #0x00	; 0
	.db #0x00	; 0
	.db #0x00	; 0
	.db #0x00	; 0
	.db #0x00	; 0
	.db #0x00	; 0
	.db #0x00	; 0
	.db #0x00	; 0
	.db #0x00	; 0
	.db #0x00	; 0
	.db #0x00	; 0
	.db #0x00	; 0
	.db #0xa0	; 160
	.db #0x00	; 0
	.db #0x00	; 0
	.db #0x00	; 0
	.db #0x00	; 0
	.db #0x00	; 0
	.db #0x00	; 0
	.db #0x00	; 0
	.db #0x00	; 0
	.db #0x00	; 0
	.db #0x00	; 0
	.db #0x00	; 0
	.db #0x00	; 0
	.db #0x00	; 0
	.db #0x03	; 3
	.db #0x00	; 0
	.db #0x07	; 7
	.db #0x00	; 0
	.db #0x00	; 0
	.db #0x00	; 0
	.db #0x00	; 0
	.db #0x00	; 0
	.db #0x00	; 0
	.db #0x00	; 0
	.db #0x00	; 0
	.db #0x00	; 0
	.db #0x00	; 0
	.db #0x00	; 0
	.db #0x00	; 0
	.db #0x00	; 0
	.db #0x00	; 0
	.db #0x00	; 0
	.db #0x20	; 32
	.db #0x00	; 0
	.db #0x00	; 0
	.db #0x00	; 0
	.db #0x00	; 0
	.db #0x00	; 0
	.db #0x00	; 0
	.db #0x00	; 0
	.db #0x00	; 0
	.db #0x00	; 0
	.db #0x00	; 0
	.db #0x00	; 0
	.db #0x00	; 0
	.db #0x00	; 0
	.db #0x00	; 0
	.db #0x00	; 0
	.db #0x01	; 1
	.db #0x00	; 0
	.db #0x00	; 0
	.db #0x00	; 0
	.db #0x00	; 0
	.db #0x00	; 0
	.db #0x00	; 0
	.db #0x00	; 0
	.db #0x00	; 0
	.db #0x00	; 0
	.db #0x00	; 0
	.db #0x00	; 0
	.db #0x00	; 0
	.db #0x00	; 0
	.db #0x00	; 0
	.db #0x00	; 0
	.db #0x80	; 128
	.db #0x00	; 0
	.db #0x00	; 0
	.db #0x00	; 0
	.db #0x00	; 0
	.db #0x00	; 0
	.db #0x00	; 0
	.db #0x00	; 0
	.db #0x00	; 0
	.db #0x00	; 0
	.db #0x00	; 0
	.db #0x00	; 0
	.db #0x00	; 0
	.db #0x00	; 0
	.db #0x00	; 0
	.db #0x00	; 0
	.db #0x0f	; 15
	.db #0x00	; 0
	.db #0x00	; 0
	.db #0x00	; 0
	.db #0x00	; 0
	.db #0x00	; 0
	.db #0x00	; 0
	.db #0x00	; 0
	.db #0x00	; 0
	.db #0x00	; 0
	.db #0x00	; 0
	.db #0x00	; 0
	.db #0x00	; 0
	.db #0x00	; 0
	.db #0x00	; 0
	.db #0x00	; 0
	.db #0x0c	; 12
	.db #0x00	; 0
	.db #0x18	; 24
	.db #0x00	; 0
	.db #0x1e	; 30
	.db #0x00	; 0
	.db #0x1f	; 31
	.db #0x00	; 0
	.db #0x1f	; 31
	.db #0x00	; 0
	.db #0x1f	; 31
	.db #0x00	; 0
	.db #0x1f	; 31
	.db #0x00	; 0
	.db #0x1f	; 31
	.db #0x10	; 16
	.db #0x1f	; 31
	.db #0x00	; 0
	.db #0x00	; 0
	.db #0x00	; 0
	.db #0x00	; 0
	.db #0x00	; 0
	.db #0x00	; 0
	.db #0x00	; 0
	.db #0x80	; 128
	.db #0x00	; 0
	.db #0xe0	; 224
	.db #0x00	; 0
	.db #0xf0	; 240
	.db #0x00	; 0
	.db #0xf8	; 248
	.db #0x00	; 0
	.db #0xfe	; 254
	.db #0x00	; 0
	.db #0x00	; 0
	.db #0x00	; 0
	.db #0x00	; 0
	.db #0x00	; 0
	.db #0x00	; 0
	.db #0x00	; 0
	.db #0x00	; 0
	.db #0x00	; 0
	.db #0x00	; 0
	.db #0x00	; 0
	.db #0x00	; 0
	.db #0x00	; 0
	.db #0x01	; 1
	.db #0x00	; 0
	.db #0x07	; 7
	.db #0x00	; 0
	.db #0x00	; 0
	.db #0x00	; 0
	.db #0x00	; 0
	.db #0x00	; 0
	.db #0x00	; 0
	.db #0x00	; 0
	.db #0x00	; 0
	.db #0x00	; 0
	.db #0x00	; 0
	.db #0x00	; 0
	.db #0x00	; 0
	.db #0x00	; 0
	.db #0xfc	; 252
	.db #0x00	; 0
	.db #0xff	; 255
	.db #0x00	; 0
	.db #0x00	; 0
	.db #0x00	; 0
	.db #0x00	; 0
	.db #0x00	; 0
	.db #0x00	; 0
	.db #0x00	; 0
	.db #0x00	; 0
	.db #0x00	; 0
	.db #0x00	; 0
	.db #0x00	; 0
	.db #0x00	; 0
	.db #0x00	; 0
	.db #0x00	; 0
	.db #0x00	; 0
	.db #0x04	; 4
	.db #0x00	; 0
	.db #0x00	; 0
	.db #0x00	; 0
	.db #0x00	; 0
	.db #0x00	; 0
	.db #0xff	; 255
	.db #0x00	; 0
	.db #0xff	; 255
	.db #0xff	; 255
	.db #0xff	; 255
	.db #0x00	; 0
	.db #0x00	; 0
	.db #0x00	; 0
	.db #0x00	; 0
	.db #0x00	; 0
	.db #0x00	; 0
	.db #0x00	; 0
	.db #0x40	; 64
	.db #0x00	; 0
	.db #0x60	; 96
	.db #0x40	; 64
	.db #0x7f	; 127
	.db #0x20	; 32
	.db #0x3f	; 63
	.db #0x1f	; 31
	.db #0x1f	; 31
	.db #0x00	; 0
	.db #0x00	; 0
	.db #0x00	; 0
	.db #0x00	; 0
	.db #0x00	; 0
	.db #0x00	; 0
	.db #0x00	; 0
	.db #0x02	; 2
	.db #0x00	; 0
	.db #0x06	; 6
	.db #0x02	; 2
	.db #0xfe	; 254
	.db #0x04	; 4
	.db #0xfc	; 252
	.db #0xf8	; 248
	.db #0xf8	; 248
	.db #0x00	; 0
	.db #0x00	; 0
	.db #0x00	; 0
	.db #0x00	; 0
	.db #0x00	; 0
	.db #0x00	; 0
	.db #0x00	; 0
	.db #0x77	; 119	'w'
	.db #0x00	; 0
	.db #0x7f	; 127
	.db #0x00	; 0
	.db #0x7f	; 127
	.db #0x14	; 20
	.db #0x7f	; 127
	.db #0x08	; 8
	.db #0x6b	; 107	'k'
	.db #0x00	; 0
	.db #0x63	; 99	'c'
	.db #0x00	; 0
	.db #0x63	; 99	'c'
	.db #0x63	; 99	'c'
	.db #0x63	; 99	'c'
	.db #0x00	; 0
	.db #0x3e	; 62
	.db #0x00	; 0
	.db #0x7f	; 127
	.db #0x1c	; 28
	.db #0x7f	; 127
	.db #0x00	; 0
	.db #0x63	; 99	'c'
	.db #0x00	; 0
	.db #0x63	; 99	'c'
	.db #0x00	; 0
	.db #0x7f	; 127
	.db #0x41	; 65	'A'
	.db #0x7f	; 127
	.db #0x3e	; 62
	.db #0x3e	; 62
	.db #0x00	; 0
	.db #0x63	; 99	'c'
	.db #0x00	; 0
	.db #0x73	; 115	's'
	.db #0x00	; 0
	.db #0x73	; 115	's'
	.db #0x10	; 16
	.db #0x7b	; 123
	.db #0x00	; 0
	.db #0x6b	; 107	'k'
	.db #0x08	; 8
	.db #0x6f	; 111	'o'
	.db #0x00	; 0
	.db #0x67	; 103	'g'
	.db #0x67	; 103	'g'
	.db #0x67	; 103	'g'
	.db #0x00	; 0
	.db #0x3e	; 62
	.db #0x00	; 0
	.db #0x7f	; 127
	.db #0x1c	; 28
	.db #0x7f	; 127
	.db #0x61	; 97	'a'
	.db #0x6f	; 111	'o'
	.db #0x06	; 6
	.db #0x1e	; 30
	.db #0x00	; 0
	.db #0x7f	; 127
	.db #0x00	; 0
	.db #0x7f	; 127
	.db #0x7f	; 127
	.db #0x7f	; 127
	.db #0x00	; 0
	.db #0x3e	; 62
	.db #0x00	; 0
	.db #0x7f	; 127
	.db #0x0c	; 12
	.db #0x7f	; 127
	.db #0x10	; 16
	.db #0x7b	; 123
	.db #0x08	; 8
	.db #0x6f	; 111	'o'
	.db #0x00	; 0
	.db #0x7f	; 127
	.db #0x41	; 65	'A'
	.db #0x7f	; 127
	.db #0x3e	; 62
	.db #0x3e	; 62
	.db #0x00	; 0
	.db #0x3e	; 62
	.db #0x00	; 0
	.db #0x7f	; 127
	.db #0x78	; 120	'x'
	.db #0x7f	; 127
	.db #0x01	; 1
	.db #0x1f	; 31
	.db #0x18	; 24
	.db #0x1f	; 31
	.db #0x00	; 0
	.db #0x7f	; 127
	.db #0x41	; 65	'A'
	.db #0x7f	; 127
	.db #0x3e	; 62
	.db #0x3e	; 62
	.db #0x00	; 0
	.db #0x00	; 0
	.db #0x00	; 0
	.db #0x00	; 0
	.db #0x00	; 0
	.db #0x00	; 0
	.db #0x00	; 0
	.db #0xf8	; 248
	.db #0x00	; 0
	.db #0xfc	; 252
	.db #0xf8	; 248
	.db #0xfe	; 254
	.db #0x04	; 4
	.db #0x06	; 6
	.db #0x02	; 2
	.db #0x02	; 2
	.db #0x00	; 0
	.db #0x00	; 0
	.db #0x00	; 0
	.db #0x00	; 0
	.db #0x00	; 0
	.db #0x00	; 0
	.db #0x00	; 0
	.db #0xff	; 255
	.db #0x00	; 0
	.db #0xff	; 255
	.db #0xff	; 255
	.db #0xff	; 255
	.db #0x00	; 0
	.db #0x00	; 0
	.db #0x00	; 0
	.db #0x00	; 0
	.db #0x00	; 0
	.db #0x00	; 0
	.db #0x00	; 0
	.db #0x00	; 0
	.db #0x00	; 0
	.db #0x00	; 0
	.db #0x00	; 0
	.db #0x1f	; 31
	.db #0x00	; 0
	.db #0x3f	; 63
	.db #0x1f	; 31
	.db #0x7f	; 127
	.db #0x20	; 32
	.db #0x60	; 96
	.db #0x40	; 64
	.db #0x40	; 64
	.db #0x1e	; 30
	.db #0x1e	; 30
	.db #0x3f	; 63
	.db #0x3f	; 63
	.db #0x70	; 112	'p'
	.db #0x70	; 112	'p'
	.db #0x3c	; 60
	.db #0x3c	; 60
	.db #0x1e	; 30
	.db #0x1e	; 30
	.db #0x07	; 7
	.db #0x07	; 7
	.db #0x7e	; 126
	.db #0x7e	; 126
	.db #0x3c	; 60
	.db #0x3c	; 60
	.db #0x3f	; 63
	.db #0x3f	; 63
	.db #0x7f	; 127
	.db #0x7f	; 127
	.db #0x0c	; 12
	.db #0x0c	; 12
	.db #0x0c	; 12
	.db #0x0c	; 12
	.db #0x0c	; 12
	.db #0x0c	; 12
	.db #0x0c	; 12
	.db #0x0c	; 12
	.db #0x0c	; 12
	.db #0x0c	; 12
	.db #0x0c	; 12
	.db #0x0c	; 12
	.db #0x03	; 3
	.db #0x03	; 3
	.db #0x07	; 7
	.db #0x07	; 7
	.db #0x0f	; 15
	.db #0x0f	; 15
	.db #0x1b	; 27
	.db #0x1b	; 27
	.db #0x33	; 51	'3'
	.db #0x33	; 51	'3'
	.db #0x7f	; 127
	.db #0x7f	; 127
	.db #0x63	; 99	'c'
	.db #0x63	; 99	'c'
	.db #0x63	; 99	'c'
	.db #0x63	; 99	'c'
	.db #0x3c	; 60
	.db #0x3c	; 60
	.db #0x7e	; 126
	.db #0x7e	; 126
	.db #0x63	; 99	'c'
	.db #0x63	; 99	'c'
	.db #0x63	; 99	'c'
	.db #0x63	; 99	'c'
	.db #0x66	; 102	'f'
	.db #0x66	; 102	'f'
	.db #0x7c	; 124
	.db #0x7c	; 124
	.db #0x66	; 102	'f'
	.db #0x66	; 102	'f'
	.db #0x63	; 99	'c'
	.db #0x63	; 99	'c'
	.db #0x3e	; 62
	.db #0x3e	; 62
	.db #0x7f	; 127
	.db #0x7f	; 127
	.db #0x63	; 99	'c'
	.db #0x63	; 99	'c'
	.db #0x63	; 99	'c'
	.db #0x63	; 99	'c'
	.db #0x63	; 99	'c'
	.db #0x63	; 99	'c'
	.db #0x63	; 99	'c'
	.db #0x63	; 99	'c'
	.db #0x7f	; 127
	.db #0x7f	; 127
	.db #0x3e	; 62
	.db #0x3e	; 62
	.db #0x3c	; 60
	.db #0x3c	; 60
	.db #0x7e	; 126
	.db #0x7e	; 126
	.db #0x63	; 99	'c'
	.db #0x63	; 99	'c'
	.db #0x63	; 99	'c'
	.db #0x63	; 99	'c'
	.db #0x66	; 102	'f'
	.db #0x66	; 102	'f'
	.db #0x7c	; 124
	.db #0x7c	; 124
	.db #0x60	; 96
	.db #0x60	; 96
	.db #0x60	; 96
	.db #0x60	; 96
	.db #0x3f	; 63
	.db #0x3f	; 63
	.db #0x7f	; 127
	.db #0x7f	; 127
	.db #0x0c	; 12
	.db #0x0c	; 12
	.db #0x0c	; 12
	.db #0x0c	; 12
	.db #0x0c	; 12
	.db #0x0c	; 12
	.db #0x0c	; 12
	.db #0x0c	; 12
	.db #0x3f	; 63
	.db #0x3f	; 63
	.db #0x7f	; 127
	.db #0x7f	; 127
	.db #0x23	; 35
	.db #0x23	; 35
	.db #0x73	; 115	's'
	.db #0x73	; 115	's'
	.db #0x73	; 115	's'
	.db #0x73	; 115	's'
	.db #0x6b	; 107	'k'
	.db #0x6b	; 107	'k'
	.db #0x6b	; 107	'k'
	.db #0x6b	; 107	'k'
	.db #0x67	; 103	'g'
	.db #0x67	; 103	'g'
	.db #0x67	; 103	'g'
	.db #0x67	; 103	'g'
	.db #0x63	; 99	'c'
	.db #0x63	; 99	'c'
	.db #0x3e	; 62
	.db #0x3e	; 62
	.db #0x7f	; 127
	.db #0x7f	; 127
	.db #0x61	; 97	'a'
	.db #0x61	; 97	'a'
	.db #0x60	; 96
	.db #0x60	; 96
	.db #0x60	; 96
	.db #0x60	; 96
	.db #0x61	; 97	'a'
	.db #0x61	; 97	'a'
	.db #0x7f	; 127
	.db #0x7f	; 127
	.db #0x3e	; 62
	.db #0x3e	; 62
	.db #0x3e	; 62
	.db #0x3e	; 62
	.db #0x7f	; 127
	.db #0x7f	; 127
	.db #0x61	; 97	'a'
	.db #0x61	; 97	'a'
	.db #0x7c	; 124
	.db #0x7c	; 124
	.db #0x7c	; 124
	.db #0x7c	; 124
	.db #0x61	; 97	'a'
	.db #0x61	; 97	'a'
	.db #0x7f	; 127
	.db #0x7f	; 127
	.db #0x3e	; 62
	.db #0x3e	; 62
	.db #0x00	; 0
	.db #0x00	; 0
	.db #0x00	; 0
	.db #0x00	; 0
	.db #0x00	; 0
	.db #0x00	; 0
	.db #0x00	; 0
	.db #0x00	; 0
	.db #0x00	; 0
	.db #0x00	; 0
	.db #0x00	; 0
	.db #0x00	; 0
	.db #0x00	; 0
	.db #0x00	; 0
	.db #0x00	; 0
	.db #0x00	; 0
	.db #0x00	; 0
	.db #0x00	; 0
	.db #0x00	; 0
	.db #0x00	; 0
	.db #0x00	; 0
	.db #0x00	; 0
	.db #0x00	; 0
	.db #0x00	; 0
	.db #0x00	; 0
	.db #0x00	; 0
	.db #0x00	; 0
	.db #0x00	; 0
	.db #0x00	; 0
	.db #0x00	; 0
	.db #0x00	; 0
	.db #0x00	; 0
	.db #0x00	; 0
	.db #0x00	; 0
	.db #0x00	; 0
	.db #0x00	; 0
	.db #0x00	; 0
	.db #0x00	; 0
	.db #0x00	; 0
	.db #0x00	; 0
	.db #0x00	; 0
	.db #0x00	; 0
	.db #0x00	; 0
	.db #0x00	; 0
	.db #0x00	; 0
	.db #0x00	; 0
	.db #0x00	; 0
	.db #0x00	; 0
	.db #0x00	; 0
	.db #0x00	; 0
	.db #0x00	; 0
	.db #0x00	; 0
	.db #0x00	; 0
	.db #0x00	; 0
	.db #0x00	; 0
	.db #0x00	; 0
	.db #0x00	; 0
	.db #0x00	; 0
	.db #0x00	; 0
	.db #0x00	; 0
	.db #0x00	; 0
	.db #0x00	; 0
	.db #0x00	; 0
	.db #0x00	; 0
	.db #0x00	; 0
	.db #0x00	; 0
	.db #0x00	; 0
	.db #0x00	; 0
	.db #0x00	; 0
	.db #0x00	; 0
	.db #0x00	; 0
	.db #0x00	; 0
	.db #0x00	; 0
	.db #0x00	; 0
	.db #0x00	; 0
	.db #0x00	; 0
	.db #0x00	; 0
	.db #0x00	; 0
	.db #0x00	; 0
	.db #0x00	; 0
	.db #0x00	; 0
	.db #0x00	; 0
	.db #0x00	; 0
	.db #0x00	; 0
	.db #0x00	; 0
	.db #0x00	; 0
	.db #0x00	; 0
	.db #0x00	; 0
	.db #0x00	; 0
	.db #0x00	; 0
	.db #0x00	; 0
	.db #0x00	; 0
	.db #0x00	; 0
	.db #0x00	; 0
	.db #0x00	; 0
	.db #0x00	; 0
	.db #0x00	; 0
	.db #0x00	; 0
	.db #0x00	; 0
	.db #0x00	; 0
	.db #0x00	; 0
	.db #0x00	; 0
	.db #0x00	; 0
	.db #0x00	; 0
	.db #0x00	; 0
	.db #0x00	; 0
	.db #0x00	; 0
	.db #0x00	; 0
	.db #0x00	; 0
	.db #0x00	; 0
	.db #0x00	; 0
	.db #0x00	; 0
	.db #0x00	; 0
	.db #0x00	; 0
	.db #0x00	; 0
	.db #0x00	; 0
	.db #0x00	; 0
	.db #0x00	; 0
	.db #0x00	; 0
	.db #0x00	; 0
	.db #0x00	; 0
	.db #0x00	; 0
	.db #0x00	; 0
	.db #0x00	; 0
	.db #0x00	; 0
	.db #0x00	; 0
	.db #0x00	; 0
	.db #0x00	; 0
	.db #0x00	; 0
	.db #0x00	; 0
	.db #0x00	; 0
	.db #0x00	; 0
	.db #0x00	; 0
	.db #0x00	; 0
	.db #0x00	; 0
	.db #0x00	; 0
	.db #0x00	; 0
	.db #0x00	; 0
	.db #0x00	; 0
	.db #0x00	; 0
	.db #0x00	; 0
	.db #0x00	; 0
	.db #0x00	; 0
	.db #0x00	; 0
	.db #0x00	; 0
	.db #0x00	; 0
	.db #0x00	; 0
	.db #0x00	; 0
	.db #0x00	; 0
	.db #0x00	; 0
	.db #0x00	; 0
	.db #0x00	; 0
	.db #0x00	; 0
	.db #0x00	; 0
	.db #0x00	; 0
	.db #0x00	; 0
	.db #0x00	; 0
	.db #0x00	; 0
	.db #0x00	; 0
	.db #0x00	; 0
	.db #0x00	; 0
	.db #0x00	; 0
	.db #0x00	; 0
	.db #0x00	; 0
	.db #0x00	; 0
	.db #0x00	; 0
	.db #0x00	; 0
	.db #0x00	; 0
	.db #0x00	; 0
	.db #0x00	; 0
	.db #0x00	; 0
	.db #0x00	; 0
	.db #0x00	; 0
	.db #0x00	; 0
	.db #0x00	; 0
	.db #0x00	; 0
	.db #0x00	; 0
	.db #0x00	; 0
	.db #0x00	; 0
	.db #0x00	; 0
	.db #0x00	; 0
	.db #0x00	; 0
	.db #0x00	; 0
	.db #0x00	; 0
	.db #0x00	; 0
	.db #0x00	; 0
	.db #0x00	; 0
	.db #0x00	; 0
	.db #0x00	; 0
	.db #0x00	; 0
	.db #0x00	; 0
	.db #0x00	; 0
	.db #0x00	; 0
	.db #0x00	; 0
	.db #0x00	; 0
	.db #0x00	; 0
	.db #0x00	; 0
	.db #0x00	; 0
	.db #0x00	; 0
	.db #0x00	; 0
	.db #0x00	; 0
	.db #0x00	; 0
	.db #0x00	; 0
	.db #0x00	; 0
	.db #0x00	; 0
	.db #0x00	; 0
	.db #0x00	; 0
	.db #0x00	; 0
	.db #0x00	; 0
	.db #0x00	; 0
	.db #0x00	; 0
	.db #0x00	; 0
	.db #0x00	; 0
	.db #0x00	; 0
	.db #0x00	; 0
	.db #0x00	; 0
	.db #0x00	; 0
	.db #0x00	; 0
	.db #0x00	; 0
	.db #0x00	; 0
	.db #0x00	; 0
	.db #0x00	; 0
	.db #0x00	; 0
	.db #0x00	; 0
	.db #0x00	; 0
	.db #0x00	; 0
	.db #0x00	; 0
	.db #0x00	; 0
	.db #0x00	; 0
	.db #0x00	; 0
	.db #0x00	; 0
	.db #0x00	; 0
	.db #0x00	; 0
	.db #0x00	; 0
	.db #0x00	; 0
	.db #0x00	; 0
	.db #0x00	; 0
	.db #0x00	; 0
	.db #0x00	; 0
	.db #0x00	; 0
	.db #0x00	; 0
	.db #0x00	; 0
	.db #0x00	; 0
	.db #0x00	; 0
	.db #0x00	; 0
	.db #0x00	; 0
	.db #0x00	; 0
	.db #0x00	; 0
	.db #0x00	; 0
	.db #0x00	; 0
	.db #0x00	; 0
	.db #0x00	; 0
	.db #0x00	; 0
	.db #0x00	; 0
	.db #0x00	; 0
	.db #0x00	; 0
	.db #0x00	; 0
	.db #0x00	; 0
	.db #0x00	; 0
	.db #0x00	; 0
	.db #0x00	; 0
	.db #0x00	; 0
	.db #0x00	; 0
	.db #0x00	; 0
	.db #0x00	; 0
	.db #0x00	; 0
	.db #0x00	; 0
	.db #0x00	; 0
	.db #0x00	; 0
	.db #0x00	; 0
	.db #0x00	; 0
	.db #0x00	; 0
	.db #0x00	; 0
	.db #0x00	; 0
	.db #0x00	; 0
	.db #0x00	; 0
	.db #0x00	; 0
	.db #0x00	; 0
	.db #0x00	; 0
	.db #0x00	; 0
	.db #0x00	; 0
	.db #0x00	; 0
	.db #0x00	; 0
	.db #0x00	; 0
	.db #0x00	; 0
	.db #0x00	; 0
	.db #0x00	; 0
	.db #0x00	; 0
	.db #0x00	; 0
	.db #0x00	; 0
	.db #0x00	; 0
	.db #0x00	; 0
	.db #0x00	; 0
	.db #0x00	; 0
	.db #0x00	; 0
	.db #0x00	; 0
	.db #0x00	; 0
	.db #0x00	; 0
	.db #0x00	; 0
	.db #0x00	; 0
	.db #0x00	; 0
	.db #0x00	; 0
	.db #0x00	; 0
	.db #0x00	; 0
	.db #0x00	; 0
	.db #0x00	; 0
	.db #0x00	; 0
	.db #0x00	; 0
	.db #0x00	; 0
	.db #0x00	; 0
	.db #0x00	; 0
	.db #0x00	; 0
	.db #0x00	; 0
	.db #0x00	; 0
	.db #0x00	; 0
	.db #0x00	; 0
	.db #0x00	; 0
	.db #0x00	; 0
	.db #0x00	; 0
	.db #0x00	; 0
	.db #0x00	; 0
	.db #0x00	; 0
	.db #0x00	; 0
	.db #0x00	; 0
	.db #0x00	; 0
	.db #0x00	; 0
	.db #0x00	; 0
	.db #0x00	; 0
	.db #0x00	; 0
	.db #0x00	; 0
	.db #0x00	; 0
	.db #0x00	; 0
	.db #0x00	; 0
	.db #0x00	; 0
	.db #0x00	; 0
	.db #0x00	; 0
	.db #0x00	; 0
	.db #0x00	; 0
	.db #0x00	; 0
	.db #0x00	; 0
	.db #0x00	; 0
	.db #0x00	; 0
	.db #0x00	; 0
	.db #0x00	; 0
	.db #0x00	; 0
	.db #0x00	; 0
	.db #0x00	; 0
	.db #0x00	; 0
	.db #0x00	; 0
	.db #0x00	; 0
	.db #0x00	; 0
	.db #0x00	; 0
	.db #0x00	; 0
	.db #0x00	; 0
	.db #0x00	; 0
	.db #0x00	; 0
	.db #0x00	; 0
	.db #0x00	; 0
	.db #0x00	; 0
	.db #0x00	; 0
	.db #0x00	; 0
	.db #0x00	; 0
	.db #0x00	; 0
	.db #0x00	; 0
	.db #0x00	; 0
	.db #0x00	; 0
	.db #0x00	; 0
	.db #0x00	; 0
	.db #0x00	; 0
	.db #0x00	; 0
	.db #0x00	; 0
	.db #0x00	; 0
	.db #0x00	; 0
	.db #0x00	; 0
	.db #0x00	; 0
	.db #0x00	; 0
	.db #0x00	; 0
	.db #0x00	; 0
	.db #0x00	; 0
	.db #0x00	; 0
	.db #0x00	; 0
	.db #0x00	; 0
	.db #0x00	; 0
	.db #0x00	; 0
	.db #0x00	; 0
	.db #0x00	; 0
	.db #0x00	; 0
	.db #0x00	; 0
	.db #0x00	; 0
	.db #0x00	; 0
	.db #0x00	; 0
	.db #0x00	; 0
	.db #0x00	; 0
	.db #0x00	; 0
	.db #0x00	; 0
	.db #0x00	; 0
	.db #0x00	; 0
	.db #0x00	; 0
	.db #0x00	; 0
	.db #0x00	; 0
	.db #0x00	; 0
	.db #0x00	; 0
	.db #0x00	; 0
	.db #0x00	; 0
	.db #0x00	; 0
	.db #0x00	; 0
	.db #0x00	; 0
	.db #0x00	; 0
	.db #0x00	; 0
	.db #0x00	; 0
	.db #0x00	; 0
	.db #0x00	; 0
	.db #0x00	; 0
	.db #0x00	; 0
	.db #0x00	; 0
	.db #0x00	; 0
	.area _CABS (ABS)
