                                      1 ;--------------------------------------------------------
                                      2 ; File Created by SDCC : free open source ISO C Compiler 
                                      3 ; Version 4.2.2 #13350 (MINGW64)
                                      4 ;--------------------------------------------------------
                                      5 	.module main
                                      6 	.optsdcc -msm83
                                      7 	
                                      8 ;--------------------------------------------------------
                                      9 ; Public variables in this module
                                     10 ;--------------------------------------------------------
                                     11 	.globl _main
                                     12 	.globl _startup
                                     13 	.globl _game
                                     14 	.globl _scoreInit
                                     15 	.globl _scoreUpdate
                                     16 	.globl _scoreDisplay
                                     17 	.globl _level
                                     18 	.globl _frameController
                                     19 	.globl _squarePatternR
                                     20 	.globl _squarePattern
                                     21 	.globl _enemyUpdate
                                     22 	.globl _enemyInit
                                     23 	.globl _goToNode
                                     24 	.globl _deactivateEnemy
                                     25 	.globl _activateEnemy
                                     26 	.globl _moveEnemy
                                     27 	.globl _playerUpdate
                                     28 	.globl _bulletUpdate
                                     29 	.globl _playerMovement
                                     30 	.globl _playerInit
                                     31 	.globl _mainMenu
                                     32 	.globl _set_sprite_data
                                     33 	.globl _set_bkg_tiles
                                     34 	.globl _set_bkg_data
                                     35 	.globl _wait_vbl_done
                                     36 	.globl _joypad
                                     37 	.globl _delay
                                     38 	.globl _titleSprites
                                     39 	.globl _titleScreen
                                     40 	.globl _state
                                     41 	.globl _score10000
                                     42 	.globl _score1000
                                     43 	.globl _score100
                                     44 	.globl _score10
                                     45 	.globl _score1
                                     46 	.globl _frame
                                     47 	.globl _seconds
                                     48 	.globl _skulls
                                     49 	.globl _bullets
                                     50 	.globl _player
                                     51 	.globl _reload
                                     52 	.globl _currentBullet
                                     53 	.globl _sprites
                                     54 ;--------------------------------------------------------
                                     55 ; special function registers
                                     56 ;--------------------------------------------------------
                                     57 ;--------------------------------------------------------
                                     58 ; ram data
                                     59 ;--------------------------------------------------------
                                     60 	.area _DATA
      000000                         61 _currentBullet::
      000000                         62 	.ds 1
      000001                         63 _reload::
      000001                         64 	.ds 1
      000002                         65 _player::
      000002                         66 	.ds 4
      000006                         67 _bullets::
      000006                         68 	.ds 15
      000015                         69 _skulls::
      000015                         70 	.ds 300
      000141                         71 _seconds::
      000141                         72 	.ds 1
      000142                         73 _frame::
      000142                         74 	.ds 1
      000143                         75 _score1::
      000143                         76 	.ds 1
      000144                         77 _score10::
      000144                         78 	.ds 1
      000145                         79 _score100::
      000145                         80 	.ds 1
      000146                         81 _score1000::
      000146                         82 	.ds 1
      000147                         83 _score10000::
      000147                         84 	.ds 1
      000148                         85 _state::
      000148                         86 	.ds 1
                                     87 ;--------------------------------------------------------
                                     88 ; ram data
                                     89 ;--------------------------------------------------------
                                     90 	.area _INITIALIZED
      000000                         91 _titleScreen::
      000000                         92 	.ds 360
      000168                         93 _titleSprites::
      000168                         94 	.ds 2048
                                     95 ;--------------------------------------------------------
                                     96 ; absolute external ram data
                                     97 ;--------------------------------------------------------
                                     98 	.area _DABS (ABS)
                                     99 ;--------------------------------------------------------
                                    100 ; global & static initialisations
                                    101 ;--------------------------------------------------------
                                    102 	.area _HOME
                                    103 	.area _GSINIT
                                    104 	.area _GSFINAL
                                    105 	.area _GSINIT
                                    106 ;--------------------------------------------------------
                                    107 ; Home
                                    108 ;--------------------------------------------------------
                                    109 	.area _HOME
                                    110 	.area _HOME
                                    111 ;--------------------------------------------------------
                                    112 ; code
                                    113 ;--------------------------------------------------------
                                    114 	.area _CODE
                                    115 ;src/title.c:6: uint8_t mainMenu() {
                                    116 ;	---------------------------------
                                    117 ; Function mainMenu
                                    118 ; ---------------------------------
      000000                        119 _mainMenu::
                                    120 ;src/title.c:10: selection = 1;
      000000 0E 01            [ 8]  121 	ld	c, #0x01
                                    122 ;src/title.c:12: set_bkg_tiles   ( 0,   0, 20, 18 , titleScreen);
      000002 11r00r00         [12]  123 	ld	de, #_titleScreen
      000005 D5               [16]  124 	push	de
      000006 21 14 12         [12]  125 	ld	hl, #0x1214
      000009 E5               [16]  126 	push	hl
      00000A AF               [ 4]  127 	xor	a, a
      00000B 0F               [ 4]  128 	rrca
      00000C F5               [16]  129 	push	af
      00000D CDr00r00         [24]  130 	call	_set_bkg_tiles
      000010 E8 06            [16]  131 	add	sp, #6
                                    132 ;src/title.c:13: set_bkg_data    ( 0, 127, titleSprites);
      000012 11r68r01         [12]  133 	ld	de, #_titleSprites
      000015 D5               [16]  134 	push	de
      000016 21 00 7F         [12]  135 	ld	hl, #0x7f00
      000019 E5               [16]  136 	push	hl
      00001A CDr00r00         [24]  137 	call	_set_bkg_data
      00001D E8 04            [16]  138 	add	sp, #4
                                    139 ;src/title.c:14: set_sprite_data ( 0, 2,sprites);
      00001F 11r8Dr00         [12]  140 	ld	de, #_sprites
      000022 D5               [16]  141 	push	de
      000023 3E 02            [ 8]  142 	ld	a, #0x02
      000025 F5               [16]  143 	push	af
      000026 33               [ 8]  144 	inc	sp
      000027 AF               [ 4]  145 	xor	a, a
      000028 F5               [16]  146 	push	af
      000029 33               [ 8]  147 	inc	sp
      00002A CDr00r00         [24]  148 	call	_set_sprite_data
      00002D E8 04            [16]  149 	add	sp, #4
                                    150 ;c:/gbdk/include/gb/gb.h:1602: shadow_OAM[nb].tile=tile;
      00002F 21r02r00         [12]  151 	ld	hl, #(_shadow_OAM + 2)
      000032 36 01            [12]  152 	ld	(hl), #0x01
                                    153 ;src/title.c:17: while(1) {
      000034                        154 00118$:
                                    155 ;src/title.c:18: if (joypad() & J_DOWN)  { selection ++; }
      000034 CDr00r00         [24]  156 	call	_joypad
      000037 CB 5F            [ 8]  157 	bit	3, a
      000039 28 01            [12]  158 	jr	Z, 00102$
      00003B 0C               [ 4]  159 	inc	c
      00003C                        160 00102$:
                                    161 ;src/title.c:19: if (joypad() & J_UP)    { selection --; }
      00003C CDr00r00         [24]  162 	call	_joypad
      00003F CB 57            [ 8]  163 	bit	2, a
      000041 28 01            [12]  164 	jr	Z, 00104$
      000043 0D               [ 4]  165 	dec	c
      000044                        166 00104$:
                                    167 ;src/title.c:20: if (selection == 0)     { selection = 1;}
      000044 79               [ 4]  168 	ld	a, c
      000045 B7               [ 4]  169 	or	a, a
      000046 20 02            [12]  170 	jr	NZ, 00106$
      000048 0E 01            [ 8]  171 	ld	c, #0x01
      00004A                        172 00106$:
                                    173 ;src/title.c:21: if (selection == 4)     { selection = 3;}
      00004A 79               [ 4]  174 	ld	a, c
      00004B D6 04            [ 8]  175 	sub	a, #0x04
      00004D 20 02            [12]  176 	jr	NZ, 00108$
      00004F 0E 03            [ 8]  177 	ld	c, #0x03
      000051                        178 00108$:
                                    179 ;src/title.c:24: if (selection == 1) { 
      000051 79               [ 4]  180 	ld	a, c
      000052 3D               [ 4]  181 	dec	a
      000053 20 14            [12]  182 	jr	NZ, 00112$
                                    183 ;c:/gbdk/include/gb/gb.h:1675: OAM_item_t * itm = &shadow_OAM[nb];
                                    184 ;c:/gbdk/include/gb/gb.h:1676: itm->y=y, itm->x=x;
      000055 21r00r00         [12]  185 	ld	hl, #_shadow_OAM
      000058 36 70            [12]  186 	ld	(hl), #0x70
      00005A 21r01r00         [12]  187 	ld	hl, #(_shadow_OAM + 1)
      00005D 36 64            [12]  188 	ld	(hl), #0x64
                                    189 ;src/title.c:26: if (joypad() & J_A) {
      00005F CDr00r00         [24]  190 	call	_joypad
      000062 CB 67            [ 8]  191 	bit	4, a
      000064 28 03            [12]  192 	jr	Z, 00112$
                                    193 ;src/title.c:27: return 3;
      000066 3E 03            [ 8]  194 	ld	a, #0x03
      000068 C9               [16]  195 	ret
                                    196 ;src/title.c:28: break;
      000069                        197 00112$:
                                    198 ;src/title.c:33: if (selection == 2) { 
      000069 79               [ 4]  199 	ld	a, c
      00006A D6 02            [ 8]  200 	sub	a, #0x02
      00006C 20 08            [12]  201 	jr	NZ, 00114$
                                    202 ;c:/gbdk/include/gb/gb.h:1675: OAM_item_t * itm = &shadow_OAM[nb];
      00006E 21r00r00         [12]  203 	ld	hl, #_shadow_OAM
                                    204 ;c:/gbdk/include/gb/gb.h:1676: itm->y=y, itm->x=x;
      000071 3E 80            [ 8]  205 	ld	a, #0x80
      000073 22               [ 8]  206 	ld	(hl+), a
      000074 36 64            [12]  207 	ld	(hl), #0x64
                                    208 ;src/title.c:34: move_sprite (0, 100, 128);
      000076                        209 00114$:
                                    210 ;src/title.c:38: if (selection == 3) { 
      000076 79               [ 4]  211 	ld	a, c
      000077 D6 03            [ 8]  212 	sub	a, #0x03
      000079 20 08            [12]  213 	jr	NZ, 00116$
                                    214 ;c:/gbdk/include/gb/gb.h:1675: OAM_item_t * itm = &shadow_OAM[nb];
      00007B 21r00r00         [12]  215 	ld	hl, #_shadow_OAM
                                    216 ;c:/gbdk/include/gb/gb.h:1676: itm->y=y, itm->x=x;
      00007E 36 90            [12]  217 	ld	(hl), #0x90
      000080 23               [ 8]  218 	inc	hl
      000081 36 64            [12]  219 	ld	(hl), #0x64
                                    220 ;src/title.c:39: move_sprite (0, 100, 144);
      000083                        221 00116$:
                                    222 ;src/title.c:42: delay(200);
      000083 C5               [16]  223 	push	bc
      000084 11 C8 00         [12]  224 	ld	de, #0x00c8
      000087 CDr00r00         [24]  225 	call	_delay
      00008A C1               [12]  226 	pop	bc
                                    227 ;src/title.c:44: }
      00008B 18 A7            [12]  228 	jr	00118$
      00008D                        229 _sprites:
      00008D 00                     230 	.db #0x00	; 0
      00008E 00                     231 	.db #0x00	; 0
      00008F 00                     232 	.db #0x00	; 0
      000090 00                     233 	.db #0x00	; 0
      000091 00                     234 	.db #0x00	; 0
      000092 00                     235 	.db #0x00	; 0
      000093 00                     236 	.db #0x00	; 0
      000094 00                     237 	.db #0x00	; 0
      000095 00                     238 	.db #0x00	; 0
      000096 00                     239 	.db #0x00	; 0
      000097 00                     240 	.db #0x00	; 0
      000098 00                     241 	.db #0x00	; 0
      000099 00                     242 	.db #0x00	; 0
      00009A 00                     243 	.db #0x00	; 0
      00009B 00                     244 	.db #0x00	; 0
      00009C 00                     245 	.db #0x00	; 0
      00009D 0E                     246 	.db #0x0e	; 14
      00009E 04                     247 	.db #0x04	; 4
      00009F 3E                     248 	.db #0x3e	; 62
      0000A0 0C                     249 	.db #0x0c	; 12
      0000A1 7F                     250 	.db #0x7f	; 127
      0000A2 3E                     251 	.db #0x3e	; 62
      0000A3 72                     252 	.db #0x72	; 114	'r'
      0000A4 1C                     253 	.db #0x1c	; 28
      0000A5 FF                     254 	.db #0xff	; 255
      0000A6 7C                     255 	.db #0x7c	; 124
      0000A7 7C                     256 	.db #0x7c	; 124
      0000A8 FF                     257 	.db #0xff	; 255
      0000A9 FF                     258 	.db #0xff	; 255
      0000AA 38                     259 	.db #0x38	; 56	'8'
      0000AB 38                     260 	.db #0x38	; 56	'8'
      0000AC 00                     261 	.db #0x00	; 0
      0000AD 00                     262 	.db #0x00	; 0
      0000AE 00                     263 	.db #0x00	; 0
      0000AF 00                     264 	.db #0x00	; 0
      0000B0 00                     265 	.db #0x00	; 0
      0000B1 00                     266 	.db #0x00	; 0
      0000B2 00                     267 	.db #0x00	; 0
      0000B3 0A                     268 	.db #0x0a	; 10
      0000B4 04                     269 	.db #0x04	; 4
      0000B5 FF                     270 	.db #0xff	; 255
      0000B6 02                     271 	.db #0x02	; 2
      0000B7 0A                     272 	.db #0x0a	; 10
      0000B8 04                     273 	.db #0x04	; 4
      0000B9 00                     274 	.db #0x00	; 0
      0000BA 00                     275 	.db #0x00	; 0
      0000BB 00                     276 	.db #0x00	; 0
      0000BC 00                     277 	.db #0x00	; 0
      0000BD 3C                     278 	.db #0x3c	; 60
      0000BE 00                     279 	.db #0x00	; 0
      0000BF 7E                     280 	.db #0x7e	; 126
      0000C0 3C                     281 	.db #0x3c	; 60
      0000C1 C3                     282 	.db #0xc3	; 195
      0000C2 7E                     283 	.db #0x7e	; 126
      0000C3 EB                     284 	.db #0xeb	; 235
      0000C4 7E                     285 	.db #0x7e	; 126
      0000C5 C3                     286 	.db #0xc3	; 195
      0000C6 7E                     287 	.db #0x7e	; 126
      0000C7 C6                     288 	.db #0xc6	; 198
      0000C8 7C                     289 	.db #0x7c	; 124
      0000C9 7C                     290 	.db #0x7c	; 124
      0000CA 38                     291 	.db #0x38	; 56	'8'
      0000CB 38                     292 	.db #0x38	; 56	'8'
      0000CC 00                     293 	.db #0x00	; 0
      0000CD 0F                     294 	.db #0x0f	; 15
      0000CE 00                     295 	.db #0x00	; 0
      0000CF 1F                     296 	.db #0x1f	; 31
      0000D0 0F                     297 	.db #0x0f	; 15
      0000D1 30                     298 	.db #0x30	; 48	'0'
      0000D2 1F                     299 	.db #0x1f	; 31
      0000D3 60                     300 	.db #0x60	; 96
      0000D4 3F                     301 	.db #0x3f	; 63
      0000D5 C0                     302 	.db #0xc0	; 192
      0000D6 7F                     303 	.db #0x7f	; 127
      0000D7 C0                     304 	.db #0xc0	; 192
      0000D8 7F                     305 	.db #0x7f	; 127
      0000D9 C0                     306 	.db #0xc0	; 192
      0000DA 7F                     307 	.db #0x7f	; 127
      0000DB C1                     308 	.db #0xc1	; 193
      0000DC 7F                     309 	.db #0x7f	; 127
      0000DD 77                     310 	.db #0x77	; 119	'w'
      0000DE 3E                     311 	.db #0x3e	; 62
      0000DF 63                     312 	.db #0x63	; 99	'c'
      0000E0 3F                     313 	.db #0x3f	; 63
      0000E1 D0                     314 	.db #0xd0	; 208
      0000E2 7F                     315 	.db #0x7f	; 127
      0000E3 D0                     316 	.db #0xd0	; 208
      0000E4 7F                     317 	.db #0x7f	; 127
      0000E5 63                     318 	.db #0x63	; 99	'c'
      0000E6 3F                     319 	.db #0x3f	; 63
      0000E7 61                     320 	.db #0x61	; 97	'a'
      0000E8 3F                     321 	.db #0x3f	; 63
      0000E9 3F                     322 	.db #0x3f	; 63
      0000EA 1F                     323 	.db #0x1f	; 31
      0000EB 1F                     324 	.db #0x1f	; 31
      0000EC 00                     325 	.db #0x00	; 0
      0000ED F0                     326 	.db #0xf0	; 240
      0000EE 00                     327 	.db #0x00	; 0
      0000EF F8                     328 	.db #0xf8	; 248
      0000F0 F0                     329 	.db #0xf0	; 240
      0000F1 0C                     330 	.db #0x0c	; 12
      0000F2 F8                     331 	.db #0xf8	; 248
      0000F3 0E                     332 	.db #0x0e	; 14
      0000F4 FC                     333 	.db #0xfc	; 252
      0000F5 1F                     334 	.db #0x1f	; 31
      0000F6 FE                     335 	.db #0xfe	; 254
      0000F7 1F                     336 	.db #0x1f	; 31
      0000F8 FE                     337 	.db #0xfe	; 254
      0000F9 3F                     338 	.db #0x3f	; 63
      0000FA FE                     339 	.db #0xfe	; 254
      0000FB 9F                     340 	.db #0x9f	; 159
      0000FC FE                     341 	.db #0xfe	; 254
      0000FD 8F                     342 	.db #0x8f	; 143
      0000FE FE                     343 	.db #0xfe	; 254
      0000FF 0E                     344 	.db #0x0e	; 14
      000100 FC                     345 	.db #0xfc	; 252
      000101 0C                     346 	.db #0x0c	; 12
      000102 F8                     347 	.db #0xf8	; 248
      000103 18                     348 	.db #0x18	; 24
      000104 F0                     349 	.db #0xf0	; 240
      000105 F0                     350 	.db #0xf0	; 240
      000106 E0                     351 	.db #0xe0	; 224
      000107 E0                     352 	.db #0xe0	; 224
      000108 00                     353 	.db #0x00	; 0
      000109 80                     354 	.db #0x80	; 128
      00010A 00                     355 	.db #0x00	; 0
      00010B 00                     356 	.db #0x00	; 0
      00010C 00                     357 	.db #0x00	; 0
      00010D 00                     358 	.db #0x00	; 0
      00010E 00                     359 	.db #0x00	; 0
      00010F 00                     360 	.db #0x00	; 0
      000110 00                     361 	.db #0x00	; 0
      000111 00                     362 	.db #0x00	; 0
      000112 00                     363 	.db #0x00	; 0
      000113 00                     364 	.db #0x00	; 0
      000114 00                     365 	.db #0x00	; 0
      000115 00                     366 	.db #0x00	; 0
      000116 00                     367 	.db #0x00	; 0
      000117 00                     368 	.db #0x00	; 0
      000118 00                     369 	.db #0x00	; 0
      000119 00                     370 	.db #0x00	; 0
      00011A 00                     371 	.db #0x00	; 0
      00011B 00                     372 	.db #0x00	; 0
      00011C 00                     373 	.db #0x00	; 0
      00011D 00                     374 	.db #0x00	; 0
      00011E 00                     375 	.db #0x00	; 0
      00011F 00                     376 	.db #0x00	; 0
      000120 00                     377 	.db #0x00	; 0
      000121 00                     378 	.db #0x00	; 0
      000122 00                     379 	.db #0x00	; 0
      000123 00                     380 	.db #0x00	; 0
      000124 00                     381 	.db #0x00	; 0
      000125 00                     382 	.db #0x00	; 0
      000126 00                     383 	.db #0x00	; 0
      000127 00                     384 	.db #0x00	; 0
      000128 00                     385 	.db #0x00	; 0
      000129 00                     386 	.db #0x00	; 0
      00012A 00                     387 	.db #0x00	; 0
      00012B 00                     388 	.db #0x00	; 0
      00012C 00                     389 	.db #0x00	; 0
      00012D 00                     390 	.db #0x00	; 0
      00012E 00                     391 	.db #0x00	; 0
      00012F 00                     392 	.db #0x00	; 0
      000130 00                     393 	.db #0x00	; 0
      000131 00                     394 	.db #0x00	; 0
      000132 00                     395 	.db #0x00	; 0
      000133 00                     396 	.db #0x00	; 0
      000134 00                     397 	.db #0x00	; 0
      000135 00                     398 	.db #0x00	; 0
      000136 00                     399 	.db #0x00	; 0
      000137 00                     400 	.db #0x00	; 0
      000138 00                     401 	.db #0x00	; 0
      000139 00                     402 	.db #0x00	; 0
      00013A 00                     403 	.db #0x00	; 0
      00013B 00                     404 	.db #0x00	; 0
      00013C 00                     405 	.db #0x00	; 0
      00013D 00                     406 	.db #0x00	; 0
      00013E 00                     407 	.db #0x00	; 0
      00013F 00                     408 	.db #0x00	; 0
      000140 00                     409 	.db #0x00	; 0
      000141 00                     410 	.db #0x00	; 0
      000142 00                     411 	.db #0x00	; 0
      000143 00                     412 	.db #0x00	; 0
      000144 00                     413 	.db #0x00	; 0
      000145 00                     414 	.db #0x00	; 0
      000146 00                     415 	.db #0x00	; 0
      000147 00                     416 	.db #0x00	; 0
      000148 00                     417 	.db #0x00	; 0
      000149 00                     418 	.db #0x00	; 0
      00014A 00                     419 	.db #0x00	; 0
      00014B 00                     420 	.db #0x00	; 0
      00014C 00                     421 	.db #0x00	; 0
      00014D 00                     422 	.db #0x00	; 0
      00014E 00                     423 	.db #0x00	; 0
      00014F 00                     424 	.db #0x00	; 0
      000150 00                     425 	.db #0x00	; 0
      000151 00                     426 	.db #0x00	; 0
      000152 00                     427 	.db #0x00	; 0
      000153 00                     428 	.db #0x00	; 0
      000154 00                     429 	.db #0x00	; 0
      000155 00                     430 	.db #0x00	; 0
      000156 00                     431 	.db #0x00	; 0
      000157 00                     432 	.db #0x00	; 0
      000158 00                     433 	.db #0x00	; 0
      000159 00                     434 	.db #0x00	; 0
      00015A 00                     435 	.db #0x00	; 0
      00015B 00                     436 	.db #0x00	; 0
      00015C 00                     437 	.db #0x00	; 0
      00015D 00                     438 	.db #0x00	; 0
      00015E 00                     439 	.db #0x00	; 0
      00015F 00                     440 	.db #0x00	; 0
      000160 00                     441 	.db #0x00	; 0
      000161 00                     442 	.db #0x00	; 0
      000162 00                     443 	.db #0x00	; 0
      000163 00                     444 	.db #0x00	; 0
      000164 00                     445 	.db #0x00	; 0
      000165 00                     446 	.db #0x00	; 0
      000166 00                     447 	.db #0x00	; 0
      000167 00                     448 	.db #0x00	; 0
      000168 00                     449 	.db #0x00	; 0
      000169 00                     450 	.db #0x00	; 0
      00016A 00                     451 	.db #0x00	; 0
      00016B 00                     452 	.db #0x00	; 0
      00016C 00                     453 	.db #0x00	; 0
      00016D 00                     454 	.db #0x00	; 0
      00016E 00                     455 	.db #0x00	; 0
      00016F 00                     456 	.db #0x00	; 0
      000170 00                     457 	.db #0x00	; 0
      000171 00                     458 	.db #0x00	; 0
      000172 00                     459 	.db #0x00	; 0
      000173 00                     460 	.db #0x00	; 0
      000174 00                     461 	.db #0x00	; 0
      000175 00                     462 	.db #0x00	; 0
      000176 00                     463 	.db #0x00	; 0
      000177 00                     464 	.db #0x00	; 0
      000178 00                     465 	.db #0x00	; 0
      000179 00                     466 	.db #0x00	; 0
      00017A 00                     467 	.db #0x00	; 0
      00017B 00                     468 	.db #0x00	; 0
      00017C 00                     469 	.db #0x00	; 0
      00017D 00                     470 	.db #0x00	; 0
      00017E 00                     471 	.db #0x00	; 0
      00017F 00                     472 	.db #0x00	; 0
      000180 00                     473 	.db #0x00	; 0
      000181 00                     474 	.db #0x00	; 0
      000182 00                     475 	.db #0x00	; 0
      000183 00                     476 	.db #0x00	; 0
      000184 00                     477 	.db #0x00	; 0
      000185 00                     478 	.db #0x00	; 0
      000186 00                     479 	.db #0x00	; 0
      000187 00                     480 	.db #0x00	; 0
      000188 00                     481 	.db #0x00	; 0
      000189 00                     482 	.db #0x00	; 0
      00018A 00                     483 	.db #0x00	; 0
      00018B 00                     484 	.db #0x00	; 0
      00018C 00                     485 	.db #0x00	; 0
      00018D 00                     486 	.db #0x00	; 0
      00018E 00                     487 	.db #0x00	; 0
      00018F 00                     488 	.db #0x00	; 0
      000190 00                     489 	.db #0x00	; 0
      000191 00                     490 	.db #0x00	; 0
      000192 00                     491 	.db #0x00	; 0
      000193 00                     492 	.db #0x00	; 0
      000194 00                     493 	.db #0x00	; 0
      000195 00                     494 	.db #0x00	; 0
      000196 00                     495 	.db #0x00	; 0
      000197 00                     496 	.db #0x00	; 0
      000198 00                     497 	.db #0x00	; 0
      000199 00                     498 	.db #0x00	; 0
      00019A 00                     499 	.db #0x00	; 0
      00019B 00                     500 	.db #0x00	; 0
      00019C 00                     501 	.db #0x00	; 0
      00019D 00                     502 	.db #0x00	; 0
      00019E 00                     503 	.db #0x00	; 0
      00019F 00                     504 	.db #0x00	; 0
      0001A0 00                     505 	.db #0x00	; 0
      0001A1 00                     506 	.db #0x00	; 0
      0001A2 00                     507 	.db #0x00	; 0
      0001A3 00                     508 	.db #0x00	; 0
      0001A4 00                     509 	.db #0x00	; 0
      0001A5 00                     510 	.db #0x00	; 0
      0001A6 00                     511 	.db #0x00	; 0
      0001A7 00                     512 	.db #0x00	; 0
      0001A8 00                     513 	.db #0x00	; 0
      0001A9 00                     514 	.db #0x00	; 0
      0001AA 00                     515 	.db #0x00	; 0
      0001AB 00                     516 	.db #0x00	; 0
      0001AC 00                     517 	.db #0x00	; 0
      0001AD 00                     518 	.db #0x00	; 0
      0001AE 00                     519 	.db #0x00	; 0
      0001AF 00                     520 	.db #0x00	; 0
      0001B0 00                     521 	.db #0x00	; 0
      0001B1 00                     522 	.db #0x00	; 0
      0001B2 00                     523 	.db #0x00	; 0
      0001B3 00                     524 	.db #0x00	; 0
      0001B4 00                     525 	.db #0x00	; 0
      0001B5 00                     526 	.db #0x00	; 0
      0001B6 00                     527 	.db #0x00	; 0
      0001B7 00                     528 	.db #0x00	; 0
      0001B8 00                     529 	.db #0x00	; 0
      0001B9 00                     530 	.db #0x00	; 0
      0001BA 00                     531 	.db #0x00	; 0
      0001BB 00                     532 	.db #0x00	; 0
      0001BC 00                     533 	.db #0x00	; 0
      0001BD 00                     534 	.db #0x00	; 0
      0001BE 00                     535 	.db #0x00	; 0
      0001BF 00                     536 	.db #0x00	; 0
      0001C0 00                     537 	.db #0x00	; 0
      0001C1 00                     538 	.db #0x00	; 0
      0001C2 00                     539 	.db #0x00	; 0
      0001C3 00                     540 	.db #0x00	; 0
      0001C4 00                     541 	.db #0x00	; 0
      0001C5 00                     542 	.db #0x00	; 0
      0001C6 00                     543 	.db #0x00	; 0
      0001C7 00                     544 	.db #0x00	; 0
      0001C8 00                     545 	.db #0x00	; 0
      0001C9 00                     546 	.db #0x00	; 0
      0001CA 00                     547 	.db #0x00	; 0
      0001CB 00                     548 	.db #0x00	; 0
      0001CC 00                     549 	.db #0x00	; 0
      0001CD 00                     550 	.db #0x00	; 0
      0001CE 00                     551 	.db #0x00	; 0
      0001CF 00                     552 	.db #0x00	; 0
      0001D0 00                     553 	.db #0x00	; 0
      0001D1 00                     554 	.db #0x00	; 0
      0001D2 00                     555 	.db #0x00	; 0
      0001D3 00                     556 	.db #0x00	; 0
      0001D4 00                     557 	.db #0x00	; 0
      0001D5 00                     558 	.db #0x00	; 0
      0001D6 00                     559 	.db #0x00	; 0
      0001D7 00                     560 	.db #0x00	; 0
      0001D8 00                     561 	.db #0x00	; 0
      0001D9 00                     562 	.db #0x00	; 0
      0001DA 00                     563 	.db #0x00	; 0
      0001DB 00                     564 	.db #0x00	; 0
      0001DC 00                     565 	.db #0x00	; 0
      0001DD 00                     566 	.db #0x00	; 0
      0001DE 00                     567 	.db #0x00	; 0
      0001DF 00                     568 	.db #0x00	; 0
      0001E0 00                     569 	.db #0x00	; 0
      0001E1 00                     570 	.db #0x00	; 0
      0001E2 00                     571 	.db #0x00	; 0
      0001E3 00                     572 	.db #0x00	; 0
      0001E4 00                     573 	.db #0x00	; 0
      0001E5 00                     574 	.db #0x00	; 0
      0001E6 00                     575 	.db #0x00	; 0
      0001E7 00                     576 	.db #0x00	; 0
      0001E8 00                     577 	.db #0x00	; 0
      0001E9 00                     578 	.db #0x00	; 0
      0001EA 00                     579 	.db #0x00	; 0
      0001EB 00                     580 	.db #0x00	; 0
      0001EC 00                     581 	.db #0x00	; 0
      0001ED 00                     582 	.db #0x00	; 0
      0001EE 00                     583 	.db #0x00	; 0
      0001EF 00                     584 	.db #0x00	; 0
      0001F0 00                     585 	.db #0x00	; 0
      0001F1 00                     586 	.db #0x00	; 0
      0001F2 00                     587 	.db #0x00	; 0
      0001F3 00                     588 	.db #0x00	; 0
      0001F4 00                     589 	.db #0x00	; 0
      0001F5 00                     590 	.db #0x00	; 0
      0001F6 00                     591 	.db #0x00	; 0
      0001F7 00                     592 	.db #0x00	; 0
      0001F8 00                     593 	.db #0x00	; 0
      0001F9 00                     594 	.db #0x00	; 0
      0001FA 00                     595 	.db #0x00	; 0
      0001FB 00                     596 	.db #0x00	; 0
      0001FC 00                     597 	.db #0x00	; 0
      0001FD 00                     598 	.db #0x00	; 0
      0001FE 00                     599 	.db #0x00	; 0
      0001FF 00                     600 	.db #0x00	; 0
      000200 00                     601 	.db #0x00	; 0
      000201 00                     602 	.db #0x00	; 0
      000202 00                     603 	.db #0x00	; 0
      000203 00                     604 	.db #0x00	; 0
      000204 00                     605 	.db #0x00	; 0
      000205 00                     606 	.db #0x00	; 0
      000206 00                     607 	.db #0x00	; 0
      000207 00                     608 	.db #0x00	; 0
      000208 00                     609 	.db #0x00	; 0
      000209 00                     610 	.db #0x00	; 0
      00020A 00                     611 	.db #0x00	; 0
      00020B 00                     612 	.db #0x00	; 0
      00020C 00                     613 	.db #0x00	; 0
      00020D 00                     614 	.db #0x00	; 0
      00020E 00                     615 	.db #0x00	; 0
      00020F 00                     616 	.db #0x00	; 0
      000210 00                     617 	.db #0x00	; 0
      000211 00                     618 	.db #0x00	; 0
      000212 00                     619 	.db #0x00	; 0
      000213 00                     620 	.db #0x00	; 0
      000214 00                     621 	.db #0x00	; 0
      000215 00                     622 	.db #0x00	; 0
      000216 00                     623 	.db #0x00	; 0
      000217 00                     624 	.db #0x00	; 0
      000218 00                     625 	.db #0x00	; 0
      000219 00                     626 	.db #0x00	; 0
      00021A 00                     627 	.db #0x00	; 0
      00021B 00                     628 	.db #0x00	; 0
      00021C 00                     629 	.db #0x00	; 0
      00021D 00                     630 	.db #0x00	; 0
      00021E 00                     631 	.db #0x00	; 0
      00021F 00                     632 	.db #0x00	; 0
      000220 00                     633 	.db #0x00	; 0
      000221 00                     634 	.db #0x00	; 0
      000222 00                     635 	.db #0x00	; 0
      000223 00                     636 	.db #0x00	; 0
      000224 00                     637 	.db #0x00	; 0
      000225 00                     638 	.db #0x00	; 0
      000226 00                     639 	.db #0x00	; 0
      000227 00                     640 	.db #0x00	; 0
      000228 00                     641 	.db #0x00	; 0
      000229 00                     642 	.db #0x00	; 0
      00022A 00                     643 	.db #0x00	; 0
      00022B 00                     644 	.db #0x00	; 0
      00022C 00                     645 	.db #0x00	; 0
      00022D 00                     646 	.db #0x00	; 0
      00022E 00                     647 	.db #0x00	; 0
      00022F 00                     648 	.db #0x00	; 0
      000230 00                     649 	.db #0x00	; 0
      000231 00                     650 	.db #0x00	; 0
      000232 00                     651 	.db #0x00	; 0
      000233 00                     652 	.db #0x00	; 0
      000234 00                     653 	.db #0x00	; 0
      000235 00                     654 	.db #0x00	; 0
      000236 00                     655 	.db #0x00	; 0
      000237 00                     656 	.db #0x00	; 0
      000238 00                     657 	.db #0x00	; 0
      000239 00                     658 	.db #0x00	; 0
      00023A 00                     659 	.db #0x00	; 0
      00023B 00                     660 	.db #0x00	; 0
      00023C 00                     661 	.db #0x00	; 0
      00023D 00                     662 	.db #0x00	; 0
      00023E 00                     663 	.db #0x00	; 0
      00023F 00                     664 	.db #0x00	; 0
      000240 00                     665 	.db #0x00	; 0
      000241 00                     666 	.db #0x00	; 0
      000242 00                     667 	.db #0x00	; 0
      000243 00                     668 	.db #0x00	; 0
      000244 00                     669 	.db #0x00	; 0
      000245 00                     670 	.db #0x00	; 0
      000246 00                     671 	.db #0x00	; 0
      000247 00                     672 	.db #0x00	; 0
      000248 00                     673 	.db #0x00	; 0
      000249 00                     674 	.db #0x00	; 0
      00024A 00                     675 	.db #0x00	; 0
      00024B 00                     676 	.db #0x00	; 0
      00024C 00                     677 	.db #0x00	; 0
      00024D 00                     678 	.db #0x00	; 0
      00024E 00                     679 	.db #0x00	; 0
      00024F 00                     680 	.db #0x00	; 0
      000250 00                     681 	.db #0x00	; 0
      000251 00                     682 	.db #0x00	; 0
      000252 00                     683 	.db #0x00	; 0
      000253 00                     684 	.db #0x00	; 0
      000254 00                     685 	.db #0x00	; 0
      000255 00                     686 	.db #0x00	; 0
      000256 00                     687 	.db #0x00	; 0
      000257 00                     688 	.db #0x00	; 0
      000258 00                     689 	.db #0x00	; 0
      000259 00                     690 	.db #0x00	; 0
      00025A 00                     691 	.db #0x00	; 0
      00025B 00                     692 	.db #0x00	; 0
      00025C 00                     693 	.db #0x00	; 0
      00025D 00                     694 	.db #0x00	; 0
      00025E 00                     695 	.db #0x00	; 0
      00025F 00                     696 	.db #0x00	; 0
      000260 00                     697 	.db #0x00	; 0
      000261 00                     698 	.db #0x00	; 0
      000262 00                     699 	.db #0x00	; 0
      000263 00                     700 	.db #0x00	; 0
      000264 00                     701 	.db #0x00	; 0
      000265 00                     702 	.db #0x00	; 0
      000266 00                     703 	.db #0x00	; 0
      000267 00                     704 	.db #0x00	; 0
      000268 00                     705 	.db #0x00	; 0
      000269 00                     706 	.db #0x00	; 0
      00026A 00                     707 	.db #0x00	; 0
      00026B 00                     708 	.db #0x00	; 0
      00026C 00                     709 	.db #0x00	; 0
      00026D 00                     710 	.db #0x00	; 0
      00026E 00                     711 	.db #0x00	; 0
      00026F 00                     712 	.db #0x00	; 0
      000270 00                     713 	.db #0x00	; 0
      000271 00                     714 	.db #0x00	; 0
      000272 00                     715 	.db #0x00	; 0
      000273 00                     716 	.db #0x00	; 0
      000274 00                     717 	.db #0x00	; 0
      000275 00                     718 	.db #0x00	; 0
      000276 00                     719 	.db #0x00	; 0
      000277 00                     720 	.db #0x00	; 0
      000278 00                     721 	.db #0x00	; 0
      000279 00                     722 	.db #0x00	; 0
      00027A 00                     723 	.db #0x00	; 0
      00027B 00                     724 	.db #0x00	; 0
      00027C 00                     725 	.db #0x00	; 0
      00027D 00                     726 	.db #0x00	; 0
      00027E 00                     727 	.db #0x00	; 0
      00027F 00                     728 	.db #0x00	; 0
      000280 00                     729 	.db #0x00	; 0
      000281 00                     730 	.db #0x00	; 0
      000282 00                     731 	.db #0x00	; 0
      000283 00                     732 	.db #0x00	; 0
      000284 00                     733 	.db #0x00	; 0
      000285 00                     734 	.db #0x00	; 0
      000286 00                     735 	.db #0x00	; 0
      000287 00                     736 	.db #0x00	; 0
      000288 00                     737 	.db #0x00	; 0
      000289 00                     738 	.db #0x00	; 0
      00028A 00                     739 	.db #0x00	; 0
      00028B 00                     740 	.db #0x00	; 0
      00028C 00                     741 	.db #0x00	; 0
      00028D 00                     742 	.db #0x00	; 0
      00028E 00                     743 	.db #0x00	; 0
      00028F 00                     744 	.db #0x00	; 0
      000290 00                     745 	.db #0x00	; 0
      000291 00                     746 	.db #0x00	; 0
      000292 00                     747 	.db #0x00	; 0
      000293 00                     748 	.db #0x00	; 0
      000294 00                     749 	.db #0x00	; 0
      000295 00                     750 	.db #0x00	; 0
      000296 00                     751 	.db #0x00	; 0
      000297 00                     752 	.db #0x00	; 0
      000298 00                     753 	.db #0x00	; 0
      000299 00                     754 	.db #0x00	; 0
      00029A 00                     755 	.db #0x00	; 0
      00029B 00                     756 	.db #0x00	; 0
      00029C 00                     757 	.db #0x00	; 0
      00029D 00                     758 	.db #0x00	; 0
      00029E 00                     759 	.db #0x00	; 0
      00029F 00                     760 	.db #0x00	; 0
      0002A0 00                     761 	.db #0x00	; 0
      0002A1 00                     762 	.db #0x00	; 0
      0002A2 00                     763 	.db #0x00	; 0
      0002A3 00                     764 	.db #0x00	; 0
      0002A4 00                     765 	.db #0x00	; 0
      0002A5 00                     766 	.db #0x00	; 0
      0002A6 00                     767 	.db #0x00	; 0
      0002A7 00                     768 	.db #0x00	; 0
      0002A8 00                     769 	.db #0x00	; 0
      0002A9 00                     770 	.db #0x00	; 0
      0002AA 00                     771 	.db #0x00	; 0
      0002AB 00                     772 	.db #0x00	; 0
      0002AC 00                     773 	.db #0x00	; 0
      0002AD 00                     774 	.db #0x00	; 0
      0002AE 00                     775 	.db #0x00	; 0
      0002AF 00                     776 	.db #0x00	; 0
      0002B0 00                     777 	.db #0x00	; 0
      0002B1 00                     778 	.db #0x00	; 0
      0002B2 00                     779 	.db #0x00	; 0
      0002B3 00                     780 	.db #0x00	; 0
      0002B4 00                     781 	.db #0x00	; 0
      0002B5 00                     782 	.db #0x00	; 0
      0002B6 00                     783 	.db #0x00	; 0
      0002B7 00                     784 	.db #0x00	; 0
      0002B8 00                     785 	.db #0x00	; 0
      0002B9 00                     786 	.db #0x00	; 0
      0002BA 00                     787 	.db #0x00	; 0
      0002BB 00                     788 	.db #0x00	; 0
      0002BC 00                     789 	.db #0x00	; 0
      0002BD 00                     790 	.db #0x00	; 0
      0002BE 00                     791 	.db #0x00	; 0
      0002BF 00                     792 	.db #0x00	; 0
      0002C0 00                     793 	.db #0x00	; 0
      0002C1 00                     794 	.db #0x00	; 0
      0002C2 00                     795 	.db #0x00	; 0
      0002C3 00                     796 	.db #0x00	; 0
      0002C4 00                     797 	.db #0x00	; 0
      0002C5 00                     798 	.db #0x00	; 0
      0002C6 00                     799 	.db #0x00	; 0
      0002C7 00                     800 	.db #0x00	; 0
      0002C8 00                     801 	.db #0x00	; 0
      0002C9 00                     802 	.db #0x00	; 0
      0002CA 00                     803 	.db #0x00	; 0
      0002CB 00                     804 	.db #0x00	; 0
      0002CC 00                     805 	.db #0x00	; 0
      0002CD 00                     806 	.db #0x00	; 0
      0002CE 00                     807 	.db #0x00	; 0
      0002CF 00                     808 	.db #0x00	; 0
      0002D0 00                     809 	.db #0x00	; 0
      0002D1 00                     810 	.db #0x00	; 0
      0002D2 00                     811 	.db #0x00	; 0
      0002D3 00                     812 	.db #0x00	; 0
      0002D4 00                     813 	.db #0x00	; 0
      0002D5 00                     814 	.db #0x00	; 0
      0002D6 00                     815 	.db #0x00	; 0
      0002D7 00                     816 	.db #0x00	; 0
      0002D8 00                     817 	.db #0x00	; 0
      0002D9 00                     818 	.db #0x00	; 0
      0002DA 00                     819 	.db #0x00	; 0
      0002DB 00                     820 	.db #0x00	; 0
      0002DC 00                     821 	.db #0x00	; 0
      0002DD 00                     822 	.db #0x00	; 0
      0002DE 00                     823 	.db #0x00	; 0
      0002DF 00                     824 	.db #0x00	; 0
      0002E0 00                     825 	.db #0x00	; 0
      0002E1 00                     826 	.db #0x00	; 0
      0002E2 00                     827 	.db #0x00	; 0
      0002E3 00                     828 	.db #0x00	; 0
      0002E4 00                     829 	.db #0x00	; 0
      0002E5 00                     830 	.db #0x00	; 0
      0002E6 00                     831 	.db #0x00	; 0
      0002E7 00                     832 	.db #0x00	; 0
      0002E8 00                     833 	.db #0x00	; 0
      0002E9 00                     834 	.db #0x00	; 0
      0002EA 00                     835 	.db #0x00	; 0
      0002EB 00                     836 	.db #0x00	; 0
      0002EC 00                     837 	.db #0x00	; 0
      0002ED 00                     838 	.db #0x00	; 0
      0002EE 00                     839 	.db #0x00	; 0
      0002EF 00                     840 	.db #0x00	; 0
      0002F0 00                     841 	.db #0x00	; 0
      0002F1 00                     842 	.db #0x00	; 0
      0002F2 00                     843 	.db #0x00	; 0
      0002F3 00                     844 	.db #0x00	; 0
      0002F4 00                     845 	.db #0x00	; 0
      0002F5 00                     846 	.db #0x00	; 0
      0002F6 00                     847 	.db #0x00	; 0
      0002F7 00                     848 	.db #0x00	; 0
      0002F8 00                     849 	.db #0x00	; 0
      0002F9 00                     850 	.db #0x00	; 0
      0002FA 00                     851 	.db #0x00	; 0
      0002FB 00                     852 	.db #0x00	; 0
      0002FC 00                     853 	.db #0x00	; 0
      0002FD 00                     854 	.db #0x00	; 0
      0002FE 00                     855 	.db #0x00	; 0
      0002FF 00                     856 	.db #0x00	; 0
      000300 00                     857 	.db #0x00	; 0
      000301 00                     858 	.db #0x00	; 0
      000302 00                     859 	.db #0x00	; 0
      000303 00                     860 	.db #0x00	; 0
      000304 00                     861 	.db #0x00	; 0
      000305 00                     862 	.db #0x00	; 0
      000306 00                     863 	.db #0x00	; 0
      000307 00                     864 	.db #0x00	; 0
      000308 00                     865 	.db #0x00	; 0
      000309 00                     866 	.db #0x00	; 0
      00030A 00                     867 	.db #0x00	; 0
      00030B 00                     868 	.db #0x00	; 0
      00030C 00                     869 	.db #0x00	; 0
      00030D 00                     870 	.db #0x00	; 0
      00030E 00                     871 	.db #0x00	; 0
      00030F 00                     872 	.db #0x00	; 0
      000310 00                     873 	.db #0x00	; 0
      000311 00                     874 	.db #0x00	; 0
      000312 00                     875 	.db #0x00	; 0
      000313 00                     876 	.db #0x00	; 0
      000314 00                     877 	.db #0x00	; 0
      000315 00                     878 	.db #0x00	; 0
      000316 00                     879 	.db #0x00	; 0
      000317 00                     880 	.db #0x00	; 0
      000318 00                     881 	.db #0x00	; 0
      000319 00                     882 	.db #0x00	; 0
      00031A 00                     883 	.db #0x00	; 0
      00031B 00                     884 	.db #0x00	; 0
      00031C 00                     885 	.db #0x00	; 0
      00031D 00                     886 	.db #0x00	; 0
      00031E 00                     887 	.db #0x00	; 0
      00031F 00                     888 	.db #0x00	; 0
      000320 00                     889 	.db #0x00	; 0
      000321 00                     890 	.db #0x00	; 0
      000322 00                     891 	.db #0x00	; 0
      000323 00                     892 	.db #0x00	; 0
      000324 00                     893 	.db #0x00	; 0
      000325 00                     894 	.db #0x00	; 0
      000326 00                     895 	.db #0x00	; 0
      000327 00                     896 	.db #0x00	; 0
      000328 00                     897 	.db #0x00	; 0
      000329 00                     898 	.db #0x00	; 0
      00032A 00                     899 	.db #0x00	; 0
      00032B 00                     900 	.db #0x00	; 0
      00032C 00                     901 	.db #0x00	; 0
      00032D 00                     902 	.db #0x00	; 0
      00032E 00                     903 	.db #0x00	; 0
      00032F 00                     904 	.db #0x00	; 0
      000330 00                     905 	.db #0x00	; 0
      000331 00                     906 	.db #0x00	; 0
      000332 00                     907 	.db #0x00	; 0
      000333 00                     908 	.db #0x00	; 0
      000334 00                     909 	.db #0x00	; 0
      000335 00                     910 	.db #0x00	; 0
      000336 00                     911 	.db #0x00	; 0
      000337 00                     912 	.db #0x00	; 0
      000338 00                     913 	.db #0x00	; 0
      000339 00                     914 	.db #0x00	; 0
      00033A 00                     915 	.db #0x00	; 0
      00033B 00                     916 	.db #0x00	; 0
      00033C 00                     917 	.db #0x00	; 0
      00033D 00                     918 	.db #0x00	; 0
      00033E 00                     919 	.db #0x00	; 0
      00033F 00                     920 	.db #0x00	; 0
      000340 00                     921 	.db #0x00	; 0
      000341 00                     922 	.db #0x00	; 0
      000342 00                     923 	.db #0x00	; 0
      000343 00                     924 	.db #0x00	; 0
      000344 00                     925 	.db #0x00	; 0
      000345 00                     926 	.db #0x00	; 0
      000346 00                     927 	.db #0x00	; 0
      000347 00                     928 	.db #0x00	; 0
      000348 00                     929 	.db #0x00	; 0
      000349 00                     930 	.db #0x00	; 0
      00034A 00                     931 	.db #0x00	; 0
      00034B 00                     932 	.db #0x00	; 0
      00034C 00                     933 	.db #0x00	; 0
      00034D 00                     934 	.db #0x00	; 0
      00034E 00                     935 	.db #0x00	; 0
      00034F 00                     936 	.db #0x00	; 0
      000350 00                     937 	.db #0x00	; 0
      000351 00                     938 	.db #0x00	; 0
      000352 00                     939 	.db #0x00	; 0
      000353 00                     940 	.db #0x00	; 0
      000354 00                     941 	.db #0x00	; 0
      000355 00                     942 	.db #0x00	; 0
      000356 00                     943 	.db #0x00	; 0
      000357 00                     944 	.db #0x00	; 0
      000358 00                     945 	.db #0x00	; 0
      000359 00                     946 	.db #0x00	; 0
      00035A 00                     947 	.db #0x00	; 0
      00035B 00                     948 	.db #0x00	; 0
      00035C 00                     949 	.db #0x00	; 0
      00035D 00                     950 	.db #0x00	; 0
      00035E 00                     951 	.db #0x00	; 0
      00035F 00                     952 	.db #0x00	; 0
      000360 00                     953 	.db #0x00	; 0
      000361 00                     954 	.db #0x00	; 0
      000362 00                     955 	.db #0x00	; 0
      000363 00                     956 	.db #0x00	; 0
      000364 00                     957 	.db #0x00	; 0
      000365 00                     958 	.db #0x00	; 0
      000366 00                     959 	.db #0x00	; 0
      000367 00                     960 	.db #0x00	; 0
      000368 00                     961 	.db #0x00	; 0
      000369 00                     962 	.db #0x00	; 0
      00036A 00                     963 	.db #0x00	; 0
      00036B 00                     964 	.db #0x00	; 0
      00036C 00                     965 	.db #0x00	; 0
      00036D 00                     966 	.db #0x00	; 0
      00036E 00                     967 	.db #0x00	; 0
      00036F 00                     968 	.db #0x00	; 0
      000370 00                     969 	.db #0x00	; 0
      000371 00                     970 	.db #0x00	; 0
      000372 00                     971 	.db #0x00	; 0
      000373 00                     972 	.db #0x00	; 0
      000374 00                     973 	.db #0x00	; 0
      000375 00                     974 	.db #0x00	; 0
      000376 00                     975 	.db #0x00	; 0
      000377 00                     976 	.db #0x00	; 0
      000378 00                     977 	.db #0x00	; 0
      000379 00                     978 	.db #0x00	; 0
      00037A 00                     979 	.db #0x00	; 0
      00037B 00                     980 	.db #0x00	; 0
      00037C 00                     981 	.db #0x00	; 0
      00037D 00                     982 	.db #0x00	; 0
      00037E 00                     983 	.db #0x00	; 0
      00037F 00                     984 	.db #0x00	; 0
      000380 00                     985 	.db #0x00	; 0
      000381 00                     986 	.db #0x00	; 0
      000382 00                     987 	.db #0x00	; 0
      000383 00                     988 	.db #0x00	; 0
      000384 00                     989 	.db #0x00	; 0
      000385 00                     990 	.db #0x00	; 0
      000386 00                     991 	.db #0x00	; 0
      000387 00                     992 	.db #0x00	; 0
      000388 00                     993 	.db #0x00	; 0
      000389 00                     994 	.db #0x00	; 0
      00038A 00                     995 	.db #0x00	; 0
      00038B 00                     996 	.db #0x00	; 0
      00038C 00                     997 	.db #0x00	; 0
      00038D 00                     998 	.db #0x00	; 0
      00038E 00                     999 	.db #0x00	; 0
      00038F 00                    1000 	.db #0x00	; 0
      000390 00                    1001 	.db #0x00	; 0
      000391 00                    1002 	.db #0x00	; 0
      000392 00                    1003 	.db #0x00	; 0
      000393 00                    1004 	.db #0x00	; 0
      000394 00                    1005 	.db #0x00	; 0
      000395 00                    1006 	.db #0x00	; 0
      000396 00                    1007 	.db #0x00	; 0
      000397 00                    1008 	.db #0x00	; 0
      000398 00                    1009 	.db #0x00	; 0
      000399 00                    1010 	.db #0x00	; 0
      00039A 00                    1011 	.db #0x00	; 0
      00039B 00                    1012 	.db #0x00	; 0
      00039C 00                    1013 	.db #0x00	; 0
      00039D 00                    1014 	.db #0x00	; 0
      00039E 00                    1015 	.db #0x00	; 0
      00039F 00                    1016 	.db #0x00	; 0
      0003A0 00                    1017 	.db #0x00	; 0
      0003A1 00                    1018 	.db #0x00	; 0
      0003A2 00                    1019 	.db #0x00	; 0
      0003A3 00                    1020 	.db #0x00	; 0
      0003A4 00                    1021 	.db #0x00	; 0
      0003A5 00                    1022 	.db #0x00	; 0
      0003A6 00                    1023 	.db #0x00	; 0
      0003A7 00                    1024 	.db #0x00	; 0
      0003A8 00                    1025 	.db #0x00	; 0
      0003A9 00                    1026 	.db #0x00	; 0
      0003AA 00                    1027 	.db #0x00	; 0
      0003AB 00                    1028 	.db #0x00	; 0
      0003AC 00                    1029 	.db #0x00	; 0
      0003AD 00                    1030 	.db #0x00	; 0
      0003AE 00                    1031 	.db #0x00	; 0
      0003AF 00                    1032 	.db #0x00	; 0
      0003B0 00                    1033 	.db #0x00	; 0
      0003B1 00                    1034 	.db #0x00	; 0
      0003B2 00                    1035 	.db #0x00	; 0
      0003B3 00                    1036 	.db #0x00	; 0
      0003B4 00                    1037 	.db #0x00	; 0
      0003B5 00                    1038 	.db #0x00	; 0
      0003B6 00                    1039 	.db #0x00	; 0
      0003B7 00                    1040 	.db #0x00	; 0
      0003B8 00                    1041 	.db #0x00	; 0
      0003B9 00                    1042 	.db #0x00	; 0
      0003BA 00                    1043 	.db #0x00	; 0
      0003BB 00                    1044 	.db #0x00	; 0
      0003BC 00                    1045 	.db #0x00	; 0
      0003BD 00                    1046 	.db #0x00	; 0
      0003BE 00                    1047 	.db #0x00	; 0
      0003BF 00                    1048 	.db #0x00	; 0
      0003C0 00                    1049 	.db #0x00	; 0
      0003C1 00                    1050 	.db #0x00	; 0
      0003C2 00                    1051 	.db #0x00	; 0
      0003C3 00                    1052 	.db #0x00	; 0
      0003C4 00                    1053 	.db #0x00	; 0
      0003C5 00                    1054 	.db #0x00	; 0
      0003C6 00                    1055 	.db #0x00	; 0
      0003C7 00                    1056 	.db #0x00	; 0
      0003C8 00                    1057 	.db #0x00	; 0
      0003C9 00                    1058 	.db #0x00	; 0
      0003CA 00                    1059 	.db #0x00	; 0
      0003CB 00                    1060 	.db #0x00	; 0
      0003CC 00                    1061 	.db #0x00	; 0
      0003CD 00                    1062 	.db #0x00	; 0
      0003CE 00                    1063 	.db #0x00	; 0
      0003CF 00                    1064 	.db #0x00	; 0
      0003D0 00                    1065 	.db #0x00	; 0
      0003D1 00                    1066 	.db #0x00	; 0
      0003D2 00                    1067 	.db #0x00	; 0
      0003D3 00                    1068 	.db #0x00	; 0
      0003D4 00                    1069 	.db #0x00	; 0
      0003D5 00                    1070 	.db #0x00	; 0
      0003D6 00                    1071 	.db #0x00	; 0
      0003D7 00                    1072 	.db #0x00	; 0
      0003D8 00                    1073 	.db #0x00	; 0
      0003D9 00                    1074 	.db #0x00	; 0
      0003DA 00                    1075 	.db #0x00	; 0
      0003DB 00                    1076 	.db #0x00	; 0
      0003DC 00                    1077 	.db #0x00	; 0
      0003DD 00                    1078 	.db #0x00	; 0
      0003DE 00                    1079 	.db #0x00	; 0
      0003DF 00                    1080 	.db #0x00	; 0
      0003E0 00                    1081 	.db #0x00	; 0
      0003E1 00                    1082 	.db #0x00	; 0
      0003E2 00                    1083 	.db #0x00	; 0
      0003E3 00                    1084 	.db #0x00	; 0
      0003E4 00                    1085 	.db #0x00	; 0
      0003E5 00                    1086 	.db #0x00	; 0
      0003E6 00                    1087 	.db #0x00	; 0
      0003E7 00                    1088 	.db #0x00	; 0
      0003E8 00                    1089 	.db #0x00	; 0
      0003E9 00                    1090 	.db #0x00	; 0
      0003EA 00                    1091 	.db #0x00	; 0
      0003EB 00                    1092 	.db #0x00	; 0
      0003EC 00                    1093 	.db #0x00	; 0
      0003ED 00                    1094 	.db #0x00	; 0
      0003EE 00                    1095 	.db #0x00	; 0
      0003EF 00                    1096 	.db #0x00	; 0
      0003F0 00                    1097 	.db #0x00	; 0
      0003F1 00                    1098 	.db #0x00	; 0
      0003F2 00                    1099 	.db #0x00	; 0
      0003F3 00                    1100 	.db #0x00	; 0
      0003F4 00                    1101 	.db #0x00	; 0
      0003F5 00                    1102 	.db #0x00	; 0
      0003F6 00                    1103 	.db #0x00	; 0
      0003F7 00                    1104 	.db #0x00	; 0
      0003F8 00                    1105 	.db #0x00	; 0
      0003F9 00                    1106 	.db #0x00	; 0
      0003FA 00                    1107 	.db #0x00	; 0
      0003FB 00                    1108 	.db #0x00	; 0
      0003FC 00                    1109 	.db #0x00	; 0
      0003FD 00                    1110 	.db #0x00	; 0
      0003FE 00                    1111 	.db #0x00	; 0
      0003FF 00                    1112 	.db #0x00	; 0
      000400 00                    1113 	.db #0x00	; 0
      000401 00                    1114 	.db #0x00	; 0
      000402 00                    1115 	.db #0x00	; 0
      000403 00                    1116 	.db #0x00	; 0
      000404 00                    1117 	.db #0x00	; 0
      000405 00                    1118 	.db #0x00	; 0
      000406 00                    1119 	.db #0x00	; 0
      000407 00                    1120 	.db #0x00	; 0
      000408 00                    1121 	.db #0x00	; 0
      000409 00                    1122 	.db #0x00	; 0
      00040A 00                    1123 	.db #0x00	; 0
      00040B 00                    1124 	.db #0x00	; 0
      00040C 00                    1125 	.db #0x00	; 0
      00040D 00                    1126 	.db #0x00	; 0
      00040E 00                    1127 	.db #0x00	; 0
      00040F 00                    1128 	.db #0x00	; 0
      000410 00                    1129 	.db #0x00	; 0
      000411 00                    1130 	.db #0x00	; 0
      000412 00                    1131 	.db #0x00	; 0
      000413 00                    1132 	.db #0x00	; 0
      000414 00                    1133 	.db #0x00	; 0
      000415 00                    1134 	.db #0x00	; 0
      000416 00                    1135 	.db #0x00	; 0
      000417 00                    1136 	.db #0x00	; 0
      000418 00                    1137 	.db #0x00	; 0
      000419 00                    1138 	.db #0x00	; 0
      00041A 00                    1139 	.db #0x00	; 0
      00041B 00                    1140 	.db #0x00	; 0
      00041C 00                    1141 	.db #0x00	; 0
      00041D 00                    1142 	.db #0x00	; 0
      00041E 00                    1143 	.db #0x00	; 0
      00041F 00                    1144 	.db #0x00	; 0
      000420 00                    1145 	.db #0x00	; 0
      000421 00                    1146 	.db #0x00	; 0
      000422 00                    1147 	.db #0x00	; 0
      000423 00                    1148 	.db #0x00	; 0
      000424 00                    1149 	.db #0x00	; 0
      000425 00                    1150 	.db #0x00	; 0
      000426 00                    1151 	.db #0x00	; 0
      000427 00                    1152 	.db #0x00	; 0
      000428 00                    1153 	.db #0x00	; 0
      000429 00                    1154 	.db #0x00	; 0
      00042A 00                    1155 	.db #0x00	; 0
      00042B 00                    1156 	.db #0x00	; 0
      00042C 00                    1157 	.db #0x00	; 0
      00042D 00                    1158 	.db #0x00	; 0
      00042E 00                    1159 	.db #0x00	; 0
      00042F 00                    1160 	.db #0x00	; 0
      000430 00                    1161 	.db #0x00	; 0
      000431 00                    1162 	.db #0x00	; 0
      000432 00                    1163 	.db #0x00	; 0
      000433 00                    1164 	.db #0x00	; 0
      000434 00                    1165 	.db #0x00	; 0
      000435 00                    1166 	.db #0x00	; 0
      000436 00                    1167 	.db #0x00	; 0
      000437 00                    1168 	.db #0x00	; 0
      000438 00                    1169 	.db #0x00	; 0
      000439 00                    1170 	.db #0x00	; 0
      00043A 00                    1171 	.db #0x00	; 0
      00043B 00                    1172 	.db #0x00	; 0
      00043C 00                    1173 	.db #0x00	; 0
      00043D 00                    1174 	.db #0x00	; 0
      00043E 00                    1175 	.db #0x00	; 0
      00043F 00                    1176 	.db #0x00	; 0
      000440 00                    1177 	.db #0x00	; 0
      000441 00                    1178 	.db #0x00	; 0
      000442 00                    1179 	.db #0x00	; 0
      000443 00                    1180 	.db #0x00	; 0
      000444 00                    1181 	.db #0x00	; 0
      000445 00                    1182 	.db #0x00	; 0
      000446 00                    1183 	.db #0x00	; 0
      000447 00                    1184 	.db #0x00	; 0
      000448 00                    1185 	.db #0x00	; 0
      000449 00                    1186 	.db #0x00	; 0
      00044A 00                    1187 	.db #0x00	; 0
      00044B 00                    1188 	.db #0x00	; 0
      00044C 00                    1189 	.db #0x00	; 0
      00044D 00                    1190 	.db #0x00	; 0
      00044E 00                    1191 	.db #0x00	; 0
      00044F 00                    1192 	.db #0x00	; 0
      000450 00                    1193 	.db #0x00	; 0
      000451 00                    1194 	.db #0x00	; 0
      000452 00                    1195 	.db #0x00	; 0
      000453 00                    1196 	.db #0x00	; 0
      000454 00                    1197 	.db #0x00	; 0
      000455 00                    1198 	.db #0x00	; 0
      000456 00                    1199 	.db #0x00	; 0
      000457 00                    1200 	.db #0x00	; 0
      000458 00                    1201 	.db #0x00	; 0
      000459 00                    1202 	.db #0x00	; 0
      00045A 00                    1203 	.db #0x00	; 0
      00045B 00                    1204 	.db #0x00	; 0
      00045C 00                    1205 	.db #0x00	; 0
      00045D 00                    1206 	.db #0x00	; 0
      00045E 00                    1207 	.db #0x00	; 0
      00045F 00                    1208 	.db #0x00	; 0
      000460 00                    1209 	.db #0x00	; 0
      000461 00                    1210 	.db #0x00	; 0
      000462 00                    1211 	.db #0x00	; 0
      000463 00                    1212 	.db #0x00	; 0
      000464 00                    1213 	.db #0x00	; 0
      000465 00                    1214 	.db #0x00	; 0
      000466 00                    1215 	.db #0x00	; 0
      000467 00                    1216 	.db #0x00	; 0
      000468 00                    1217 	.db #0x00	; 0
      000469 00                    1218 	.db #0x00	; 0
      00046A 00                    1219 	.db #0x00	; 0
      00046B 00                    1220 	.db #0x00	; 0
      00046C 00                    1221 	.db #0x00	; 0
      00046D 00                    1222 	.db #0x00	; 0
      00046E 00                    1223 	.db #0x00	; 0
      00046F 00                    1224 	.db #0x00	; 0
      000470 00                    1225 	.db #0x00	; 0
      000471 00                    1226 	.db #0x00	; 0
      000472 00                    1227 	.db #0x00	; 0
      000473 00                    1228 	.db #0x00	; 0
      000474 00                    1229 	.db #0x00	; 0
      000475 00                    1230 	.db #0x00	; 0
      000476 00                    1231 	.db #0x00	; 0
      000477 00                    1232 	.db #0x00	; 0
      000478 00                    1233 	.db #0x00	; 0
      000479 00                    1234 	.db #0x00	; 0
      00047A 00                    1235 	.db #0x00	; 0
      00047B 00                    1236 	.db #0x00	; 0
      00047C 00                    1237 	.db #0x00	; 0
      00047D 00                    1238 	.db #0x00	; 0
      00047E 00                    1239 	.db #0x00	; 0
      00047F 00                    1240 	.db #0x00	; 0
      000480 00                    1241 	.db #0x00	; 0
      000481 00                    1242 	.db #0x00	; 0
      000482 00                    1243 	.db #0x00	; 0
      000483 00                    1244 	.db #0x00	; 0
      000484 00                    1245 	.db #0x00	; 0
      000485 00                    1246 	.db #0x00	; 0
      000486 00                    1247 	.db #0x00	; 0
      000487 00                    1248 	.db #0x00	; 0
      000488 00                    1249 	.db #0x00	; 0
      000489 00                    1250 	.db #0x00	; 0
      00048A 00                    1251 	.db #0x00	; 0
      00048B 00                    1252 	.db #0x00	; 0
      00048C 00                    1253 	.db #0x00	; 0
      00048D 00                    1254 	.db #0x00	; 0
      00048E 00                    1255 	.db #0x00	; 0
      00048F 00                    1256 	.db #0x00	; 0
      000490 00                    1257 	.db #0x00	; 0
      000491 00                    1258 	.db #0x00	; 0
      000492 00                    1259 	.db #0x00	; 0
      000493 00                    1260 	.db #0x00	; 0
      000494 00                    1261 	.db #0x00	; 0
      000495 00                    1262 	.db #0x00	; 0
      000496 00                    1263 	.db #0x00	; 0
      000497 00                    1264 	.db #0x00	; 0
      000498 00                    1265 	.db #0x00	; 0
      000499 00                    1266 	.db #0x00	; 0
      00049A 00                    1267 	.db #0x00	; 0
      00049B 00                    1268 	.db #0x00	; 0
      00049C 00                    1269 	.db #0x00	; 0
      00049D 00                    1270 	.db #0x00	; 0
      00049E 00                    1271 	.db #0x00	; 0
      00049F 00                    1272 	.db #0x00	; 0
      0004A0 00                    1273 	.db #0x00	; 0
      0004A1 00                    1274 	.db #0x00	; 0
      0004A2 00                    1275 	.db #0x00	; 0
      0004A3 00                    1276 	.db #0x00	; 0
      0004A4 00                    1277 	.db #0x00	; 0
      0004A5 00                    1278 	.db #0x00	; 0
      0004A6 00                    1279 	.db #0x00	; 0
      0004A7 00                    1280 	.db #0x00	; 0
      0004A8 00                    1281 	.db #0x00	; 0
      0004A9 00                    1282 	.db #0x00	; 0
      0004AA 00                    1283 	.db #0x00	; 0
      0004AB 00                    1284 	.db #0x00	; 0
      0004AC 00                    1285 	.db #0x00	; 0
      0004AD 00                    1286 	.db #0x00	; 0
      0004AE 00                    1287 	.db #0x00	; 0
      0004AF 00                    1288 	.db #0x00	; 0
      0004B0 00                    1289 	.db #0x00	; 0
      0004B1 00                    1290 	.db #0x00	; 0
      0004B2 00                    1291 	.db #0x00	; 0
      0004B3 00                    1292 	.db #0x00	; 0
      0004B4 00                    1293 	.db #0x00	; 0
      0004B5 00                    1294 	.db #0x00	; 0
      0004B6 00                    1295 	.db #0x00	; 0
      0004B7 00                    1296 	.db #0x00	; 0
      0004B8 00                    1297 	.db #0x00	; 0
      0004B9 00                    1298 	.db #0x00	; 0
      0004BA 00                    1299 	.db #0x00	; 0
      0004BB 00                    1300 	.db #0x00	; 0
      0004BC 00                    1301 	.db #0x00	; 0
      0004BD 00                    1302 	.db #0x00	; 0
      0004BE 00                    1303 	.db #0x00	; 0
      0004BF 00                    1304 	.db #0x00	; 0
      0004C0 00                    1305 	.db #0x00	; 0
      0004C1 00                    1306 	.db #0x00	; 0
      0004C2 00                    1307 	.db #0x00	; 0
      0004C3 00                    1308 	.db #0x00	; 0
      0004C4 00                    1309 	.db #0x00	; 0
      0004C5 00                    1310 	.db #0x00	; 0
      0004C6 00                    1311 	.db #0x00	; 0
      0004C7 00                    1312 	.db #0x00	; 0
      0004C8 00                    1313 	.db #0x00	; 0
      0004C9 00                    1314 	.db #0x00	; 0
      0004CA 00                    1315 	.db #0x00	; 0
      0004CB 00                    1316 	.db #0x00	; 0
      0004CC 00                    1317 	.db #0x00	; 0
      0004CD 00                    1318 	.db #0x00	; 0
      0004CE 00                    1319 	.db #0x00	; 0
      0004CF 00                    1320 	.db #0x00	; 0
      0004D0 00                    1321 	.db #0x00	; 0
      0004D1 00                    1322 	.db #0x00	; 0
      0004D2 00                    1323 	.db #0x00	; 0
      0004D3 00                    1324 	.db #0x00	; 0
      0004D4 00                    1325 	.db #0x00	; 0
      0004D5 00                    1326 	.db #0x00	; 0
      0004D6 00                    1327 	.db #0x00	; 0
      0004D7 00                    1328 	.db #0x00	; 0
      0004D8 00                    1329 	.db #0x00	; 0
      0004D9 00                    1330 	.db #0x00	; 0
      0004DA 00                    1331 	.db #0x00	; 0
      0004DB 00                    1332 	.db #0x00	; 0
      0004DC 00                    1333 	.db #0x00	; 0
      0004DD 00                    1334 	.db #0x00	; 0
      0004DE 00                    1335 	.db #0x00	; 0
      0004DF 00                    1336 	.db #0x00	; 0
      0004E0 00                    1337 	.db #0x00	; 0
      0004E1 00                    1338 	.db #0x00	; 0
      0004E2 00                    1339 	.db #0x00	; 0
      0004E3 00                    1340 	.db #0x00	; 0
      0004E4 00                    1341 	.db #0x00	; 0
      0004E5 00                    1342 	.db #0x00	; 0
      0004E6 00                    1343 	.db #0x00	; 0
      0004E7 00                    1344 	.db #0x00	; 0
      0004E8 00                    1345 	.db #0x00	; 0
      0004E9 00                    1346 	.db #0x00	; 0
      0004EA 00                    1347 	.db #0x00	; 0
      0004EB 00                    1348 	.db #0x00	; 0
      0004EC 00                    1349 	.db #0x00	; 0
      0004ED 00                    1350 	.db #0x00	; 0
      0004EE 00                    1351 	.db #0x00	; 0
      0004EF 00                    1352 	.db #0x00	; 0
      0004F0 00                    1353 	.db #0x00	; 0
      0004F1 00                    1354 	.db #0x00	; 0
      0004F2 00                    1355 	.db #0x00	; 0
      0004F3 00                    1356 	.db #0x00	; 0
      0004F4 00                    1357 	.db #0x00	; 0
      0004F5 00                    1358 	.db #0x00	; 0
      0004F6 00                    1359 	.db #0x00	; 0
      0004F7 00                    1360 	.db #0x00	; 0
      0004F8 00                    1361 	.db #0x00	; 0
      0004F9 00                    1362 	.db #0x00	; 0
      0004FA 00                    1363 	.db #0x00	; 0
      0004FB 00                    1364 	.db #0x00	; 0
      0004FC 00                    1365 	.db #0x00	; 0
      0004FD 00                    1366 	.db #0x00	; 0
      0004FE 00                    1367 	.db #0x00	; 0
      0004FF 00                    1368 	.db #0x00	; 0
      000500 00                    1369 	.db #0x00	; 0
      000501 00                    1370 	.db #0x00	; 0
      000502 00                    1371 	.db #0x00	; 0
      000503 00                    1372 	.db #0x00	; 0
      000504 00                    1373 	.db #0x00	; 0
      000505 00                    1374 	.db #0x00	; 0
      000506 00                    1375 	.db #0x00	; 0
      000507 00                    1376 	.db #0x00	; 0
      000508 00                    1377 	.db #0x00	; 0
      000509 00                    1378 	.db #0x00	; 0
      00050A 00                    1379 	.db #0x00	; 0
      00050B 00                    1380 	.db #0x00	; 0
      00050C 00                    1381 	.db #0x00	; 0
      00050D 00                    1382 	.db #0x00	; 0
      00050E 00                    1383 	.db #0x00	; 0
      00050F 00                    1384 	.db #0x00	; 0
      000510 00                    1385 	.db #0x00	; 0
      000511 00                    1386 	.db #0x00	; 0
      000512 00                    1387 	.db #0x00	; 0
      000513 00                    1388 	.db #0x00	; 0
      000514 00                    1389 	.db #0x00	; 0
      000515 00                    1390 	.db #0x00	; 0
      000516 00                    1391 	.db #0x00	; 0
      000517 00                    1392 	.db #0x00	; 0
      000518 00                    1393 	.db #0x00	; 0
      000519 00                    1394 	.db #0x00	; 0
      00051A 00                    1395 	.db #0x00	; 0
      00051B 00                    1396 	.db #0x00	; 0
      00051C 00                    1397 	.db #0x00	; 0
      00051D 00                    1398 	.db #0x00	; 0
      00051E 00                    1399 	.db #0x00	; 0
      00051F 00                    1400 	.db #0x00	; 0
      000520 00                    1401 	.db #0x00	; 0
      000521 00                    1402 	.db #0x00	; 0
      000522 00                    1403 	.db #0x00	; 0
      000523 00                    1404 	.db #0x00	; 0
      000524 00                    1405 	.db #0x00	; 0
      000525 00                    1406 	.db #0x00	; 0
      000526 00                    1407 	.db #0x00	; 0
      000527 00                    1408 	.db #0x00	; 0
      000528 00                    1409 	.db #0x00	; 0
      000529 00                    1410 	.db #0x00	; 0
      00052A 00                    1411 	.db #0x00	; 0
      00052B 00                    1412 	.db #0x00	; 0
      00052C 00                    1413 	.db #0x00	; 0
      00052D 00                    1414 	.db #0x00	; 0
      00052E 00                    1415 	.db #0x00	; 0
      00052F 00                    1416 	.db #0x00	; 0
      000530 00                    1417 	.db #0x00	; 0
      000531 00                    1418 	.db #0x00	; 0
      000532 00                    1419 	.db #0x00	; 0
      000533 00                    1420 	.db #0x00	; 0
      000534 00                    1421 	.db #0x00	; 0
      000535 00                    1422 	.db #0x00	; 0
      000536 00                    1423 	.db #0x00	; 0
      000537 00                    1424 	.db #0x00	; 0
      000538 00                    1425 	.db #0x00	; 0
      000539 00                    1426 	.db #0x00	; 0
      00053A 00                    1427 	.db #0x00	; 0
      00053B 00                    1428 	.db #0x00	; 0
      00053C 00                    1429 	.db #0x00	; 0
      00053D 00                    1430 	.db #0x00	; 0
      00053E 00                    1431 	.db #0x00	; 0
      00053F 00                    1432 	.db #0x00	; 0
      000540 00                    1433 	.db #0x00	; 0
      000541 00                    1434 	.db #0x00	; 0
      000542 00                    1435 	.db #0x00	; 0
      000543 00                    1436 	.db #0x00	; 0
      000544 00                    1437 	.db #0x00	; 0
      000545 00                    1438 	.db #0x00	; 0
      000546 00                    1439 	.db #0x00	; 0
      000547 00                    1440 	.db #0x00	; 0
      000548 00                    1441 	.db #0x00	; 0
      000549 00                    1442 	.db #0x00	; 0
      00054A 00                    1443 	.db #0x00	; 0
      00054B 00                    1444 	.db #0x00	; 0
      00054C 00                    1445 	.db #0x00	; 0
      00054D 00                    1446 	.db #0x00	; 0
      00054E 00                    1447 	.db #0x00	; 0
      00054F 00                    1448 	.db #0x00	; 0
      000550 00                    1449 	.db #0x00	; 0
      000551 00                    1450 	.db #0x00	; 0
      000552 00                    1451 	.db #0x00	; 0
      000553 00                    1452 	.db #0x00	; 0
      000554 00                    1453 	.db #0x00	; 0
      000555 00                    1454 	.db #0x00	; 0
      000556 00                    1455 	.db #0x00	; 0
      000557 00                    1456 	.db #0x00	; 0
      000558 00                    1457 	.db #0x00	; 0
      000559 00                    1458 	.db #0x00	; 0
      00055A 00                    1459 	.db #0x00	; 0
      00055B 00                    1460 	.db #0x00	; 0
      00055C 00                    1461 	.db #0x00	; 0
      00055D 00                    1462 	.db #0x00	; 0
      00055E 00                    1463 	.db #0x00	; 0
      00055F 00                    1464 	.db #0x00	; 0
      000560 00                    1465 	.db #0x00	; 0
      000561 00                    1466 	.db #0x00	; 0
      000562 00                    1467 	.db #0x00	; 0
      000563 00                    1468 	.db #0x00	; 0
      000564 00                    1469 	.db #0x00	; 0
      000565 00                    1470 	.db #0x00	; 0
      000566 00                    1471 	.db #0x00	; 0
      000567 00                    1472 	.db #0x00	; 0
      000568 00                    1473 	.db #0x00	; 0
      000569 00                    1474 	.db #0x00	; 0
      00056A 00                    1475 	.db #0x00	; 0
      00056B 00                    1476 	.db #0x00	; 0
      00056C 00                    1477 	.db #0x00	; 0
      00056D 00                    1478 	.db #0x00	; 0
      00056E 00                    1479 	.db #0x00	; 0
      00056F 00                    1480 	.db #0x00	; 0
      000570 00                    1481 	.db #0x00	; 0
      000571 00                    1482 	.db #0x00	; 0
      000572 00                    1483 	.db #0x00	; 0
      000573 00                    1484 	.db #0x00	; 0
      000574 00                    1485 	.db #0x00	; 0
      000575 00                    1486 	.db #0x00	; 0
      000576 00                    1487 	.db #0x00	; 0
      000577 00                    1488 	.db #0x00	; 0
      000578 00                    1489 	.db #0x00	; 0
      000579 00                    1490 	.db #0x00	; 0
      00057A 00                    1491 	.db #0x00	; 0
      00057B 00                    1492 	.db #0x00	; 0
      00057C 00                    1493 	.db #0x00	; 0
      00057D 00                    1494 	.db #0x00	; 0
      00057E 00                    1495 	.db #0x00	; 0
      00057F 00                    1496 	.db #0x00	; 0
      000580 00                    1497 	.db #0x00	; 0
      000581 00                    1498 	.db #0x00	; 0
      000582 00                    1499 	.db #0x00	; 0
      000583 00                    1500 	.db #0x00	; 0
      000584 00                    1501 	.db #0x00	; 0
      000585 00                    1502 	.db #0x00	; 0
      000586 00                    1503 	.db #0x00	; 0
      000587 00                    1504 	.db #0x00	; 0
      000588 00                    1505 	.db #0x00	; 0
      000589 00                    1506 	.db #0x00	; 0
      00058A 00                    1507 	.db #0x00	; 0
      00058B 00                    1508 	.db #0x00	; 0
      00058C 00                    1509 	.db #0x00	; 0
      00058D 00                    1510 	.db #0x00	; 0
      00058E 00                    1511 	.db #0x00	; 0
      00058F 00                    1512 	.db #0x00	; 0
      000590 00                    1513 	.db #0x00	; 0
      000591 00                    1514 	.db #0x00	; 0
      000592 00                    1515 	.db #0x00	; 0
      000593 00                    1516 	.db #0x00	; 0
      000594 00                    1517 	.db #0x00	; 0
      000595 00                    1518 	.db #0x00	; 0
      000596 00                    1519 	.db #0x00	; 0
      000597 00                    1520 	.db #0x00	; 0
      000598 00                    1521 	.db #0x00	; 0
      000599 00                    1522 	.db #0x00	; 0
      00059A 00                    1523 	.db #0x00	; 0
      00059B 00                    1524 	.db #0x00	; 0
      00059C 00                    1525 	.db #0x00	; 0
      00059D 00                    1526 	.db #0x00	; 0
      00059E 00                    1527 	.db #0x00	; 0
      00059F 00                    1528 	.db #0x00	; 0
      0005A0 00                    1529 	.db #0x00	; 0
      0005A1 00                    1530 	.db #0x00	; 0
      0005A2 00                    1531 	.db #0x00	; 0
      0005A3 00                    1532 	.db #0x00	; 0
      0005A4 00                    1533 	.db #0x00	; 0
      0005A5 00                    1534 	.db #0x00	; 0
      0005A6 00                    1535 	.db #0x00	; 0
      0005A7 00                    1536 	.db #0x00	; 0
      0005A8 00                    1537 	.db #0x00	; 0
      0005A9 00                    1538 	.db #0x00	; 0
      0005AA 00                    1539 	.db #0x00	; 0
      0005AB 00                    1540 	.db #0x00	; 0
      0005AC 00                    1541 	.db #0x00	; 0
      0005AD 00                    1542 	.db #0x00	; 0
      0005AE 00                    1543 	.db #0x00	; 0
      0005AF 00                    1544 	.db #0x00	; 0
      0005B0 00                    1545 	.db #0x00	; 0
      0005B1 00                    1546 	.db #0x00	; 0
      0005B2 00                    1547 	.db #0x00	; 0
      0005B3 00                    1548 	.db #0x00	; 0
      0005B4 00                    1549 	.db #0x00	; 0
      0005B5 00                    1550 	.db #0x00	; 0
      0005B6 00                    1551 	.db #0x00	; 0
      0005B7 00                    1552 	.db #0x00	; 0
      0005B8 00                    1553 	.db #0x00	; 0
      0005B9 00                    1554 	.db #0x00	; 0
      0005BA 00                    1555 	.db #0x00	; 0
      0005BB 00                    1556 	.db #0x00	; 0
      0005BC 00                    1557 	.db #0x00	; 0
      0005BD 00                    1558 	.db #0x00	; 0
      0005BE 00                    1559 	.db #0x00	; 0
      0005BF 00                    1560 	.db #0x00	; 0
      0005C0 00                    1561 	.db #0x00	; 0
      0005C1 00                    1562 	.db #0x00	; 0
      0005C2 00                    1563 	.db #0x00	; 0
      0005C3 00                    1564 	.db #0x00	; 0
      0005C4 00                    1565 	.db #0x00	; 0
      0005C5 00                    1566 	.db #0x00	; 0
      0005C6 00                    1567 	.db #0x00	; 0
      0005C7 00                    1568 	.db #0x00	; 0
      0005C8 00                    1569 	.db #0x00	; 0
      0005C9 00                    1570 	.db #0x00	; 0
      0005CA 00                    1571 	.db #0x00	; 0
      0005CB 00                    1572 	.db #0x00	; 0
      0005CC 00                    1573 	.db #0x00	; 0
      0005CD 00                    1574 	.db #0x00	; 0
      0005CE 00                    1575 	.db #0x00	; 0
      0005CF 00                    1576 	.db #0x00	; 0
      0005D0 00                    1577 	.db #0x00	; 0
      0005D1 00                    1578 	.db #0x00	; 0
      0005D2 00                    1579 	.db #0x00	; 0
      0005D3 00                    1580 	.db #0x00	; 0
      0005D4 00                    1581 	.db #0x00	; 0
      0005D5 00                    1582 	.db #0x00	; 0
      0005D6 00                    1583 	.db #0x00	; 0
      0005D7 00                    1584 	.db #0x00	; 0
      0005D8 00                    1585 	.db #0x00	; 0
      0005D9 00                    1586 	.db #0x00	; 0
      0005DA 00                    1587 	.db #0x00	; 0
      0005DB 00                    1588 	.db #0x00	; 0
      0005DC 00                    1589 	.db #0x00	; 0
      0005DD 00                    1590 	.db #0x00	; 0
      0005DE 00                    1591 	.db #0x00	; 0
      0005DF 00                    1592 	.db #0x00	; 0
      0005E0 00                    1593 	.db #0x00	; 0
      0005E1 00                    1594 	.db #0x00	; 0
      0005E2 00                    1595 	.db #0x00	; 0
      0005E3 00                    1596 	.db #0x00	; 0
      0005E4 00                    1597 	.db #0x00	; 0
      0005E5 00                    1598 	.db #0x00	; 0
      0005E6 00                    1599 	.db #0x00	; 0
      0005E7 00                    1600 	.db #0x00	; 0
      0005E8 00                    1601 	.db #0x00	; 0
      0005E9 00                    1602 	.db #0x00	; 0
      0005EA 00                    1603 	.db #0x00	; 0
      0005EB 00                    1604 	.db #0x00	; 0
      0005EC 00                    1605 	.db #0x00	; 0
      0005ED 00                    1606 	.db #0x00	; 0
      0005EE 00                    1607 	.db #0x00	; 0
      0005EF 00                    1608 	.db #0x00	; 0
      0005F0 00                    1609 	.db #0x00	; 0
      0005F1 00                    1610 	.db #0x00	; 0
      0005F2 00                    1611 	.db #0x00	; 0
      0005F3 00                    1612 	.db #0x00	; 0
      0005F4 00                    1613 	.db #0x00	; 0
      0005F5 00                    1614 	.db #0x00	; 0
      0005F6 00                    1615 	.db #0x00	; 0
      0005F7 00                    1616 	.db #0x00	; 0
      0005F8 00                    1617 	.db #0x00	; 0
      0005F9 00                    1618 	.db #0x00	; 0
      0005FA 00                    1619 	.db #0x00	; 0
      0005FB 00                    1620 	.db #0x00	; 0
      0005FC 00                    1621 	.db #0x00	; 0
      0005FD 00                    1622 	.db #0x00	; 0
      0005FE 00                    1623 	.db #0x00	; 0
      0005FF 00                    1624 	.db #0x00	; 0
      000600 00                    1625 	.db #0x00	; 0
      000601 00                    1626 	.db #0x00	; 0
      000602 00                    1627 	.db #0x00	; 0
      000603 00                    1628 	.db #0x00	; 0
      000604 00                    1629 	.db #0x00	; 0
      000605 00                    1630 	.db #0x00	; 0
      000606 00                    1631 	.db #0x00	; 0
      000607 00                    1632 	.db #0x00	; 0
      000608 00                    1633 	.db #0x00	; 0
      000609 00                    1634 	.db #0x00	; 0
      00060A 00                    1635 	.db #0x00	; 0
      00060B 00                    1636 	.db #0x00	; 0
      00060C 00                    1637 	.db #0x00	; 0
      00060D 00                    1638 	.db #0x00	; 0
      00060E 00                    1639 	.db #0x00	; 0
      00060F 00                    1640 	.db #0x00	; 0
      000610 00                    1641 	.db #0x00	; 0
      000611 00                    1642 	.db #0x00	; 0
      000612 00                    1643 	.db #0x00	; 0
      000613 00                    1644 	.db #0x00	; 0
      000614 00                    1645 	.db #0x00	; 0
      000615 00                    1646 	.db #0x00	; 0
      000616 00                    1647 	.db #0x00	; 0
      000617 00                    1648 	.db #0x00	; 0
      000618 00                    1649 	.db #0x00	; 0
      000619 00                    1650 	.db #0x00	; 0
      00061A 00                    1651 	.db #0x00	; 0
      00061B 00                    1652 	.db #0x00	; 0
      00061C 00                    1653 	.db #0x00	; 0
      00061D 00                    1654 	.db #0x00	; 0
      00061E 00                    1655 	.db #0x00	; 0
      00061F 00                    1656 	.db #0x00	; 0
      000620 00                    1657 	.db #0x00	; 0
      000621 00                    1658 	.db #0x00	; 0
      000622 00                    1659 	.db #0x00	; 0
      000623 00                    1660 	.db #0x00	; 0
      000624 00                    1661 	.db #0x00	; 0
      000625 00                    1662 	.db #0x00	; 0
      000626 00                    1663 	.db #0x00	; 0
      000627 00                    1664 	.db #0x00	; 0
      000628 00                    1665 	.db #0x00	; 0
      000629 00                    1666 	.db #0x00	; 0
      00062A 00                    1667 	.db #0x00	; 0
      00062B 00                    1668 	.db #0x00	; 0
      00062C 00                    1669 	.db #0x00	; 0
      00062D 00                    1670 	.db #0x00	; 0
      00062E 00                    1671 	.db #0x00	; 0
      00062F 00                    1672 	.db #0x00	; 0
      000630 00                    1673 	.db #0x00	; 0
      000631 00                    1674 	.db #0x00	; 0
      000632 00                    1675 	.db #0x00	; 0
      000633 00                    1676 	.db #0x00	; 0
      000634 00                    1677 	.db #0x00	; 0
      000635 00                    1678 	.db #0x00	; 0
      000636 00                    1679 	.db #0x00	; 0
      000637 00                    1680 	.db #0x00	; 0
      000638 00                    1681 	.db #0x00	; 0
      000639 00                    1682 	.db #0x00	; 0
      00063A 00                    1683 	.db #0x00	; 0
      00063B 00                    1684 	.db #0x00	; 0
      00063C 00                    1685 	.db #0x00	; 0
      00063D 00                    1686 	.db #0x00	; 0
      00063E 00                    1687 	.db #0x00	; 0
      00063F 00                    1688 	.db #0x00	; 0
      000640 00                    1689 	.db #0x00	; 0
      000641 00                    1690 	.db #0x00	; 0
      000642 00                    1691 	.db #0x00	; 0
      000643 00                    1692 	.db #0x00	; 0
      000644 00                    1693 	.db #0x00	; 0
      000645 00                    1694 	.db #0x00	; 0
      000646 00                    1695 	.db #0x00	; 0
      000647 00                    1696 	.db #0x00	; 0
      000648 00                    1697 	.db #0x00	; 0
      000649 00                    1698 	.db #0x00	; 0
      00064A 00                    1699 	.db #0x00	; 0
      00064B 00                    1700 	.db #0x00	; 0
      00064C 00                    1701 	.db #0x00	; 0
      00064D 00                    1702 	.db #0x00	; 0
      00064E 00                    1703 	.db #0x00	; 0
      00064F 00                    1704 	.db #0x00	; 0
      000650 00                    1705 	.db #0x00	; 0
      000651 00                    1706 	.db #0x00	; 0
      000652 00                    1707 	.db #0x00	; 0
      000653 00                    1708 	.db #0x00	; 0
      000654 00                    1709 	.db #0x00	; 0
      000655 00                    1710 	.db #0x00	; 0
      000656 00                    1711 	.db #0x00	; 0
      000657 00                    1712 	.db #0x00	; 0
      000658 00                    1713 	.db #0x00	; 0
      000659 00                    1714 	.db #0x00	; 0
      00065A 00                    1715 	.db #0x00	; 0
      00065B 00                    1716 	.db #0x00	; 0
      00065C 00                    1717 	.db #0x00	; 0
      00065D 00                    1718 	.db #0x00	; 0
      00065E 00                    1719 	.db #0x00	; 0
      00065F 00                    1720 	.db #0x00	; 0
      000660 00                    1721 	.db #0x00	; 0
      000661 00                    1722 	.db #0x00	; 0
      000662 00                    1723 	.db #0x00	; 0
      000663 00                    1724 	.db #0x00	; 0
      000664 00                    1725 	.db #0x00	; 0
      000665 00                    1726 	.db #0x00	; 0
      000666 00                    1727 	.db #0x00	; 0
      000667 00                    1728 	.db #0x00	; 0
      000668 00                    1729 	.db #0x00	; 0
      000669 00                    1730 	.db #0x00	; 0
      00066A 00                    1731 	.db #0x00	; 0
      00066B 00                    1732 	.db #0x00	; 0
      00066C 00                    1733 	.db #0x00	; 0
      00066D 00                    1734 	.db #0x00	; 0
      00066E 00                    1735 	.db #0x00	; 0
      00066F 00                    1736 	.db #0x00	; 0
      000670 00                    1737 	.db #0x00	; 0
      000671 00                    1738 	.db #0x00	; 0
      000672 00                    1739 	.db #0x00	; 0
      000673 00                    1740 	.db #0x00	; 0
      000674 00                    1741 	.db #0x00	; 0
      000675 00                    1742 	.db #0x00	; 0
      000676 00                    1743 	.db #0x00	; 0
      000677 00                    1744 	.db #0x00	; 0
      000678 00                    1745 	.db #0x00	; 0
      000679 00                    1746 	.db #0x00	; 0
      00067A 00                    1747 	.db #0x00	; 0
      00067B 00                    1748 	.db #0x00	; 0
      00067C 00                    1749 	.db #0x00	; 0
      00067D 00                    1750 	.db #0x00	; 0
      00067E 00                    1751 	.db #0x00	; 0
      00067F 00                    1752 	.db #0x00	; 0
      000680 00                    1753 	.db #0x00	; 0
      000681 00                    1754 	.db #0x00	; 0
      000682 00                    1755 	.db #0x00	; 0
      000683 00                    1756 	.db #0x00	; 0
      000684 00                    1757 	.db #0x00	; 0
      000685 00                    1758 	.db #0x00	; 0
      000686 00                    1759 	.db #0x00	; 0
      000687 00                    1760 	.db #0x00	; 0
      000688 00                    1761 	.db #0x00	; 0
      000689 00                    1762 	.db #0x00	; 0
      00068A 00                    1763 	.db #0x00	; 0
      00068B 00                    1764 	.db #0x00	; 0
      00068C 00                    1765 	.db #0x00	; 0
      00068D 00                    1766 	.db #0x00	; 0
      00068E 00                    1767 	.db #0x00	; 0
      00068F 00                    1768 	.db #0x00	; 0
      000690 00                    1769 	.db #0x00	; 0
      000691 00                    1770 	.db #0x00	; 0
      000692 00                    1771 	.db #0x00	; 0
      000693 00                    1772 	.db #0x00	; 0
      000694 00                    1773 	.db #0x00	; 0
      000695 00                    1774 	.db #0x00	; 0
      000696 00                    1775 	.db #0x00	; 0
      000697 00                    1776 	.db #0x00	; 0
      000698 00                    1777 	.db #0x00	; 0
      000699 00                    1778 	.db #0x00	; 0
      00069A 00                    1779 	.db #0x00	; 0
      00069B 00                    1780 	.db #0x00	; 0
      00069C 00                    1781 	.db #0x00	; 0
      00069D 00                    1782 	.db #0x00	; 0
      00069E 00                    1783 	.db #0x00	; 0
      00069F 00                    1784 	.db #0x00	; 0
      0006A0 00                    1785 	.db #0x00	; 0
      0006A1 00                    1786 	.db #0x00	; 0
      0006A2 00                    1787 	.db #0x00	; 0
      0006A3 00                    1788 	.db #0x00	; 0
      0006A4 00                    1789 	.db #0x00	; 0
      0006A5 00                    1790 	.db #0x00	; 0
      0006A6 00                    1791 	.db #0x00	; 0
      0006A7 00                    1792 	.db #0x00	; 0
      0006A8 00                    1793 	.db #0x00	; 0
      0006A9 00                    1794 	.db #0x00	; 0
      0006AA 00                    1795 	.db #0x00	; 0
      0006AB 00                    1796 	.db #0x00	; 0
      0006AC 00                    1797 	.db #0x00	; 0
      0006AD 00                    1798 	.db #0x00	; 0
      0006AE 00                    1799 	.db #0x00	; 0
      0006AF 00                    1800 	.db #0x00	; 0
      0006B0 00                    1801 	.db #0x00	; 0
      0006B1 00                    1802 	.db #0x00	; 0
      0006B2 00                    1803 	.db #0x00	; 0
      0006B3 00                    1804 	.db #0x00	; 0
      0006B4 00                    1805 	.db #0x00	; 0
      0006B5 00                    1806 	.db #0x00	; 0
      0006B6 00                    1807 	.db #0x00	; 0
      0006B7 00                    1808 	.db #0x00	; 0
      0006B8 00                    1809 	.db #0x00	; 0
      0006B9 00                    1810 	.db #0x00	; 0
      0006BA 00                    1811 	.db #0x00	; 0
      0006BB 00                    1812 	.db #0x00	; 0
      0006BC 00                    1813 	.db #0x00	; 0
      0006BD 00                    1814 	.db #0x00	; 0
      0006BE 00                    1815 	.db #0x00	; 0
      0006BF 00                    1816 	.db #0x00	; 0
      0006C0 00                    1817 	.db #0x00	; 0
      0006C1 00                    1818 	.db #0x00	; 0
      0006C2 00                    1819 	.db #0x00	; 0
      0006C3 00                    1820 	.db #0x00	; 0
      0006C4 00                    1821 	.db #0x00	; 0
      0006C5 00                    1822 	.db #0x00	; 0
      0006C6 00                    1823 	.db #0x00	; 0
      0006C7 00                    1824 	.db #0x00	; 0
      0006C8 00                    1825 	.db #0x00	; 0
      0006C9 00                    1826 	.db #0x00	; 0
      0006CA 00                    1827 	.db #0x00	; 0
      0006CB 00                    1828 	.db #0x00	; 0
      0006CC 00                    1829 	.db #0x00	; 0
      0006CD 7C                    1830 	.db #0x7c	; 124
      0006CE 3C                    1831 	.db #0x3c	; 60
      0006CF FE                    1832 	.db #0xfe	; 254
      0006D0 7E                    1833 	.db #0x7e	; 126
      0006D1 EE                    1834 	.db #0xee	; 238
      0006D2 66                    1835 	.db #0x66	; 102	'f'
      0006D3 EE                    1836 	.db #0xee	; 238
      0006D4 66                    1837 	.db #0x66	; 102	'f'
      0006D5 EE                    1838 	.db #0xee	; 238
      0006D6 66                    1839 	.db #0x66	; 102	'f'
      0006D7 EE                    1840 	.db #0xee	; 238
      0006D8 66                    1841 	.db #0x66	; 102	'f'
      0006D9 FE                    1842 	.db #0xfe	; 254
      0006DA 7E                    1843 	.db #0x7e	; 126
      0006DB 7C                    1844 	.db #0x7c	; 124
      0006DC 3C                    1845 	.db #0x3c	; 60
      0006DD 38                    1846 	.db #0x38	; 56	'8'
      0006DE 18                    1847 	.db #0x18	; 24
      0006DF 78                    1848 	.db #0x78	; 120	'x'
      0006E0 38                    1849 	.db #0x38	; 56	'8'
      0006E1 F8                    1850 	.db #0xf8	; 248
      0006E2 78                    1851 	.db #0x78	; 120	'x'
      0006E3 38                    1852 	.db #0x38	; 56	'8'
      0006E4 18                    1853 	.db #0x18	; 24
      0006E5 38                    1854 	.db #0x38	; 56	'8'
      0006E6 18                    1855 	.db #0x18	; 24
      0006E7 38                    1856 	.db #0x38	; 56	'8'
      0006E8 18                    1857 	.db #0x18	; 24
      0006E9 FE                    1858 	.db #0xfe	; 254
      0006EA 7E                    1859 	.db #0x7e	; 126
      0006EB FE                    1860 	.db #0xfe	; 254
      0006EC 7E                    1861 	.db #0x7e	; 126
      0006ED 3C                    1862 	.db #0x3c	; 60
      0006EE 1C                    1863 	.db #0x1c	; 28
      0006EF 7E                    1864 	.db #0x7e	; 126
      0006F0 3E                    1865 	.db #0x3e	; 62
      0006F1 EE                    1866 	.db #0xee	; 238
      0006F2 66                    1867 	.db #0x66	; 102	'f'
      0006F3 1E                    1868 	.db #0x1e	; 30
      0006F4 0E                    1869 	.db #0x0e	; 14
      0006F5 3C                    1870 	.db #0x3c	; 60
      0006F6 1C                    1871 	.db #0x1c	; 28
      0006F7 78                    1872 	.db #0x78	; 120	'x'
      0006F8 38                    1873 	.db #0x38	; 56	'8'
      0006F9 FE                    1874 	.db #0xfe	; 254
      0006FA 7E                    1875 	.db #0x7e	; 126
      0006FB 7C                    1876 	.db #0x7c	; 124
      0006FC 3C                    1877 	.db #0x3c	; 60
      0006FD 3C                    1878 	.db #0x3c	; 60
      0006FE 1C                    1879 	.db #0x1c	; 28
      0006FF 7E                    1880 	.db #0x7e	; 126
      000700 3E                    1881 	.db #0x3e	; 62
      000701 EE                    1882 	.db #0xee	; 238
      000702 66                    1883 	.db #0x66	; 102	'f'
      000703 1E                    1884 	.db #0x1e	; 30
      000704 0E                    1885 	.db #0x0e	; 14
      000705 3C                    1886 	.db #0x3c	; 60
      000706 1C                    1887 	.db #0x1c	; 28
      000707 1E                    1888 	.db #0x1e	; 30
      000708 0E                    1889 	.db #0x0e	; 14
      000709 FE                    1890 	.db #0xfe	; 254
      00070A 7E                    1891 	.db #0x7e	; 126
      00070B 7C                    1892 	.db #0x7c	; 124
      00070C 3C                    1893 	.db #0x3c	; 60
      00070D 18                    1894 	.db #0x18	; 24
      00070E 08                    1895 	.db #0x08	; 8
      00070F 38                    1896 	.db #0x38	; 56	'8'
      000710 18                    1897 	.db #0x18	; 24
      000711 78                    1898 	.db #0x78	; 120	'x'
      000712 38                    1899 	.db #0x38	; 56	'8'
      000713 F8                    1900 	.db #0xf8	; 248
      000714 58                    1901 	.db #0x58	; 88	'X'
      000715 FE                    1902 	.db #0xfe	; 254
      000716 7E                    1903 	.db #0x7e	; 126
      000717 FE                    1904 	.db #0xfe	; 254
      000718 7E                    1905 	.db #0x7e	; 126
      000719 38                    1906 	.db #0x38	; 56	'8'
      00071A 18                    1907 	.db #0x18	; 24
      00071B 38                    1908 	.db #0x38	; 56	'8'
      00071C 18                    1909 	.db #0x18	; 24
      00071D 7C                    1910 	.db #0x7c	; 124
      00071E 3C                    1911 	.db #0x3c	; 60
      00071F FE                    1912 	.db #0xfe	; 254
      000720 7E                    1913 	.db #0x7e	; 126
      000721 E0                    1914 	.db #0xe0	; 224
      000722 60                    1915 	.db #0x60	; 96
      000723 FC                    1916 	.db #0xfc	; 252
      000724 7C                    1917 	.db #0x7c	; 124
      000725 FE                    1918 	.db #0xfe	; 254
      000726 7E                    1919 	.db #0x7e	; 126
      000727 0E                    1920 	.db #0x0e	; 14
      000728 06                    1921 	.db #0x06	; 6
      000729 FE                    1922 	.db #0xfe	; 254
      00072A 7E                    1923 	.db #0x7e	; 126
      00072B 7C                    1924 	.db #0x7c	; 124
      00072C 3C                    1925 	.db #0x3c	; 60
      00072D 7C                    1926 	.db #0x7c	; 124
      00072E 3C                    1927 	.db #0x3c	; 60
      00072F FE                    1928 	.db #0xfe	; 254
      000730 7E                    1929 	.db #0x7e	; 126
      000731 E0                    1930 	.db #0xe0	; 224
      000732 60                    1931 	.db #0x60	; 96
      000733 FC                    1932 	.db #0xfc	; 252
      000734 7C                    1933 	.db #0x7c	; 124
      000735 FE                    1934 	.db #0xfe	; 254
      000736 6E                    1935 	.db #0x6e	; 110	'n'
      000737 EE                    1936 	.db #0xee	; 238
      000738 66                    1937 	.db #0x66	; 102	'f'
      000739 7E                    1938 	.db #0x7e	; 126
      00073A 3E                    1939 	.db #0x3e	; 62
      00073B 3C                    1940 	.db #0x3c	; 60
      00073C 1C                    1941 	.db #0x1c	; 28
      00073D 3E                    1942 	.db #0x3e	; 62
      00073E 1E                    1943 	.db #0x1e	; 30
      00073F 7F                    1944 	.db #0x7f	; 127
      000740 3F                    1945 	.db #0x3f	; 63
      000741 EE                    1946 	.db #0xee	; 238
      000742 66                    1947 	.db #0x66	; 102	'f'
      000743 1C                    1948 	.db #0x1c	; 28
      000744 0C                    1949 	.db #0x0c	; 12
      000745 38                    1950 	.db #0x38	; 56	'8'
      000746 18                    1951 	.db #0x18	; 24
      000747 38                    1952 	.db #0x38	; 56	'8'
      000748 18                    1953 	.db #0x18	; 24
      000749 38                    1954 	.db #0x38	; 56	'8'
      00074A 18                    1955 	.db #0x18	; 24
      00074B 38                    1956 	.db #0x38	; 56	'8'
      00074C 18                    1957 	.db #0x18	; 24
      00074D 7C                    1958 	.db #0x7c	; 124
      00074E 3C                    1959 	.db #0x3c	; 60
      00074F FE                    1960 	.db #0xfe	; 254
      000750 7E                    1961 	.db #0x7e	; 126
      000751 EE                    1962 	.db #0xee	; 238
      000752 66                    1963 	.db #0x66	; 102	'f'
      000753 7C                    1964 	.db #0x7c	; 124
      000754 3C                    1965 	.db #0x3c	; 60
      000755 38                    1966 	.db #0x38	; 56	'8'
      000756 18                    1967 	.db #0x18	; 24
      000757 6C                    1968 	.db #0x6c	; 108	'l'
      000758 24                    1969 	.db #0x24	; 36
      000759 FE                    1970 	.db #0xfe	; 254
      00075A 7E                    1971 	.db #0x7e	; 126
      00075B 7C                    1972 	.db #0x7c	; 124
      00075C 3C                    1973 	.db #0x3c	; 60
      00075D 79                    1974 	.db #0x79	; 121	'y'
      00075E 38                    1975 	.db #0x38	; 56	'8'
      00075F FC                    1976 	.db #0xfc	; 252
      000760 7C                    1977 	.db #0x7c	; 124
      000761 EE                    1978 	.db #0xee	; 238
      000762 66                    1979 	.db #0x66	; 102	'f'
      000763 FE                    1980 	.db #0xfe	; 254
      000764 76                    1981 	.db #0x76	; 118	'v'
      000765 7E                    1982 	.db #0x7e	; 126
      000766 3E                    1983 	.db #0x3e	; 62
      000767 0E                    1984 	.db #0x0e	; 14
      000768 06                    1985 	.db #0x06	; 6
      000769 FE                    1986 	.db #0xfe	; 254
      00076A 7E                    1987 	.db #0x7e	; 126
      00076B 7C                    1988 	.db #0x7c	; 124
      00076C 3C                    1989 	.db #0x3c	; 60
      00076D 00                    1990 	.db #0x00	; 0
      00076E 00                    1991 	.db #0x00	; 0
      00076F 00                    1992 	.db #0x00	; 0
      000770 00                    1993 	.db #0x00	; 0
      000771 00                    1994 	.db #0x00	; 0
      000772 00                    1995 	.db #0x00	; 0
      000773 00                    1996 	.db #0x00	; 0
      000774 00                    1997 	.db #0x00	; 0
      000775 00                    1998 	.db #0x00	; 0
      000776 00                    1999 	.db #0x00	; 0
      000777 00                    2000 	.db #0x00	; 0
      000778 00                    2001 	.db #0x00	; 0
      000779 00                    2002 	.db #0x00	; 0
      00077A 00                    2003 	.db #0x00	; 0
      00077B 00                    2004 	.db #0x00	; 0
      00077C 00                    2005 	.db #0x00	; 0
      00077D 00                    2006 	.db #0x00	; 0
      00077E 00                    2007 	.db #0x00	; 0
      00077F 00                    2008 	.db #0x00	; 0
      000780 00                    2009 	.db #0x00	; 0
      000781 00                    2010 	.db #0x00	; 0
      000782 00                    2011 	.db #0x00	; 0
      000783 00                    2012 	.db #0x00	; 0
      000784 00                    2013 	.db #0x00	; 0
      000785 00                    2014 	.db #0x00	; 0
      000786 00                    2015 	.db #0x00	; 0
      000787 00                    2016 	.db #0x00	; 0
      000788 00                    2017 	.db #0x00	; 0
      000789 00                    2018 	.db #0x00	; 0
      00078A 00                    2019 	.db #0x00	; 0
      00078B 00                    2020 	.db #0x00	; 0
      00078C 00                    2021 	.db #0x00	; 0
      00078D 00                    2022 	.db #0x00	; 0
      00078E 00                    2023 	.db #0x00	; 0
      00078F 00                    2024 	.db #0x00	; 0
      000790 00                    2025 	.db #0x00	; 0
      000791 00                    2026 	.db #0x00	; 0
      000792 00                    2027 	.db #0x00	; 0
      000793 00                    2028 	.db #0x00	; 0
      000794 00                    2029 	.db #0x00	; 0
      000795 00                    2030 	.db #0x00	; 0
      000796 00                    2031 	.db #0x00	; 0
      000797 00                    2032 	.db #0x00	; 0
      000798 00                    2033 	.db #0x00	; 0
      000799 00                    2034 	.db #0x00	; 0
      00079A 00                    2035 	.db #0x00	; 0
      00079B 00                    2036 	.db #0x00	; 0
      00079C 00                    2037 	.db #0x00	; 0
      00079D 00                    2038 	.db #0x00	; 0
      00079E 00                    2039 	.db #0x00	; 0
      00079F 00                    2040 	.db #0x00	; 0
      0007A0 00                    2041 	.db #0x00	; 0
      0007A1 00                    2042 	.db #0x00	; 0
      0007A2 00                    2043 	.db #0x00	; 0
      0007A3 00                    2044 	.db #0x00	; 0
      0007A4 00                    2045 	.db #0x00	; 0
      0007A5 00                    2046 	.db #0x00	; 0
      0007A6 00                    2047 	.db #0x00	; 0
      0007A7 00                    2048 	.db #0x00	; 0
      0007A8 00                    2049 	.db #0x00	; 0
      0007A9 00                    2050 	.db #0x00	; 0
      0007AA 00                    2051 	.db #0x00	; 0
      0007AB 00                    2052 	.db #0x00	; 0
      0007AC 00                    2053 	.db #0x00	; 0
      0007AD 00                    2054 	.db #0x00	; 0
      0007AE 00                    2055 	.db #0x00	; 0
      0007AF 00                    2056 	.db #0x00	; 0
      0007B0 00                    2057 	.db #0x00	; 0
      0007B1 00                    2058 	.db #0x00	; 0
      0007B2 00                    2059 	.db #0x00	; 0
      0007B3 00                    2060 	.db #0x00	; 0
      0007B4 00                    2061 	.db #0x00	; 0
      0007B5 00                    2062 	.db #0x00	; 0
      0007B6 00                    2063 	.db #0x00	; 0
      0007B7 00                    2064 	.db #0x00	; 0
      0007B8 00                    2065 	.db #0x00	; 0
      0007B9 00                    2066 	.db #0x00	; 0
      0007BA 00                    2067 	.db #0x00	; 0
      0007BB 00                    2068 	.db #0x00	; 0
      0007BC 00                    2069 	.db #0x00	; 0
      0007BD 00                    2070 	.db #0x00	; 0
      0007BE 00                    2071 	.db #0x00	; 0
      0007BF 00                    2072 	.db #0x00	; 0
      0007C0 00                    2073 	.db #0x00	; 0
      0007C1 00                    2074 	.db #0x00	; 0
      0007C2 00                    2075 	.db #0x00	; 0
      0007C3 00                    2076 	.db #0x00	; 0
      0007C4 00                    2077 	.db #0x00	; 0
      0007C5 00                    2078 	.db #0x00	; 0
      0007C6 00                    2079 	.db #0x00	; 0
      0007C7 00                    2080 	.db #0x00	; 0
      0007C8 00                    2081 	.db #0x00	; 0
      0007C9 00                    2082 	.db #0x00	; 0
      0007CA 00                    2083 	.db #0x00	; 0
      0007CB 00                    2084 	.db #0x00	; 0
      0007CC 00                    2085 	.db #0x00	; 0
      0007CD 00                    2086 	.db #0x00	; 0
      0007CE 00                    2087 	.db #0x00	; 0
      0007CF 00                    2088 	.db #0x00	; 0
      0007D0 00                    2089 	.db #0x00	; 0
      0007D1 00                    2090 	.db #0x00	; 0
      0007D2 00                    2091 	.db #0x00	; 0
      0007D3 00                    2092 	.db #0x00	; 0
      0007D4 00                    2093 	.db #0x00	; 0
      0007D5 00                    2094 	.db #0x00	; 0
      0007D6 00                    2095 	.db #0x00	; 0
      0007D7 00                    2096 	.db #0x00	; 0
      0007D8 00                    2097 	.db #0x00	; 0
      0007D9 00                    2098 	.db #0x00	; 0
      0007DA 00                    2099 	.db #0x00	; 0
      0007DB 00                    2100 	.db #0x00	; 0
      0007DC 00                    2101 	.db #0x00	; 0
      0007DD 00                    2102 	.db #0x00	; 0
      0007DE 00                    2103 	.db #0x00	; 0
      0007DF 00                    2104 	.db #0x00	; 0
      0007E0 00                    2105 	.db #0x00	; 0
      0007E1 00                    2106 	.db #0x00	; 0
      0007E2 00                    2107 	.db #0x00	; 0
      0007E3 00                    2108 	.db #0x00	; 0
      0007E4 00                    2109 	.db #0x00	; 0
      0007E5 00                    2110 	.db #0x00	; 0
      0007E6 00                    2111 	.db #0x00	; 0
      0007E7 00                    2112 	.db #0x00	; 0
      0007E8 00                    2113 	.db #0x00	; 0
      0007E9 00                    2114 	.db #0x00	; 0
      0007EA 00                    2115 	.db #0x00	; 0
      0007EB 00                    2116 	.db #0x00	; 0
      0007EC 00                    2117 	.db #0x00	; 0
      0007ED 00                    2118 	.db #0x00	; 0
      0007EE 00                    2119 	.db #0x00	; 0
      0007EF 00                    2120 	.db #0x00	; 0
      0007F0 00                    2121 	.db #0x00	; 0
      0007F1 00                    2122 	.db #0x00	; 0
      0007F2 00                    2123 	.db #0x00	; 0
      0007F3 00                    2124 	.db #0x00	; 0
      0007F4 00                    2125 	.db #0x00	; 0
      0007F5 00                    2126 	.db #0x00	; 0
      0007F6 00                    2127 	.db #0x00	; 0
      0007F7 00                    2128 	.db #0x00	; 0
      0007F8 00                    2129 	.db #0x00	; 0
      0007F9 00                    2130 	.db #0x00	; 0
      0007FA 00                    2131 	.db #0x00	; 0
      0007FB 00                    2132 	.db #0x00	; 0
      0007FC 00                    2133 	.db #0x00	; 0
      0007FD 00                    2134 	.db #0x00	; 0
      0007FE 00                    2135 	.db #0x00	; 0
      0007FF 00                    2136 	.db #0x00	; 0
      000800 00                    2137 	.db #0x00	; 0
      000801 00                    2138 	.db #0x00	; 0
      000802 00                    2139 	.db #0x00	; 0
      000803 00                    2140 	.db #0x00	; 0
      000804 00                    2141 	.db #0x00	; 0
      000805 00                    2142 	.db #0x00	; 0
      000806 00                    2143 	.db #0x00	; 0
      000807 00                    2144 	.db #0x00	; 0
      000808 00                    2145 	.db #0x00	; 0
      000809 00                    2146 	.db #0x00	; 0
      00080A 00                    2147 	.db #0x00	; 0
      00080B 00                    2148 	.db #0x00	; 0
      00080C 00                    2149 	.db #0x00	; 0
      00080D 00                    2150 	.db #0x00	; 0
      00080E 00                    2151 	.db #0x00	; 0
      00080F 00                    2152 	.db #0x00	; 0
      000810 00                    2153 	.db #0x00	; 0
      000811 00                    2154 	.db #0x00	; 0
      000812 00                    2155 	.db #0x00	; 0
      000813 00                    2156 	.db #0x00	; 0
      000814 00                    2157 	.db #0x00	; 0
      000815 00                    2158 	.db #0x00	; 0
      000816 00                    2159 	.db #0x00	; 0
      000817 00                    2160 	.db #0x00	; 0
      000818 00                    2161 	.db #0x00	; 0
      000819 00                    2162 	.db #0x00	; 0
      00081A 00                    2163 	.db #0x00	; 0
      00081B 00                    2164 	.db #0x00	; 0
      00081C 00                    2165 	.db #0x00	; 0
      00081D 00                    2166 	.db #0x00	; 0
      00081E 00                    2167 	.db #0x00	; 0
      00081F 00                    2168 	.db #0x00	; 0
      000820 00                    2169 	.db #0x00	; 0
      000821 00                    2170 	.db #0x00	; 0
      000822 00                    2171 	.db #0x00	; 0
      000823 00                    2172 	.db #0x00	; 0
      000824 00                    2173 	.db #0x00	; 0
      000825 00                    2174 	.db #0x00	; 0
      000826 00                    2175 	.db #0x00	; 0
      000827 00                    2176 	.db #0x00	; 0
      000828 00                    2177 	.db #0x00	; 0
      000829 00                    2178 	.db #0x00	; 0
      00082A 00                    2179 	.db #0x00	; 0
      00082B 00                    2180 	.db #0x00	; 0
      00082C 00                    2181 	.db #0x00	; 0
      00082D 00                    2182 	.db #0x00	; 0
      00082E 00                    2183 	.db #0x00	; 0
      00082F 00                    2184 	.db #0x00	; 0
      000830 00                    2185 	.db #0x00	; 0
      000831 00                    2186 	.db #0x00	; 0
      000832 00                    2187 	.db #0x00	; 0
      000833 00                    2188 	.db #0x00	; 0
      000834 00                    2189 	.db #0x00	; 0
      000835 00                    2190 	.db #0x00	; 0
      000836 00                    2191 	.db #0x00	; 0
      000837 00                    2192 	.db #0x00	; 0
      000838 00                    2193 	.db #0x00	; 0
      000839 00                    2194 	.db #0x00	; 0
      00083A 00                    2195 	.db #0x00	; 0
      00083B 00                    2196 	.db #0x00	; 0
      00083C 00                    2197 	.db #0x00	; 0
      00083D 00                    2198 	.db #0x00	; 0
      00083E 00                    2199 	.db #0x00	; 0
      00083F 00                    2200 	.db #0x00	; 0
      000840 00                    2201 	.db #0x00	; 0
      000841 00                    2202 	.db #0x00	; 0
      000842 00                    2203 	.db #0x00	; 0
      000843 00                    2204 	.db #0x00	; 0
      000844 00                    2205 	.db #0x00	; 0
      000845 00                    2206 	.db #0x00	; 0
      000846 00                    2207 	.db #0x00	; 0
      000847 00                    2208 	.db #0x00	; 0
      000848 00                    2209 	.db #0x00	; 0
      000849 00                    2210 	.db #0x00	; 0
      00084A 00                    2211 	.db #0x00	; 0
      00084B 00                    2212 	.db #0x00	; 0
      00084C 00                    2213 	.db #0x00	; 0
      00084D 00                    2214 	.db #0x00	; 0
      00084E 00                    2215 	.db #0x00	; 0
      00084F 00                    2216 	.db #0x00	; 0
      000850 00                    2217 	.db #0x00	; 0
      000851 00                    2218 	.db #0x00	; 0
      000852 00                    2219 	.db #0x00	; 0
      000853 00                    2220 	.db #0x00	; 0
      000854 00                    2221 	.db #0x00	; 0
      000855 00                    2222 	.db #0x00	; 0
      000856 00                    2223 	.db #0x00	; 0
      000857 00                    2224 	.db #0x00	; 0
      000858 00                    2225 	.db #0x00	; 0
      000859 00                    2226 	.db #0x00	; 0
      00085A 00                    2227 	.db #0x00	; 0
      00085B 00                    2228 	.db #0x00	; 0
      00085C 00                    2229 	.db #0x00	; 0
      00085D 00                    2230 	.db #0x00	; 0
      00085E 00                    2231 	.db #0x00	; 0
      00085F 00                    2232 	.db #0x00	; 0
      000860 00                    2233 	.db #0x00	; 0
      000861 00                    2234 	.db #0x00	; 0
      000862 00                    2235 	.db #0x00	; 0
      000863 00                    2236 	.db #0x00	; 0
      000864 00                    2237 	.db #0x00	; 0
      000865 00                    2238 	.db #0x00	; 0
      000866 00                    2239 	.db #0x00	; 0
      000867 00                    2240 	.db #0x00	; 0
      000868 00                    2241 	.db #0x00	; 0
      000869 00                    2242 	.db #0x00	; 0
      00086A 00                    2243 	.db #0x00	; 0
      00086B 00                    2244 	.db #0x00	; 0
      00086C 00                    2245 	.db #0x00	; 0
      00086D 00                    2246 	.db #0x00	; 0
      00086E 00                    2247 	.db #0x00	; 0
      00086F 00                    2248 	.db #0x00	; 0
      000870 00                    2249 	.db #0x00	; 0
      000871 00                    2250 	.db #0x00	; 0
      000872 00                    2251 	.db #0x00	; 0
      000873 00                    2252 	.db #0x00	; 0
      000874 00                    2253 	.db #0x00	; 0
      000875 00                    2254 	.db #0x00	; 0
      000876 00                    2255 	.db #0x00	; 0
      000877 00                    2256 	.db #0x00	; 0
      000878 00                    2257 	.db #0x00	; 0
      000879 00                    2258 	.db #0x00	; 0
      00087A 00                    2259 	.db #0x00	; 0
      00087B 00                    2260 	.db #0x00	; 0
      00087C 00                    2261 	.db #0x00	; 0
      00087D 00                    2262 	.db #0x00	; 0
      00087E 00                    2263 	.db #0x00	; 0
      00087F 00                    2264 	.db #0x00	; 0
      000880 00                    2265 	.db #0x00	; 0
      000881 00                    2266 	.db #0x00	; 0
      000882 00                    2267 	.db #0x00	; 0
      000883 00                    2268 	.db #0x00	; 0
      000884 00                    2269 	.db #0x00	; 0
      000885 00                    2270 	.db #0x00	; 0
      000886 00                    2271 	.db #0x00	; 0
      000887 00                    2272 	.db #0x00	; 0
      000888 00                    2273 	.db #0x00	; 0
      000889 00                    2274 	.db #0x00	; 0
      00088A 00                    2275 	.db #0x00	; 0
      00088B 00                    2276 	.db #0x00	; 0
      00088C 00                    2277 	.db #0x00	; 0
                                   2278 ;src/player.c:16: void playerInit() {
                                   2279 ;	---------------------------------
                                   2280 ; Function playerInit
                                   2281 ; ---------------------------------
      00088D                       2282 _playerInit::
      00088D E8 FC            [16] 2283 	add	sp, #-4
                                   2284 ;src/player.c:17: reload = 0;
      00088F 21r01r00         [12] 2285 	ld	hl, #_reload
      000892 36 00            [12] 2286 	ld	(hl), #0x00
                                   2287 ;src/player.c:18: player.x        =  50;
      000894 21r02r00         [12] 2288 	ld	hl, #_player
      000897 36 32            [12] 2289 	ld	(hl), #0x32
                                   2290 ;src/player.c:19: player.y        =  50;
      000899 21r03r00         [12] 2291 	ld	hl, #(_player + 1)
      00089C 36 32            [12] 2292 	ld	(hl), #0x32
                                   2293 ;src/player.c:20: player.id       =   20;
      00089E 01r04r00         [12] 2294 	ld	bc, #_player + 2
      0008A1 3E 14            [ 8] 2295 	ld	a, #0x14
      0008A3 02               [ 8] 2296 	ld	(bc), a
                                   2297 ;src/player.c:21: player.shooting = FALSE;
      0008A4 21r05r00         [12] 2298 	ld	hl, #(_player + 3)
      0008A7 36 00            [12] 2299 	ld	(hl), #0x00
                                   2300 ;src/player.c:22: set_sprite_tile(player.id,1);   // Sprite to use.
      0008A9 0A               [ 8] 2301 	ld	a, (bc)
                                   2302 ;c:/gbdk/include/gb/gb.h:1602: shadow_OAM[nb].tile=tile;
      0008AA 6F               [ 4] 2303 	ld	l, a
      0008AB 01r00r00         [12] 2304 	ld	bc, #_shadow_OAM+0
                                   2305 ;	spillPairReg hl
                                   2306 ;	spillPairReg hl
      0008AE 26 00            [ 8] 2307 	ld	h, #0x00
                                   2308 ;	spillPairReg hl
                                   2309 ;	spillPairReg hl
      0008B0 29               [ 8] 2310 	add	hl, hl
      0008B1 29               [ 8] 2311 	add	hl, hl
      0008B2 09               [ 8] 2312 	add	hl, bc
      0008B3 23               [ 8] 2313 	inc	hl
      0008B4 23               [ 8] 2314 	inc	hl
      0008B5 36 01            [12] 2315 	ld	(hl), #0x01
                                   2316 ;src/player.c:23: currentBullet   =   1;
      0008B7 21r00r00         [12] 2317 	ld	hl, #_currentBullet
      0008BA 36 01            [12] 2318 	ld	(hl), #0x01
                                   2319 ;src/player.c:24: for (int i = 0; i < NUM_BULLETS; i++) {
      0008BC 01 00 00         [12] 2320 	ld	bc, #0x0000
      0008BF                       2321 00105$:
      0008BF 79               [ 4] 2322 	ld	a, c
      0008C0 D6 03            [ 8] 2323 	sub	a, #0x03
      0008C2 78               [ 4] 2324 	ld	a, b
      0008C3 17               [ 4] 2325 	rla
      0008C4 3F               [ 4] 2326 	ccf
      0008C5 1F               [ 4] 2327 	rra
      0008C6 DE 80            [ 8] 2328 	sbc	a, #0x80
      0008C8 30 5B            [12] 2329 	jr	NC, 00107$
                                   2330 ;src/player.c:25: bullets[i].ready = TRUE;
      0008CA 69               [ 4] 2331 	ld	l, c
      0008CB 60               [ 4] 2332 	ld	h, b
      0008CC 29               [ 8] 2333 	add	hl, hl
      0008CD 29               [ 8] 2334 	add	hl, hl
      0008CE 09               [ 8] 2335 	add	hl, bc
      0008CF 33               [ 8] 2336 	inc	sp
      0008D0 33               [ 8] 2337 	inc	sp
      0008D1 5D               [ 4] 2338 	ld	e, l
      0008D2 54               [ 4] 2339 	ld	d, h
      0008D3 D5               [16] 2340 	push	de
      0008D4 21r06r00         [12] 2341 	ld	hl, #_bullets
      0008D7 19               [ 8] 2342 	add	hl, de
      0008D8 E5               [16] 2343 	push	hl
      0008D9 7D               [ 4] 2344 	ld	a, l
      0008DA F8 04            [12] 2345 	ldhl	sp,	#4
      0008DC 77               [ 8] 2346 	ld	(hl), a
      0008DD E1               [12] 2347 	pop	hl
      0008DE 7C               [ 4] 2348 	ld	a, h
      0008DF F8 03            [12] 2349 	ldhl	sp,	#3
      0008E1 32               [ 8] 2350 	ld	(hl-), a
      0008E2 2A               [ 8] 2351 	ld	a, (hl+)
      0008E3 5F               [ 4] 2352 	ld	e, a
      0008E4 56               [ 8] 2353 	ld	d, (hl)
      0008E5 21 04 00         [12] 2354 	ld	hl, #0x0004
      0008E8 19               [ 8] 2355 	add	hl, de
      0008E9 36 01            [12] 2356 	ld	(hl), #0x01
                                   2357 ;src/player.c:26: bullets[i].x     = 200;   
      0008EB F8 02            [12] 2358 	ldhl	sp,	#2
      0008ED 2A               [ 8] 2359 	ld	a,	(hl+)
      0008EE 66               [ 8] 2360 	ld	h, (hl)
      0008EF 6F               [ 4] 2361 	ld	l, a
      0008F0 36 C8            [12] 2362 	ld	(hl), #0xc8
                                   2363 ;src/player.c:27: bullets[i].y     = 0;
      0008F2 F8 02            [12] 2364 	ldhl	sp,	#2
      0008F4 2A               [ 8] 2365 	ld	a, (hl+)
      0008F5 5F               [ 4] 2366 	ld	e, a
                                   2367 ;src/player.c:28: bullets[i].id    = i + 1;  
      0008F6 3A               [ 8] 2368 	ld	a, (hl-)
      0008F7 57               [ 4] 2369 	ld	d, a
      0008F8 13               [ 8] 2370 	inc	de
      0008F9 AF               [ 4] 2371 	xor	a, a
      0008FA 12               [ 8] 2372 	ld	(de), a
      0008FB 2A               [ 8] 2373 	ld	a, (hl+)
      0008FC 5F               [ 4] 2374 	ld	e, a
      0008FD 56               [ 8] 2375 	ld	d, (hl)
      0008FE 13               [ 8] 2376 	inc	de
      0008FF 13               [ 8] 2377 	inc	de
      000900 79               [ 4] 2378 	ld	a, c
      000901 3C               [ 4] 2379 	inc	a
      000902 12               [ 8] 2380 	ld	(de), a
                                   2381 ;src/player.c:29: bullets[i].tile  = 2;
                                   2382 ;	spillPairReg hl
                                   2383 ;	spillPairReg hl
      000903 3A               [ 8] 2384 	ld	a, (hl-)
      000904 6E               [ 8] 2385 	ld	l, (hl)
      000905 67               [ 4] 2386 	ld	h, a
                                   2387 ;	spillPairReg hl
                                   2388 ;	spillPairReg hl
      000906 23               [ 8] 2389 	inc	hl
      000907 23               [ 8] 2390 	inc	hl
      000908 23               [ 8] 2391 	inc	hl
      000909 36 02            [12] 2392 	ld	(hl), #0x02
                                   2393 ;src/player.c:30: set_sprite_tile(bullets[i].id, bullets[i].tile);
      00090B 7E               [ 8] 2394 	ld	a, (hl)
      00090C F8 03            [12] 2395 	ldhl	sp,	#3
      00090E 77               [ 8] 2396 	ld	(hl), a
      00090F 1A               [ 8] 2397 	ld	a, (de)
      000910 5F               [ 4] 2398 	ld	e, a
                                   2399 ;c:/gbdk/include/gb/gb.h:1602: shadow_OAM[nb].tile=tile;
      000911 26 00            [ 8] 2400 	ld	h, #0x00
                                   2401 ;	spillPairReg hl
                                   2402 ;	spillPairReg hl
      000913 6B               [ 4] 2403 	ld	l, e
      000914 29               [ 8] 2404 	add	hl, hl
      000915 29               [ 8] 2405 	add	hl, hl
      000916 11r00r00         [12] 2406 	ld	de, #_shadow_OAM
      000919 19               [ 8] 2407 	add	hl, de
      00091A 23               [ 8] 2408 	inc	hl
      00091B 23               [ 8] 2409 	inc	hl
      00091C 5D               [ 4] 2410 	ld	e, l
      00091D 54               [ 4] 2411 	ld	d, h
      00091E F8 03            [12] 2412 	ldhl	sp,	#3
      000920 7E               [ 8] 2413 	ld	a, (hl)
      000921 12               [ 8] 2414 	ld	(de), a
                                   2415 ;src/player.c:24: for (int i = 0; i < NUM_BULLETS; i++) {
      000922 03               [ 8] 2416 	inc	bc
      000923 18 9A            [12] 2417 	jr	00105$
      000925                       2418 00107$:
                                   2419 ;src/player.c:32: }
      000925 E8 04            [16] 2420 	add	sp, #4
      000927 C9               [16] 2421 	ret
                                   2422 ;src/player.c:35: void playerMovement() {
                                   2423 ;	---------------------------------
                                   2424 ; Function playerMovement
                                   2425 ; ---------------------------------
      000928                       2426 _playerMovement::
                                   2427 ;src/player.c:36: if (joypad() & J_UP   ) { player.y -- ; if ( player.y < MIN_Y ) { player.y = MIN_Y; } }
      000928 CDr00r00         [24] 2428 	call	_joypad
      00092B CB 57            [ 8] 2429 	bit	2, a
      00092D 28 0D            [12] 2430 	jr	Z, 00104$
      00092F 01r03r00         [12] 2431 	ld	bc, #_player+1
      000932 0A               [ 8] 2432 	ld	a, (bc)
      000933 3D               [ 4] 2433 	dec	a
      000934 02               [ 8] 2434 	ld	(bc), a
      000935 D6 10            [ 8] 2435 	sub	a, #0x10
      000937 30 03            [12] 2436 	jr	NC, 00104$
      000939 3E 10            [ 8] 2437 	ld	a, #0x10
      00093B 02               [ 8] 2438 	ld	(bc), a
      00093C                       2439 00104$:
                                   2440 ;src/player.c:37: if (joypad() & J_DOWN ) { player.y ++ ; if ( player.y > MAX_Y ) { player.y = MAX_Y; } }
      00093C CDr00r00         [24] 2441 	call	_joypad
      00093F CB 5F            [ 8] 2442 	bit	3, a
      000941 28 0F            [12] 2443 	jr	Z, 00108$
      000943 01r03r00         [12] 2444 	ld	bc, #_player+1
      000946 0A               [ 8] 2445 	ld	a, (bc)
      000947 3C               [ 4] 2446 	inc	a
      000948 5F               [ 4] 2447 	ld	e, a
      000949 02               [ 8] 2448 	ld	(bc), a
      00094A 3E 88            [ 8] 2449 	ld	a, #0x88
      00094C 93               [ 4] 2450 	sub	a, e
      00094D 30 03            [12] 2451 	jr	NC, 00108$
      00094F 3E 88            [ 8] 2452 	ld	a, #0x88
      000951 02               [ 8] 2453 	ld	(bc), a
      000952                       2454 00108$:
                                   2455 ;src/player.c:38: if (joypad() & J_LEFT ) { player.x -- ; if ( player.x < MIN_X ) { player.x = MIN_X; } }
      000952 CDr00r00         [24] 2456 	call	_joypad
      000955 CB 4F            [ 8] 2457 	bit	1, a
      000957 28 0D            [12] 2458 	jr	Z, 00112$
      000959 01r02r00         [12] 2459 	ld	bc, #_player+0
      00095C 0A               [ 8] 2460 	ld	a, (bc)
      00095D 3D               [ 4] 2461 	dec	a
      00095E 02               [ 8] 2462 	ld	(bc), a
      00095F D6 08            [ 8] 2463 	sub	a, #0x08
      000961 30 03            [12] 2464 	jr	NC, 00112$
      000963 3E 08            [ 8] 2465 	ld	a, #0x08
      000965 02               [ 8] 2466 	ld	(bc), a
      000966                       2467 00112$:
                                   2468 ;src/player.c:39: if (joypad() & J_RIGHT) { player.x ++ ; if ( player.x > MAX_X ) { player.x = MAX_X; } }
      000966 CDr00r00         [24] 2469 	call	_joypad
      000969 0F               [ 4] 2470 	rrca
      00096A 30 0F            [12] 2471 	jr	NC, 00116$
      00096C 01r02r00         [12] 2472 	ld	bc, #_player+0
      00096F 0A               [ 8] 2473 	ld	a, (bc)
      000970 3C               [ 4] 2474 	inc	a
      000971 5F               [ 4] 2475 	ld	e, a
      000972 02               [ 8] 2476 	ld	(bc), a
      000973 3E A0            [ 8] 2477 	ld	a, #0xa0
      000975 93               [ 4] 2478 	sub	a, e
      000976 30 03            [12] 2479 	jr	NC, 00116$
      000978 3E A0            [ 8] 2480 	ld	a, #0xa0
      00097A 02               [ 8] 2481 	ld	(bc), a
      00097B                       2482 00116$:
                                   2483 ;src/player.c:40: if (joypad() & J_A    ) { player.shooting = TRUE; } else { player.shooting = FALSE; } 
      00097B CDr00r00         [24] 2484 	call	_joypad
      00097E CB 67            [ 8] 2485 	bit	4, a
      000980 28 06            [12] 2486 	jr	Z, 00118$
      000982 21r05r00         [12] 2487 	ld	hl, #(_player + 3)
      000985 36 01            [12] 2488 	ld	(hl), #0x01
      000987 C9               [16] 2489 	ret
      000988                       2490 00118$:
      000988 21r05r00         [12] 2491 	ld	hl, #(_player + 3)
      00098B 36 00            [12] 2492 	ld	(hl), #0x00
                                   2493 ;src/player.c:42: }
      00098D C9               [16] 2494 	ret
                                   2495 ;src/player.c:44: void bulletUpdate() {
                                   2496 ;	---------------------------------
                                   2497 ; Function bulletUpdate
                                   2498 ; ---------------------------------
      00098E                       2499 _bulletUpdate::
      00098E 3B               [ 8] 2500 	dec	sp
      00098F 3B               [ 8] 2501 	dec	sp
                                   2502 ;src/player.c:46: if (reload > 0) {
      000990 21r01r00         [12] 2503 	ld	hl, #_reload
      000993 5E               [ 8] 2504 	ld	e, (hl)
      000994 AF               [ 4] 2505 	xor	a, a
      000995 57               [ 4] 2506 	ld	d, a
      000996 96               [ 8] 2507 	sub	a, (hl)
      000997 CB 7B            [ 8] 2508 	bit	7, e
      000999 28 07            [12] 2509 	jr	Z, 00167$
      00099B CB 7A            [ 8] 2510 	bit	7, d
      00099D 20 08            [12] 2511 	jr	NZ, 00168$
      00099F BF               [ 4] 2512 	cp	a, a
      0009A0 18 05            [12] 2513 	jr	00168$
      0009A2                       2514 00167$:
      0009A2 CB 7A            [ 8] 2515 	bit	7, d
      0009A4 28 01            [12] 2516 	jr	Z, 00168$
      0009A6 37               [ 4] 2517 	scf
      0009A7                       2518 00168$:
      0009A7 30 04            [12] 2519 	jr	NC, 00102$
                                   2520 ;src/player.c:47: reload --;
      0009A9 21r01r00         [12] 2521 	ld	hl, #_reload
      0009AC 35               [12] 2522 	dec	(hl)
      0009AD                       2523 00102$:
                                   2524 ;src/player.c:50: if (player.shooting && reload == 0) {
      0009AD FAr05r00         [16] 2525 	ld	a, (#(_player + 3) + 0)
      0009B0 B7               [ 4] 2526 	or	a, a
      0009B1 28 5F            [12] 2527 	jr	Z, 00129$
      0009B3 FAr01r00         [16] 2528 	ld	a, (#_reload)
      0009B6 B7               [ 4] 2529 	or	a, a
      0009B7 20 59            [12] 2530 	jr	NZ, 00129$
                                   2531 ;src/player.c:51: for (int i = 0; i < NUM_BULLETS; i++) {
      0009B9 01 00 00         [12] 2532 	ld	bc, #0x0000
      0009BC                       2533 00114$:
      0009BC 79               [ 4] 2534 	ld	a, c
      0009BD D6 03            [ 8] 2535 	sub	a, #0x03
      0009BF 78               [ 4] 2536 	ld	a, b
      0009C0 17               [ 4] 2537 	rla
      0009C1 3F               [ 4] 2538 	ccf
      0009C2 1F               [ 4] 2539 	rra
      0009C3 DE 80            [ 8] 2540 	sbc	a, #0x80
      0009C5 30 4B            [12] 2541 	jr	NC, 00129$
                                   2542 ;src/player.c:52: if (currentBullet == i + 1) {
      0009C7 59               [ 4] 2543 	ld	e, c
      0009C8 50               [ 4] 2544 	ld	d, b
      0009C9 13               [ 8] 2545 	inc	de
      0009CA 21r00r00         [12] 2546 	ld	hl, #_currentBullet
      0009CD 6E               [ 8] 2547 	ld	l, (hl)
                                   2548 ;	spillPairReg hl
                                   2549 ;	spillPairReg hl
      0009CE 26 00            [ 8] 2550 	ld	h, #0x00
                                   2551 ;	spillPairReg hl
                                   2552 ;	spillPairReg hl
      0009D0 7D               [ 4] 2553 	ld	a, l
      0009D1 93               [ 4] 2554 	sub	a, e
      0009D2 20 3A            [12] 2555 	jr	NZ, 00115$
      0009D4 7C               [ 4] 2556 	ld	a, h
      0009D5 92               [ 4] 2557 	sub	a, d
      0009D6 20 36            [12] 2558 	jr	NZ, 00115$
                                   2559 ;src/player.c:53: bullets[i].x     = player.x;
      0009D8 69               [ 4] 2560 	ld	l, c
      0009D9 60               [ 4] 2561 	ld	h, b
      0009DA 29               [ 8] 2562 	add	hl, hl
      0009DB 29               [ 8] 2563 	add	hl, hl
      0009DC 09               [ 8] 2564 	add	hl, bc
      0009DD 01r06r00         [12] 2565 	ld	bc,#_bullets
      0009E0 09               [ 8] 2566 	add	hl,bc
      0009E1 4D               [ 4] 2567 	ld	c, l
      0009E2 44               [ 4] 2568 	ld	b, h
      0009E3 FAr02r00         [16] 2569 	ld	a, (#_player + 0)
      0009E6 02               [ 8] 2570 	ld	(bc), a
                                   2571 ;src/player.c:54: bullets[i].y     = player.y;
      0009E7 59               [ 4] 2572 	ld	e, c
      0009E8 50               [ 4] 2573 	ld	d, b
      0009E9 13               [ 8] 2574 	inc	de
      0009EA FAr03r00         [16] 2575 	ld	a, (#_player + 1)
      0009ED 12               [ 8] 2576 	ld	(de), a
                                   2577 ;src/player.c:55: bullets[i].ready = FALSE;
      0009EE 03               [ 8] 2578 	inc	bc
      0009EF 03               [ 8] 2579 	inc	bc
      0009F0 03               [ 8] 2580 	inc	bc
      0009F1 03               [ 8] 2581 	inc	bc
      0009F2 AF               [ 4] 2582 	xor	a, a
      0009F3 02               [ 8] 2583 	ld	(bc), a
                                   2584 ;src/player.c:56: reload += RELOAD;
      0009F4 21r01r00         [12] 2585 	ld	hl, #_reload
      0009F7 7E               [ 8] 2586 	ld	a, (hl)
      0009F8 C6 14            [ 8] 2587 	add	a, #0x14
      0009FA 77               [ 8] 2588 	ld	(hl), a
                                   2589 ;src/player.c:57: currentBullet = (currentBullet % NUM_BULLETS) + 1;
      0009FB 21r00r00         [12] 2590 	ld	hl, #_currentBullet
      0009FE 5E               [ 8] 2591 	ld	e, (hl)
      0009FF 16 00            [ 8] 2592 	ld	d, #0x00
      000A01 01 03 00         [12] 2593 	ld	bc, #0x0003
      000A04 CDr00r00         [24] 2594 	call	__modsint
      000A07 79               [ 4] 2595 	ld	a, c
      000A08 3C               [ 4] 2596 	inc	a
      000A09 EAr00r00         [16] 2597 	ld	(#_currentBullet),a
                                   2598 ;src/player.c:58: break;
      000A0C 18 04            [12] 2599 	jr	00129$
      000A0E                       2600 00115$:
                                   2601 ;src/player.c:51: for (int i = 0; i < NUM_BULLETS; i++) {
      000A0E 4B               [ 4] 2602 	ld	c, e
      000A0F 42               [ 4] 2603 	ld	b, d
      000A10 18 AA            [12] 2604 	jr	00114$
                                   2605 ;src/player.c:64: for (int i = 0; i < NUM_BULLETS; i++) {
      000A12                       2606 00129$:
      000A12 01 00 00         [12] 2607 	ld	bc, #0x0000
      000A15                       2608 00117$:
      000A15 79               [ 4] 2609 	ld	a, c
      000A16 D6 03            [ 8] 2610 	sub	a, #0x03
      000A18 78               [ 4] 2611 	ld	a, b
      000A19 17               [ 4] 2612 	rla
      000A1A 3F               [ 4] 2613 	ccf
      000A1B 1F               [ 4] 2614 	rra
      000A1C DE 80            [ 8] 2615 	sbc	a, #0x80
      000A1E 30 43            [12] 2616 	jr	NC, 00119$
                                   2617 ;src/player.c:66: if (bullets[i].x >= MAX_X) {
      000A20 69               [ 4] 2618 	ld	l, c
      000A21 60               [ 4] 2619 	ld	h, b
      000A22 29               [ 8] 2620 	add	hl, hl
      000A23 29               [ 8] 2621 	add	hl, hl
      000A24 09               [ 8] 2622 	add	hl, bc
      000A25 7D               [ 4] 2623 	ld	a, l
      000A26 C6r06            [ 8] 2624 	add	a, #<(_bullets)
      000A28 5F               [ 4] 2625 	ld	e, a
      000A29 7C               [ 4] 2626 	ld	a, h
      000A2A CEs00            [ 8] 2627 	adc	a, #>(_bullets)
      000A2C 57               [ 4] 2628 	ld	d, a
      000A2D 1A               [ 8] 2629 	ld	a, (de)
      000A2E D6 A0            [ 8] 2630 	sub	a, #0xa0
      000A30 38 09            [12] 2631 	jr	C, 00110$
                                   2632 ;src/player.c:67: bullets[i].x = 170;
      000A32 3E AA            [ 8] 2633 	ld	a, #0xaa
      000A34 12               [ 8] 2634 	ld	(de), a
                                   2635 ;src/player.c:68: bullets[i].ready = TRUE;
      000A35 21 04 00         [12] 2636 	ld	hl, #0x0004
      000A38 19               [ 8] 2637 	add	hl, de
      000A39 36 01            [12] 2638 	ld	(hl), #0x01
      000A3B                       2639 00110$:
                                   2640 ;src/player.c:71: bullets[i].x += 3;
      000A3B 1A               [ 8] 2641 	ld	a, (de)
      000A3C C6 03            [ 8] 2642 	add	a, #0x03
      000A3E 12               [ 8] 2643 	ld	(de), a
                                   2644 ;src/player.c:72: move_sprite(bullets[i].id, bullets[i].x, bullets[i].y);
      000A3F 6B               [ 4] 2645 	ld	l, e
                                   2646 ;	spillPairReg hl
                                   2647 ;	spillPairReg hl
      000A40 62               [ 4] 2648 	ld	h, d
                                   2649 ;	spillPairReg hl
                                   2650 ;	spillPairReg hl
      000A41 23               [ 8] 2651 	inc	hl
      000A42 7E               [ 8] 2652 	ld	a, (hl)
      000A43 F8 00            [12] 2653 	ldhl	sp,	#0
      000A45 77               [ 8] 2654 	ld	(hl), a
      000A46 1A               [ 8] 2655 	ld	a, (de)
      000A47 F8 01            [12] 2656 	ldhl	sp,	#1
      000A49 77               [ 8] 2657 	ld	(hl), a
      000A4A 13               [ 8] 2658 	inc	de
      000A4B 13               [ 8] 2659 	inc	de
      000A4C 1A               [ 8] 2660 	ld	a, (de)
      000A4D 5F               [ 4] 2661 	ld	e, a
                                   2662 ;c:/gbdk/include/gb/gb.h:1675: OAM_item_t * itm = &shadow_OAM[nb];
      000A4E 26 00            [ 8] 2663 	ld	h, #0x00
                                   2664 ;	spillPairReg hl
                                   2665 ;	spillPairReg hl
      000A50 6B               [ 4] 2666 	ld	l, e
      000A51 29               [ 8] 2667 	add	hl, hl
      000A52 29               [ 8] 2668 	add	hl, hl
      000A53 11r00r00         [12] 2669 	ld	de, #_shadow_OAM
      000A56 19               [ 8] 2670 	add	hl, de
      000A57 5D               [ 4] 2671 	ld	e, l
      000A58 54               [ 4] 2672 	ld	d, h
                                   2673 ;c:/gbdk/include/gb/gb.h:1676: itm->y=y, itm->x=x;
      000A59 F8 00            [12] 2674 	ldhl	sp,	#0
      000A5B 2A               [ 8] 2675 	ld	a, (hl+)
      000A5C 12               [ 8] 2676 	ld	(de), a
      000A5D 13               [ 8] 2677 	inc	de
      000A5E 7E               [ 8] 2678 	ld	a, (hl)
      000A5F 12               [ 8] 2679 	ld	(de), a
                                   2680 ;src/player.c:64: for (int i = 0; i < NUM_BULLETS; i++) {
      000A60 03               [ 8] 2681 	inc	bc
      000A61 18 B2            [12] 2682 	jr	00117$
      000A63                       2683 00119$:
                                   2684 ;src/player.c:74: }
      000A63 33               [ 8] 2685 	inc	sp
      000A64 33               [ 8] 2686 	inc	sp
      000A65 C9               [16] 2687 	ret
                                   2688 ;src/player.c:76: void playerUpdate() {
                                   2689 ;	---------------------------------
                                   2690 ; Function playerUpdate
                                   2691 ; ---------------------------------
      000A66                       2692 _playerUpdate::
      000A66 3B               [ 8] 2693 	dec	sp
                                   2694 ;src/player.c:77: move_sprite( player.id , player.x , player.y );
      000A67 11r02r00         [12] 2695 	ld	de, #_player+0
      000A6A 6B               [ 4] 2696 	ld	l, e
                                   2697 ;	spillPairReg hl
                                   2698 ;	spillPairReg hl
      000A6B 62               [ 4] 2699 	ld	h, d
                                   2700 ;	spillPairReg hl
                                   2701 ;	spillPairReg hl
      000A6C 23               [ 8] 2702 	inc	hl
      000A6D 4E               [ 8] 2703 	ld	c, (hl)
      000A6E 1A               [ 8] 2704 	ld	a, (de)
      000A6F F8 00            [12] 2705 	ldhl	sp,	#0
      000A71 77               [ 8] 2706 	ld	(hl), a
      000A72 13               [ 8] 2707 	inc	de
      000A73 13               [ 8] 2708 	inc	de
      000A74 1A               [ 8] 2709 	ld	a, (de)
                                   2710 ;c:/gbdk/include/gb/gb.h:1675: OAM_item_t * itm = &shadow_OAM[nb];
      000A75 6F               [ 4] 2711 	ld	l, a
                                   2712 ;	spillPairReg hl
                                   2713 ;	spillPairReg hl
      000A76 26 00            [ 8] 2714 	ld	h, #0x00
                                   2715 ;	spillPairReg hl
                                   2716 ;	spillPairReg hl
      000A78 29               [ 8] 2717 	add	hl, hl
      000A79 29               [ 8] 2718 	add	hl, hl
      000A7A 11r00r00         [12] 2719 	ld	de, #_shadow_OAM
      000A7D 19               [ 8] 2720 	add	hl, de
                                   2721 ;c:/gbdk/include/gb/gb.h:1676: itm->y=y, itm->x=x;
      000A7E 79               [ 4] 2722 	ld	a, c
      000A7F 22               [ 8] 2723 	ld	(hl+), a
      000A80 4D               [ 4] 2724 	ld	c, l
      000A81 44               [ 4] 2725 	ld	b, h
      000A82 F8 00            [12] 2726 	ldhl	sp,	#0
      000A84 7E               [ 8] 2727 	ld	a, (hl)
      000A85 02               [ 8] 2728 	ld	(bc), a
                                   2729 ;src/player.c:78: playerMovement();
      000A86 CDr28r09         [24] 2730 	call	_playerMovement
                                   2731 ;src/player.c:79: bulletUpdate();
      000A89 33               [ 8] 2732 	inc	sp
      000A8A C3r8Er09         [16] 2733 	jp	_bulletUpdate
                                   2734 ;src/player.c:80: }
      000A8D 33               [ 8] 2735 	inc	sp
      000A8E C9               [16] 2736 	ret
                                   2737 ;src/enemy.c:11: void moveEnemy(struct Enemy * m)		{ move_sprite( m-> id , m -> x , m -> y); }
                                   2738 ;	---------------------------------
                                   2739 ; Function moveEnemy
                                   2740 ; ---------------------------------
      000A8F                       2741 _moveEnemy::
      000A8F 6B               [ 4] 2742 	ld	l, e
                                   2743 ;	spillPairReg hl
                                   2744 ;	spillPairReg hl
      000A90 62               [ 4] 2745 	ld	h, d
                                   2746 ;	spillPairReg hl
                                   2747 ;	spillPairReg hl
      000A91 23               [ 8] 2748 	inc	hl
      000A92 23               [ 8] 2749 	inc	hl
      000A93 46               [ 8] 2750 	ld	b, (hl)
      000A94 1A               [ 8] 2751 	ld	a, (de)
      000A95 4F               [ 4] 2752 	ld	c, a
      000A96 21 04 00         [12] 2753 	ld	hl, #0x0004
      000A99 19               [ 8] 2754 	add	hl, de
                                   2755 ;c:/gbdk/include/gb/gb.h:1675: OAM_item_t * itm = &shadow_OAM[nb];
      000A9A 6E               [ 8] 2756 	ld	l, (hl)
                                   2757 ;	spillPairReg hl
                                   2758 ;	spillPairReg hl
      000A9B 26 00            [ 8] 2759 	ld	h, #0x00
                                   2760 ;	spillPairReg hl
                                   2761 ;	spillPairReg hl
      000A9D 29               [ 8] 2762 	add	hl, hl
      000A9E 29               [ 8] 2763 	add	hl, hl
      000A9F 11r00r00         [12] 2764 	ld	de, #_shadow_OAM
      000AA2 19               [ 8] 2765 	add	hl, de
                                   2766 ;c:/gbdk/include/gb/gb.h:1676: itm->y=y, itm->x=x;
      000AA3 78               [ 4] 2767 	ld	a, b
      000AA4 22               [ 8] 2768 	ld	(hl+), a
      000AA5 71               [ 8] 2769 	ld	(hl), c
                                   2770 ;src/enemy.c:11: void moveEnemy(struct Enemy * m)		{ move_sprite( m-> id , m -> x , m -> y); }
      000AA6 C9               [16] 2771 	ret
                                   2772 ;src/enemy.c:12: void activateEnemy(struct Enemy * m)	{ m -> active = 1; }
                                   2773 ;	---------------------------------
                                   2774 ; Function activateEnemy
                                   2775 ; ---------------------------------
      000AA7                       2776 _activateEnemy::
      000AA7 21 06 00         [12] 2777 	ld	hl, #0x0006
      000AAA 19               [ 8] 2778 	add	hl, de
      000AAB 36 01            [12] 2779 	ld	(hl), #0x01
      000AAD C9               [16] 2780 	ret
                                   2781 ;src/enemy.c:13: void deactivateEnemy(struct Enemy * m)	{ m -> active = 0; }
                                   2782 ;	---------------------------------
                                   2783 ; Function deactivateEnemy
                                   2784 ; ---------------------------------
      000AAE                       2785 _deactivateEnemy::
      000AAE 21 06 00         [12] 2786 	ld	hl, #0x0006
      000AB1 19               [ 8] 2787 	add	hl, de
      000AB2 36 00            [12] 2788 	ld	(hl), #0x00
      000AB4 C9               [16] 2789 	ret
                                   2790 ;src/enemy.c:15: void goToNode(struct Enemy * m, struct Node * n) {
                                   2791 ;	---------------------------------
                                   2792 ; Function goToNode
                                   2793 ; ---------------------------------
      000AB5                       2794 _goToNode::
      000AB5 6B               [ 4] 2795 	ld	l, e
                                   2796 ;	spillPairReg hl
                                   2797 ;	spillPairReg hl
      000AB6 62               [ 4] 2798 	ld	h, d
                                   2799 ;	spillPairReg hl
                                   2800 ;	spillPairReg hl
                                   2801 ;src/enemy.c:16: if ( m -> x > n -> x) { m -> x --; }    // If monster x > node x. Mode left.
      000AB7 5E               [ 8] 2802 	ld	e, (hl)
      000AB8 0A               [ 8] 2803 	ld	a, (bc)
      000AB9 93               [ 4] 2804 	sub	a, e
      000ABA 30 02            [12] 2805 	jr	NC, 00102$
      000ABC 1D               [ 4] 2806 	dec	e
      000ABD 73               [ 8] 2807 	ld	(hl), e
      000ABE                       2808 00102$:
      000ABE 5E               [ 8] 2809 	ld	e, (hl)
                                   2810 ;src/enemy.c:17: if ( m -> x < n -> x) { m -> x ++; }    // If monster x < ndoe x. Move right.
      000ABF 0A               [ 8] 2811 	ld	a, (bc)
      000AC0 57               [ 4] 2812 	ld	d, a
      000AC1 7B               [ 4] 2813 	ld	a, e
      000AC2 92               [ 4] 2814 	sub	a, d
      000AC3 30 02            [12] 2815 	jr	NC, 00104$
      000AC5 1C               [ 4] 2816 	inc	e
      000AC6 73               [ 8] 2817 	ld	(hl), e
      000AC7                       2818 00104$:
                                   2819 ;src/enemy.c:18: if ( m -> y > n -> y) { m -> y --; }    // If monster y > node y. Move up.
      000AC7 23               [ 8] 2820 	inc	hl
      000AC8 23               [ 8] 2821 	inc	hl
      000AC9 5E               [ 8] 2822 	ld	e, (hl)
      000ACA 03               [ 8] 2823 	inc	bc
      000ACB 0A               [ 8] 2824 	ld	a, (bc)
      000ACC 93               [ 4] 2825 	sub	a, e
      000ACD 30 02            [12] 2826 	jr	NC, 00106$
      000ACF 1D               [ 4] 2827 	dec	e
      000AD0 73               [ 8] 2828 	ld	(hl), e
      000AD1                       2829 00106$:
      000AD1 5E               [ 8] 2830 	ld	e, (hl)
                                   2831 ;src/enemy.c:19: if ( m -> y < n -> y) { m -> y ++; }    // If monster y < node y. Move down.
      000AD2 0A               [ 8] 2832 	ld	a, (bc)
      000AD3 4F               [ 4] 2833 	ld	c, a
      000AD4 7B               [ 4] 2834 	ld	a, e
      000AD5 91               [ 4] 2835 	sub	a, c
      000AD6 D0               [20] 2836 	ret	NC
      000AD7 1C               [ 4] 2837 	inc	e
      000AD8 73               [ 8] 2838 	ld	(hl), e
                                   2839 ;src/enemy.c:20: }
      000AD9 C9               [16] 2840 	ret
                                   2841 ;src/enemy.c:22: void enemyInit(struct Enemy * m, uint8_t id, uint8_t x, uint8_t y, uint8_t sprite) {
                                   2842 ;	---------------------------------
                                   2843 ; Function enemyInit
                                   2844 ; ---------------------------------
      000ADA                       2845 _enemyInit::
      000ADA 3B               [ 8] 2846 	dec	sp
      000ADB F8 00            [12] 2847 	ldhl	sp,	#0
      000ADD 77               [ 8] 2848 	ld	(hl), a
                                   2849 ;src/enemy.c:23: m -> active 		=	1;
      000ADE 21 06 00         [12] 2850 	ld	hl, #0x0006
      000AE1 19               [ 8] 2851 	add	hl, de
      000AE2 36 01            [12] 2852 	ld	(hl), #0x01
                                   2853 ;src/enemy.c:24: m -> x      		=	x;
      000AE4 F8 03            [12] 2854 	ldhl	sp,	#3
      000AE6 7E               [ 8] 2855 	ld	a, (hl)
      000AE7 12               [ 8] 2856 	ld	(de), a
                                   2857 ;src/enemy.c:25: m -> startx 		=	x;
      000AE8 4B               [ 4] 2858 	ld	c, e
      000AE9 42               [ 4] 2859 	ld	b, d
      000AEA 03               [ 8] 2860 	inc	bc
                                   2861 ;src/enemy.c:26: m -> y      		=	y;
      000AEB 2A               [ 8] 2862 	ld	a, (hl+)
      000AEC 02               [ 8] 2863 	ld	(bc), a
      000AED 4B               [ 4] 2864 	ld	c, e
      000AEE 42               [ 4] 2865 	ld	b, d
      000AEF 03               [ 8] 2866 	inc	bc
      000AF0 03               [ 8] 2867 	inc	bc
      000AF1 7E               [ 8] 2868 	ld	a, (hl)
      000AF2 02               [ 8] 2869 	ld	(bc), a
                                   2870 ;src/enemy.c:27: m -> starty 		=	y;
      000AF3 4B               [ 4] 2871 	ld	c, e
      000AF4 42               [ 4] 2872 	ld	b, d
      000AF5 03               [ 8] 2873 	inc	bc
      000AF6 03               [ 8] 2874 	inc	bc
      000AF7 03               [ 8] 2875 	inc	bc
      000AF8 7E               [ 8] 2876 	ld	a, (hl)
      000AF9 02               [ 8] 2877 	ld	(bc), a
                                   2878 ;src/enemy.c:28: m -> id     		=	id;
      000AFA 21 04 00         [12] 2879 	ld	hl, #0x0004
      000AFD 19               [ 8] 2880 	add	hl, de
      000AFE 4D               [ 4] 2881 	ld	c, l
      000AFF 44               [ 4] 2882 	ld	b, h
      000B00 F8 00            [12] 2883 	ldhl	sp,	#0
      000B02 7E               [ 8] 2884 	ld	a, (hl)
      000B03 02               [ 8] 2885 	ld	(bc), a
                                   2886 ;src/enemy.c:29: m -> currentNode 	= 	0;
      000B04 21 05 00         [12] 2887 	ld	hl, #0x0005
      000B07 19               [ 8] 2888 	add	hl, de
      000B08 36 00            [12] 2889 	ld	(hl), #0x00
                                   2890 ;src/enemy.c:30: set_sprite_tile(m -> id , sprite);
      000B0A F8 05            [12] 2891 	ldhl	sp,	#5
      000B0C 4E               [ 8] 2892 	ld	c, (hl)
                                   2893 ;c:/gbdk/include/gb/gb.h:1602: shadow_OAM[nb].tile=tile;
      000B0D 11r00r00         [12] 2894 	ld	de, #_shadow_OAM+0
      000B10 F8 00            [12] 2895 	ldhl	sp,	#0
      000B12 7E               [ 8] 2896 	ld	a, (hl)
      000B13 06 00            [ 8] 2897 	ld	b, #0x00
      000B15 6F               [ 4] 2898 	ld	l, a
      000B16 60               [ 4] 2899 	ld	h, b
      000B17 29               [ 8] 2900 	add	hl, hl
      000B18 29               [ 8] 2901 	add	hl, hl
      000B19 19               [ 8] 2902 	add	hl, de
      000B1A 23               [ 8] 2903 	inc	hl
      000B1B 23               [ 8] 2904 	inc	hl
      000B1C 71               [ 8] 2905 	ld	(hl), c
                                   2906 ;src/enemy.c:30: set_sprite_tile(m -> id , sprite);
                                   2907 ;src/enemy.c:31: }
      000B1D 33               [ 8] 2908 	inc	sp
      000B1E E1               [12] 2909 	pop	hl
      000B1F E8 03            [16] 2910 	add	sp, #3
      000B21 E9               [ 4] 2911 	jp	(hl)
                                   2912 ;src/enemy.c:33: void enemyUpdate(struct Enemy * m) {
                                   2913 ;	---------------------------------
                                   2914 ; Function enemyUpdate
                                   2915 ; ---------------------------------
      000B22                       2916 _enemyUpdate::
      000B22 E8 F2            [16] 2917 	add	sp, #-14
      000B24 F8 0C            [12] 2918 	ldhl	sp,	#12
      000B26 7B               [ 4] 2919 	ld	a, e
      000B27 22               [ 8] 2920 	ld	(hl+), a
                                   2921 ;src/enemy.c:34: if ( m -> active) { 
      000B28 7A               [ 4] 2922 	ld	a, d
      000B29 32               [ 8] 2923 	ld	(hl-), a
      000B2A 2A               [ 8] 2924 	ld	a, (hl+)
      000B2B 5F               [ 4] 2925 	ld	e, a
      000B2C 56               [ 8] 2926 	ld	d, (hl)
      000B2D 21 06 00         [12] 2927 	ld	hl, #0x0006
      000B30 19               [ 8] 2928 	add	hl, de
      000B31 33               [ 8] 2929 	inc	sp
      000B32 33               [ 8] 2930 	inc	sp
      000B33 5D               [ 4] 2931 	ld	e, l
      000B34 54               [ 4] 2932 	ld	d, h
      000B35 D5               [16] 2933 	push	de
      000B36 1A               [ 8] 2934 	ld	a, (de)
      000B37 F8 0B            [12] 2935 	ldhl	sp,	#11
                                   2936 ;src/enemy.c:36: if ( m -> x == m -> node[ m -> currentNode ].x && m -> y == m -> node [ m -> currentNode ].y) { m -> currentNode ++; }
      000B39 22               [ 8] 2937 	ld	(hl+), a
      000B3A 2A               [ 8] 2938 	ld	a, (hl+)
      000B3B 5F               [ 4] 2939 	ld	e, a
      000B3C 56               [ 8] 2940 	ld	d, (hl)
      000B3D 21 02 00         [12] 2941 	ld	hl, #0x0002
      000B40 19               [ 8] 2942 	add	hl, de
      000B41 E5               [16] 2943 	push	hl
      000B42 7D               [ 4] 2944 	ld	a, l
      000B43 F8 04            [12] 2945 	ldhl	sp,	#4
      000B45 77               [ 8] 2946 	ld	(hl), a
      000B46 E1               [12] 2947 	pop	hl
      000B47 7C               [ 4] 2948 	ld	a, h
      000B48 F8 03            [12] 2949 	ldhl	sp,	#3
      000B4A 77               [ 8] 2950 	ld	(hl), a
                                   2951 ;src/enemy.c:34: if ( m -> active) { 
      000B4B F8 0B            [12] 2952 	ldhl	sp,	#11
      000B4D 7E               [ 8] 2953 	ld	a, (hl)
      000B4E B7               [ 4] 2954 	or	a, a
      000B4F CArF1r0B         [16] 2955 	jp	Z, 00107$
                                   2956 ;src/enemy.c:35: moveEnemy(m);
      000B52 23               [ 8] 2957 	inc	hl
      000B53 2A               [ 8] 2958 	ld	a, (hl+)
      000B54 5F               [ 4] 2959 	ld	e, a
      000B55 56               [ 8] 2960 	ld	d, (hl)
      000B56 CDr8Fr0A         [24] 2961 	call	_moveEnemy
                                   2962 ;src/enemy.c:36: if ( m -> x == m -> node[ m -> currentNode ].x && m -> y == m -> node [ m -> currentNode ].y) { m -> currentNode ++; }
      000B59 F8 0C            [12] 2963 	ldhl	sp,#12
      000B5B 2A               [ 8] 2964 	ld	a, (hl+)
      000B5C 5F               [ 4] 2965 	ld	e, a
      000B5D 56               [ 8] 2966 	ld	d, (hl)
      000B5E 1A               [ 8] 2967 	ld	a, (de)
      000B5F F8 04            [12] 2968 	ldhl	sp,	#4
      000B61 77               [ 8] 2969 	ld	(hl), a
      000B62 F8 0C            [12] 2970 	ldhl	sp,#12
      000B64 2A               [ 8] 2971 	ld	a, (hl+)
      000B65 5F               [ 4] 2972 	ld	e, a
      000B66 56               [ 8] 2973 	ld	d, (hl)
      000B67 21 07 00         [12] 2974 	ld	hl, #0x0007
      000B6A 19               [ 8] 2975 	add	hl, de
      000B6B E5               [16] 2976 	push	hl
      000B6C 7D               [ 4] 2977 	ld	a, l
      000B6D F8 07            [12] 2978 	ldhl	sp,	#7
      000B6F 77               [ 8] 2979 	ld	(hl), a
      000B70 E1               [12] 2980 	pop	hl
      000B71 7C               [ 4] 2981 	ld	a, h
      000B72 F8 06            [12] 2982 	ldhl	sp,	#6
      000B74 77               [ 8] 2983 	ld	(hl), a
      000B75 F8 0C            [12] 2984 	ldhl	sp,#12
      000B77 2A               [ 8] 2985 	ld	a, (hl+)
      000B78 5F               [ 4] 2986 	ld	e, a
      000B79 56               [ 8] 2987 	ld	d, (hl)
      000B7A 21 05 00         [12] 2988 	ld	hl, #0x0005
      000B7D 19               [ 8] 2989 	add	hl, de
      000B7E E5               [16] 2990 	push	hl
      000B7F 7D               [ 4] 2991 	ld	a, l
      000B80 F8 09            [12] 2992 	ldhl	sp,	#9
      000B82 77               [ 8] 2993 	ld	(hl), a
      000B83 E1               [12] 2994 	pop	hl
      000B84 7C               [ 4] 2995 	ld	a, h
      000B85 F8 08            [12] 2996 	ldhl	sp,	#8
      000B87 32               [ 8] 2997 	ld	(hl-), a
      000B88 2A               [ 8] 2998 	ld	a, (hl+)
      000B89 5F               [ 4] 2999 	ld	e, a
      000B8A 2A               [ 8] 3000 	ld	a, (hl+)
      000B8B 57               [ 4] 3001 	ld	d, a
      000B8C 1A               [ 8] 3002 	ld	a, (de)
      000B8D 22               [ 8] 3003 	ld	(hl+), a
      000B8E 23               [ 8] 3004 	inc	hl
      000B8F 87               [ 4] 3005 	add	a, a
      000B90 77               [ 8] 3006 	ld	(hl), a
      000B91 5E               [ 8] 3007 	ld	e, (hl)
      000B92 16 00            [ 8] 3008 	ld	d, #0x00
      000B94 F8 05            [12] 3009 	ldhl	sp,	#5
      000B96 2A               [ 8] 3010 	ld	a,	(hl+)
      000B97 66               [ 8] 3011 	ld	h, (hl)
      000B98 6F               [ 4] 3012 	ld	l, a
      000B99 19               [ 8] 3013 	add	hl, de
      000B9A E5               [16] 3014 	push	hl
      000B9B 7D               [ 4] 3015 	ld	a, l
      000B9C F8 0C            [12] 3016 	ldhl	sp,	#12
      000B9E 77               [ 8] 3017 	ld	(hl), a
      000B9F E1               [12] 3018 	pop	hl
      000BA0 7C               [ 4] 3019 	ld	a, h
      000BA1 F8 0B            [12] 3020 	ldhl	sp,	#11
      000BA3 32               [ 8] 3021 	ld	(hl-), a
      000BA4 2A               [ 8] 3022 	ld	a, (hl+)
      000BA5 5F               [ 4] 3023 	ld	e, a
      000BA6 56               [ 8] 3024 	ld	d, (hl)
      000BA7 1A               [ 8] 3025 	ld	a, (de)
      000BA8 4F               [ 4] 3026 	ld	c, a
      000BA9 F8 04            [12] 3027 	ldhl	sp,	#4
      000BAB 7E               [ 8] 3028 	ld	a, (hl)
      000BAC 91               [ 4] 3029 	sub	a, c
      000BAD 20 1A            [12] 3030 	jr	NZ, 00102$
      000BAF F8 02            [12] 3031 	ldhl	sp,#2
      000BB1 2A               [ 8] 3032 	ld	a, (hl+)
      000BB2 5F               [ 4] 3033 	ld	e, a
      000BB3 56               [ 8] 3034 	ld	d, (hl)
      000BB4 1A               [ 8] 3035 	ld	a, (de)
      000BB5 F8 0A            [12] 3036 	ldhl	sp,	#10
      000BB7 5E               [ 8] 3037 	ld	e, (hl)
      000BB8 23               [ 8] 3038 	inc	hl
      000BB9 66               [ 8] 3039 	ld	h, (hl)
                                   3040 ;	spillPairReg hl
                                   3041 ;	spillPairReg hl
      000BBA 6B               [ 4] 3042 	ld	l, e
                                   3043 ;	spillPairReg hl
                                   3044 ;	spillPairReg hl
      000BBB 23               [ 8] 3045 	inc	hl
      000BBC 4E               [ 8] 3046 	ld	c, (hl)
      000BBD 91               [ 4] 3047 	sub	a, c
      000BBE 20 09            [12] 3048 	jr	NZ, 00102$
      000BC0 F8 09            [12] 3049 	ldhl	sp,	#9
      000BC2 3A               [ 8] 3050 	ld	a, (hl-)
      000BC3 4F               [ 4] 3051 	ld	c, a
      000BC4 0C               [ 4] 3052 	inc	c
      000BC5 3A               [ 8] 3053 	ld	a, (hl-)
      000BC6 6E               [ 8] 3054 	ld	l, (hl)
      000BC7 67               [ 4] 3055 	ld	h, a
      000BC8 71               [ 8] 3056 	ld	(hl), c
      000BC9                       3057 00102$:
                                   3058 ;src/enemy.c:37: goToNode (m, & m -> node[m -> currentNode]);
      000BC9 F8 07            [12] 3059 	ldhl	sp,#7
      000BCB 2A               [ 8] 3060 	ld	a, (hl+)
      000BCC 5F               [ 4] 3061 	ld	e, a
      000BCD 56               [ 8] 3062 	ld	d, (hl)
      000BCE 1A               [ 8] 3063 	ld	a, (de)
      000BCF 87               [ 4] 3064 	add	a, a
      000BD0 5F               [ 4] 3065 	ld	e, a
      000BD1 16 00            [ 8] 3066 	ld	d, #0x00
      000BD3 F8 05            [12] 3067 	ldhl	sp,	#5
      000BD5 2A               [ 8] 3068 	ld	a,	(hl+)
      000BD6 66               [ 8] 3069 	ld	h, (hl)
      000BD7 6F               [ 4] 3070 	ld	l, a
      000BD8 19               [ 8] 3071 	add	hl, de
      000BD9 4D               [ 4] 3072 	ld	c, l
      000BDA 44               [ 4] 3073 	ld	b, h
      000BDB F8 0C            [12] 3074 	ldhl	sp,	#12
      000BDD 2A               [ 8] 3075 	ld	a, (hl+)
      000BDE 5F               [ 4] 3076 	ld	e, a
      000BDF 56               [ 8] 3077 	ld	d, (hl)
      000BE0 CDrB5r0A         [24] 3078 	call	_goToNode
                                   3079 ;src/enemy.c:38: if (m -> currentNode == 4) { m -> active = 0; }
      000BE3 F8 07            [12] 3080 	ldhl	sp,#7
      000BE5 2A               [ 8] 3081 	ld	a, (hl+)
      000BE6 5F               [ 4] 3082 	ld	e, a
      000BE7 56               [ 8] 3083 	ld	d, (hl)
      000BE8 1A               [ 8] 3084 	ld	a, (de)
      000BE9 D6 04            [ 8] 3085 	sub	a, #0x04
      000BEB 20 04            [12] 3086 	jr	NZ, 00107$
      000BED E1               [12] 3087 	pop	hl
      000BEE 36 00            [12] 3088 	ld	(hl), #0x00
      000BF0 E5               [16] 3089 	push	hl
      000BF1                       3090 00107$:
                                   3091 ;src/enemy.c:41: if ( m -> active == 0 ) {
      000BF1 D1               [12] 3092 	pop	de
      000BF2 D5               [16] 3093 	push	de
      000BF3 1A               [ 8] 3094 	ld	a, (de)
      000BF4 B7               [ 4] 3095 	or	a, a
      000BF5 20 16            [12] 3096 	jr	NZ, 00110$
                                   3097 ;src/enemy.c:42: m -> x = 0;
      000BF7 F8 0C            [12] 3098 	ldhl	sp,	#12
      000BF9 2A               [ 8] 3099 	ld	a,	(hl+)
      000BFA 66               [ 8] 3100 	ld	h, (hl)
      000BFB 6F               [ 4] 3101 	ld	l, a
      000BFC 36 00            [12] 3102 	ld	(hl), #0x00
                                   3103 ;src/enemy.c:43: m -> y = 0;
      000BFE F8 02            [12] 3104 	ldhl	sp,	#2
      000C00 2A               [ 8] 3105 	ld	a,	(hl+)
      000C01 66               [ 8] 3106 	ld	h, (hl)
      000C02 6F               [ 4] 3107 	ld	l, a
      000C03 36 00            [12] 3108 	ld	(hl), #0x00
                                   3109 ;src/enemy.c:44: moveEnemy(m);
      000C05 F8 0C            [12] 3110 	ldhl	sp,	#12
      000C07 2A               [ 8] 3111 	ld	a, (hl+)
      000C08 5F               [ 4] 3112 	ld	e, a
      000C09 56               [ 8] 3113 	ld	d, (hl)
      000C0A CDr8Fr0A         [24] 3114 	call	_moveEnemy
      000C0D                       3115 00110$:
                                   3116 ;src/enemy.c:46: }
      000C0D E8 0E            [16] 3117 	add	sp, #14
      000C0F C9               [16] 3118 	ret
                                   3119 ;src/enemy.c:48: void squarePattern(struct Enemy * m, uint8_t distance) {	
                                   3120 ;	---------------------------------
                                   3121 ; Function squarePattern
                                   3122 ; ---------------------------------
      000C10                       3123 _squarePattern::
      000C10 E8 F7            [16] 3124 	add	sp, #-9
      000C12 F8 07            [12] 3125 	ldhl	sp,	#7
      000C14 73               [ 8] 3126 	ld	(hl), e
      000C15 23               [ 8] 3127 	inc	hl
      000C16 72               [ 8] 3128 	ld	(hl), d
      000C17 2B               [ 8] 3129 	dec	hl
      000C18 2B               [ 8] 3130 	dec	hl
                                   3131 ;src/enemy.c:49: m -> node[0].x = m -> startx;                   m -> node[0].y = m -> starty;                   // Start
      000C19 22               [ 8] 3132 	ld	(hl+), a
      000C1A 2A               [ 8] 3133 	ld	a, (hl+)
      000C1B 5F               [ 4] 3134 	ld	e, a
      000C1C 56               [ 8] 3135 	ld	d, (hl)
      000C1D 21 07 00         [12] 3136 	ld	hl, #0x0007
      000C20 19               [ 8] 3137 	add	hl, de
      000C21 5D               [ 4] 3138 	ld	e, l
      000C22 54               [ 4] 3139 	ld	d, h
      000C23 F8 07            [12] 3140 	ldhl	sp,	#7
      000C25 2A               [ 8] 3141 	ld	a, (hl+)
      000C26 4F               [ 4] 3142 	ld	c, a
      000C27 46               [ 8] 3143 	ld	b, (hl)
      000C28 03               [ 8] 3144 	inc	bc
      000C29 0A               [ 8] 3145 	ld	a, (bc)
      000C2A F8 05            [12] 3146 	ldhl	sp,	#5
      000C2C 22               [ 8] 3147 	ld	(hl+), a
      000C2D 23               [ 8] 3148 	inc	hl
      000C2E 12               [ 8] 3149 	ld	(de), a
      000C2F 4B               [ 4] 3150 	ld	c, e
      000C30 42               [ 4] 3151 	ld	b, d
      000C31 03               [ 8] 3152 	inc	bc
      000C32 2A               [ 8] 3153 	ld	a, (hl+)
      000C33 66               [ 8] 3154 	ld	h, (hl)
                                   3155 ;	spillPairReg hl
                                   3156 ;	spillPairReg hl
      000C34 6F               [ 4] 3157 	ld	l, a
                                   3158 ;	spillPairReg hl
                                   3159 ;	spillPairReg hl
      000C35 23               [ 8] 3160 	inc	hl
      000C36 23               [ 8] 3161 	inc	hl
      000C37 23               [ 8] 3162 	inc	hl
      000C38 7E               [ 8] 3163 	ld	a, (hl)
      000C39 02               [ 8] 3164 	ld	(bc), a
                                   3165 ;src/enemy.c:50: m -> node[1].x = m -> node[0].x -= distance;    m -> node[1].y = m -> node[0].y;                // Move Left
      000C3A 4B               [ 4] 3166 	ld	c, e
      000C3B 42               [ 4] 3167 	ld	b, d
      000C3C 03               [ 8] 3168 	inc	bc
      000C3D 03               [ 8] 3169 	inc	bc
      000C3E F8 05            [12] 3170 	ldhl	sp,	#5
      000C40 2A               [ 8] 3171 	ld	a, (hl+)
      000C41 96               [ 8] 3172 	sub	a, (hl)
      000C42 23               [ 8] 3173 	inc	hl
      000C43 12               [ 8] 3174 	ld	(de), a
      000C44 02               [ 8] 3175 	ld	(bc), a
      000C45 2A               [ 8] 3176 	ld	a, (hl+)
      000C46 5F               [ 4] 3177 	ld	e, a
      000C47 56               [ 8] 3178 	ld	d, (hl)
      000C48 21 07 00         [12] 3179 	ld	hl, #0x0007
      000C4B 19               [ 8] 3180 	add	hl, de
      000C4C 33               [ 8] 3181 	inc	sp
      000C4D 33               [ 8] 3182 	inc	sp
      000C4E 5D               [ 4] 3183 	ld	e, l
      000C4F 54               [ 4] 3184 	ld	d, h
      000C50 D5               [16] 3185 	push	de
      000C51 13               [ 8] 3186 	inc	de
      000C52 13               [ 8] 3187 	inc	de
      000C53 C1               [12] 3188 	pop	bc
      000C54 C5               [16] 3189 	push	bc
      000C55 03               [ 8] 3190 	inc	bc
      000C56 03               [ 8] 3191 	inc	bc
      000C57 03               [ 8] 3192 	inc	bc
      000C58 E1               [12] 3193 	pop	hl
      000C59 E5               [16] 3194 	push	hl
      000C5A 23               [ 8] 3195 	inc	hl
      000C5B 7E               [ 8] 3196 	ld	a, (hl)
      000C5C F8 05            [12] 3197 	ldhl	sp,#5
      000C5E 77               [ 8] 3198 	ld	(hl), a
      000C5F 02               [ 8] 3199 	ld	(bc), a
                                   3200 ;src/enemy.c:51: m -> node[2].x = m -> node[1].x;                m -> node[2].y = m -> node[1].y += distance;    // Move Down
      000C60 D5               [16] 3201 	push	de
      000C61 F8 02            [12] 3202 	ldhl	sp,#2
      000C63 2A               [ 8] 3203 	ld	a, (hl+)
      000C64 5F               [ 4] 3204 	ld	e, a
      000C65 56               [ 8] 3205 	ld	d, (hl)
      000C66 21 04 00         [12] 3206 	ld	hl, #0x0004
      000C69 19               [ 8] 3207 	add	hl, de
      000C6A D1               [12] 3208 	pop	de
      000C6B E5               [16] 3209 	push	hl
      000C6C 7D               [ 4] 3210 	ld	a, l
      000C6D F8 04            [12] 3211 	ldhl	sp,	#4
      000C6F 77               [ 8] 3212 	ld	(hl), a
      000C70 E1               [12] 3213 	pop	hl
      000C71 7C               [ 4] 3214 	ld	a, h
      000C72 F8 03            [12] 3215 	ldhl	sp,	#3
      000C74 22               [ 8] 3216 	ld	(hl+), a
      000C75 1A               [ 8] 3217 	ld	a, (de)
      000C76 32               [ 8] 3218 	ld	(hl-), a
      000C77 2B               [ 8] 3219 	dec	hl
      000C78 2A               [ 8] 3220 	ld	a, (hl+)
      000C79 5F               [ 4] 3221 	ld	e, a
      000C7A 2A               [ 8] 3222 	ld	a, (hl+)
      000C7B 57               [ 4] 3223 	ld	d, a
      000C7C 7E               [ 8] 3224 	ld	a, (hl)
      000C7D 12               [ 8] 3225 	ld	(de), a
      000C7E D1               [12] 3226 	pop	de
      000C7F D5               [16] 3227 	push	de
      000C80 21 05 00         [12] 3228 	ld	hl, #0x0005
      000C83 19               [ 8] 3229 	add	hl, de
      000C84 5D               [ 4] 3230 	ld	e, l
      000C85 54               [ 4] 3231 	ld	d, h
      000C86 F8 05            [12] 3232 	ldhl	sp,	#5
      000C88 2A               [ 8] 3233 	ld	a, (hl+)
      000C89 86               [ 8] 3234 	add	a, (hl)
      000C8A 2B               [ 8] 3235 	dec	hl
      000C8B 77               [ 8] 3236 	ld	(hl), a
      000C8C 02               [ 8] 3237 	ld	(bc), a
      000C8D 12               [ 8] 3238 	ld	(de), a
                                   3239 ;src/enemy.c:52: m -> node[3].x = m -> node[2].x += distance;    m -> node[3].y = m -> node[2].y;                // Move Right
      000C8E D1               [12] 3240 	pop	de
      000C8F D5               [16] 3241 	push	de
      000C90 21 06 00         [12] 3242 	ld	hl, #0x0006
      000C93 19               [ 8] 3243 	add	hl, de
      000C94 4D               [ 4] 3244 	ld	c, l
      000C95 44               [ 4] 3245 	ld	b, h
      000C96 F8 04            [12] 3246 	ldhl	sp,	#4
      000C98 2A               [ 8] 3247 	ld	a, (hl+)
      000C99 23               [ 8] 3248 	inc	hl
      000C9A 86               [ 8] 3249 	add	a, (hl)
      000C9B F8 02            [12] 3250 	ldhl	sp,	#2
      000C9D F5               [16] 3251 	push	af
      000C9E 2A               [ 8] 3252 	ld	a,	(hl+)
      000C9F 66               [ 8] 3253 	ld	h, (hl)
      000CA0 6F               [ 4] 3254 	ld	l, a
      000CA1 F1               [12] 3255 	pop	af
      000CA2 77               [ 8] 3256 	ld	(hl), a
      000CA3 02               [ 8] 3257 	ld	(bc), a
      000CA4 D1               [12] 3258 	pop	de
      000CA5 D5               [16] 3259 	push	de
      000CA6 21 07 00         [12] 3260 	ld	hl, #0x0007
      000CA9 19               [ 8] 3261 	add	hl, de
      000CAA 4D               [ 4] 3262 	ld	c, l
      000CAB 44               [ 4] 3263 	ld	b, h
      000CAC F8 05            [12] 3264 	ldhl	sp,	#5
      000CAE 7E               [ 8] 3265 	ld	a, (hl)
      000CAF 02               [ 8] 3266 	ld	(bc), a
                                   3267 ;src/enemy.c:53: }
      000CB0 E8 09            [16] 3268 	add	sp, #9
      000CB2 C9               [16] 3269 	ret
                                   3270 ;src/enemy.c:55: void squarePatternR(struct Enemy * m, uint8_t distance) {	
                                   3271 ;	---------------------------------
                                   3272 ; Function squarePatternR
                                   3273 ; ---------------------------------
      000CB3                       3274 _squarePatternR::
      000CB3 E8 F7            [16] 3275 	add	sp, #-9
      000CB5 F8 07            [12] 3276 	ldhl	sp,	#7
      000CB7 73               [ 8] 3277 	ld	(hl), e
      000CB8 23               [ 8] 3278 	inc	hl
      000CB9 72               [ 8] 3279 	ld	(hl), d
      000CBA 2B               [ 8] 3280 	dec	hl
      000CBB 2B               [ 8] 3281 	dec	hl
                                   3282 ;src/enemy.c:56: m -> node[0].x = m -> startx;                   m -> node[0].y = m -> starty;                   // Start
      000CBC 22               [ 8] 3283 	ld	(hl+), a
      000CBD 2A               [ 8] 3284 	ld	a, (hl+)
      000CBE 5F               [ 4] 3285 	ld	e, a
      000CBF 56               [ 8] 3286 	ld	d, (hl)
      000CC0 21 07 00         [12] 3287 	ld	hl, #0x0007
      000CC3 19               [ 8] 3288 	add	hl, de
      000CC4 5D               [ 4] 3289 	ld	e, l
      000CC5 54               [ 4] 3290 	ld	d, h
      000CC6 F8 07            [12] 3291 	ldhl	sp,	#7
      000CC8 2A               [ 8] 3292 	ld	a, (hl+)
      000CC9 4F               [ 4] 3293 	ld	c, a
      000CCA 46               [ 8] 3294 	ld	b, (hl)
      000CCB 03               [ 8] 3295 	inc	bc
      000CCC 0A               [ 8] 3296 	ld	a, (bc)
      000CCD F8 05            [12] 3297 	ldhl	sp,	#5
      000CCF 22               [ 8] 3298 	ld	(hl+), a
      000CD0 23               [ 8] 3299 	inc	hl
      000CD1 12               [ 8] 3300 	ld	(de), a
      000CD2 4B               [ 4] 3301 	ld	c, e
      000CD3 42               [ 4] 3302 	ld	b, d
      000CD4 03               [ 8] 3303 	inc	bc
      000CD5 2A               [ 8] 3304 	ld	a, (hl+)
      000CD6 66               [ 8] 3305 	ld	h, (hl)
                                   3306 ;	spillPairReg hl
                                   3307 ;	spillPairReg hl
      000CD7 6F               [ 4] 3308 	ld	l, a
                                   3309 ;	spillPairReg hl
                                   3310 ;	spillPairReg hl
      000CD8 23               [ 8] 3311 	inc	hl
      000CD9 23               [ 8] 3312 	inc	hl
      000CDA 23               [ 8] 3313 	inc	hl
      000CDB 7E               [ 8] 3314 	ld	a, (hl)
      000CDC 02               [ 8] 3315 	ld	(bc), a
                                   3316 ;src/enemy.c:57: m -> node[1].x = m -> node[0].x -= distance;    m -> node[1].y = m -> node[0].y;                // Move Left
      000CDD 4B               [ 4] 3317 	ld	c, e
      000CDE 42               [ 4] 3318 	ld	b, d
      000CDF 03               [ 8] 3319 	inc	bc
      000CE0 03               [ 8] 3320 	inc	bc
      000CE1 F8 05            [12] 3321 	ldhl	sp,	#5
      000CE3 2A               [ 8] 3322 	ld	a, (hl+)
      000CE4 96               [ 8] 3323 	sub	a, (hl)
      000CE5 23               [ 8] 3324 	inc	hl
      000CE6 12               [ 8] 3325 	ld	(de), a
      000CE7 02               [ 8] 3326 	ld	(bc), a
      000CE8 2A               [ 8] 3327 	ld	a, (hl+)
      000CE9 5F               [ 4] 3328 	ld	e, a
      000CEA 56               [ 8] 3329 	ld	d, (hl)
      000CEB 21 07 00         [12] 3330 	ld	hl, #0x0007
      000CEE 19               [ 8] 3331 	add	hl, de
      000CEF 33               [ 8] 3332 	inc	sp
      000CF0 33               [ 8] 3333 	inc	sp
      000CF1 5D               [ 4] 3334 	ld	e, l
      000CF2 54               [ 4] 3335 	ld	d, h
      000CF3 D5               [16] 3336 	push	de
      000CF4 13               [ 8] 3337 	inc	de
      000CF5 13               [ 8] 3338 	inc	de
      000CF6 C1               [12] 3339 	pop	bc
      000CF7 C5               [16] 3340 	push	bc
      000CF8 03               [ 8] 3341 	inc	bc
      000CF9 03               [ 8] 3342 	inc	bc
      000CFA 03               [ 8] 3343 	inc	bc
      000CFB E1               [12] 3344 	pop	hl
      000CFC E5               [16] 3345 	push	hl
      000CFD 23               [ 8] 3346 	inc	hl
      000CFE 7E               [ 8] 3347 	ld	a, (hl)
      000CFF F8 05            [12] 3348 	ldhl	sp,#5
      000D01 77               [ 8] 3349 	ld	(hl), a
      000D02 02               [ 8] 3350 	ld	(bc), a
                                   3351 ;src/enemy.c:58: m -> node[2].x = m -> node[1].x;                m -> node[2].y = m -> node[1].y -= distance;    // Move Up
      000D03 D5               [16] 3352 	push	de
      000D04 F8 02            [12] 3353 	ldhl	sp,#2
      000D06 2A               [ 8] 3354 	ld	a, (hl+)
      000D07 5F               [ 4] 3355 	ld	e, a
      000D08 56               [ 8] 3356 	ld	d, (hl)
      000D09 21 04 00         [12] 3357 	ld	hl, #0x0004
      000D0C 19               [ 8] 3358 	add	hl, de
      000D0D D1               [12] 3359 	pop	de
      000D0E E5               [16] 3360 	push	hl
      000D0F 7D               [ 4] 3361 	ld	a, l
      000D10 F8 04            [12] 3362 	ldhl	sp,	#4
      000D12 77               [ 8] 3363 	ld	(hl), a
      000D13 E1               [12] 3364 	pop	hl
      000D14 7C               [ 4] 3365 	ld	a, h
      000D15 F8 03            [12] 3366 	ldhl	sp,	#3
      000D17 22               [ 8] 3367 	ld	(hl+), a
      000D18 1A               [ 8] 3368 	ld	a, (de)
      000D19 32               [ 8] 3369 	ld	(hl-), a
      000D1A 2B               [ 8] 3370 	dec	hl
      000D1B 2A               [ 8] 3371 	ld	a, (hl+)
      000D1C 5F               [ 4] 3372 	ld	e, a
      000D1D 2A               [ 8] 3373 	ld	a, (hl+)
      000D1E 57               [ 4] 3374 	ld	d, a
      000D1F 7E               [ 8] 3375 	ld	a, (hl)
      000D20 12               [ 8] 3376 	ld	(de), a
      000D21 D1               [12] 3377 	pop	de
      000D22 D5               [16] 3378 	push	de
      000D23 21 05 00         [12] 3379 	ld	hl, #0x0005
      000D26 19               [ 8] 3380 	add	hl, de
      000D27 5D               [ 4] 3381 	ld	e, l
      000D28 54               [ 4] 3382 	ld	d, h
      000D29 F8 05            [12] 3383 	ldhl	sp,	#5
      000D2B 2A               [ 8] 3384 	ld	a, (hl+)
      000D2C 96               [ 8] 3385 	sub	a, (hl)
      000D2D 2B               [ 8] 3386 	dec	hl
      000D2E 77               [ 8] 3387 	ld	(hl), a
      000D2F 02               [ 8] 3388 	ld	(bc), a
      000D30 12               [ 8] 3389 	ld	(de), a
                                   3390 ;src/enemy.c:59: m -> node[3].x = m -> node[2].x += distance;    m -> node[3].y = m -> node[2].y;                // Move Right
      000D31 D1               [12] 3391 	pop	de
      000D32 D5               [16] 3392 	push	de
      000D33 21 06 00         [12] 3393 	ld	hl, #0x0006
      000D36 19               [ 8] 3394 	add	hl, de
      000D37 4D               [ 4] 3395 	ld	c, l
      000D38 44               [ 4] 3396 	ld	b, h
      000D39 F8 04            [12] 3397 	ldhl	sp,	#4
      000D3B 2A               [ 8] 3398 	ld	a, (hl+)
      000D3C 23               [ 8] 3399 	inc	hl
      000D3D 86               [ 8] 3400 	add	a, (hl)
      000D3E F8 02            [12] 3401 	ldhl	sp,	#2
      000D40 F5               [16] 3402 	push	af
      000D41 2A               [ 8] 3403 	ld	a,	(hl+)
      000D42 66               [ 8] 3404 	ld	h, (hl)
      000D43 6F               [ 4] 3405 	ld	l, a
      000D44 F1               [12] 3406 	pop	af
      000D45 77               [ 8] 3407 	ld	(hl), a
      000D46 02               [ 8] 3408 	ld	(bc), a
      000D47 D1               [12] 3409 	pop	de
      000D48 D5               [16] 3410 	push	de
      000D49 21 07 00         [12] 3411 	ld	hl, #0x0007
      000D4C 19               [ 8] 3412 	add	hl, de
      000D4D 4D               [ 4] 3413 	ld	c, l
      000D4E 44               [ 4] 3414 	ld	b, h
      000D4F F8 05            [12] 3415 	ldhl	sp,	#5
      000D51 7E               [ 8] 3416 	ld	a, (hl)
      000D52 02               [ 8] 3417 	ld	(bc), a
                                   3418 ;src/enemy.c:60: }
      000D53 E8 09            [16] 3419 	add	sp, #9
      000D55 C9               [16] 3420 	ret
                                   3421 ;src/stage_controller.c:7: void frameController() { frame++; if (frame == 60) { seconds++; frame = 0; } }
                                   3422 ;	---------------------------------
                                   3423 ; Function frameController
                                   3424 ; ---------------------------------
      000D56                       3425 _frameController::
      000D56 21r42r01         [12] 3426 	ld	hl, #_frame
      000D59 34               [12] 3427 	inc	(hl)
      000D5A 7E               [ 8] 3428 	ld	a, (hl)
      000D5B D6 3C            [ 8] 3429 	sub	a, #0x3c
      000D5D C0               [20] 3430 	ret	NZ
      000D5E 21r41r01         [12] 3431 	ld	hl, #_seconds
      000D61 34               [12] 3432 	inc	(hl)
      000D62 21r42r01         [12] 3433 	ld	hl, #_frame
      000D65 36 00            [12] 3434 	ld	(hl), #0x00
      000D67 C9               [16] 3435 	ret
                                   3436 ;src/stage_controller.c:9: void level() {
                                   3437 ;	---------------------------------
                                   3438 ; Function level
                                   3439 ; ---------------------------------
      000D68                       3440 _level::
                                   3441 ;src/stage_controller.c:10: playerUpdate();
      000D68 CDr66r0A         [24] 3442 	call	_playerUpdate
                                   3443 ;src/stage_controller.c:11: enemyUpdate(&skulls[0]);
      000D6B 11r15r00         [12] 3444 	ld	de, #_skulls
      000D6E CDr22r0B         [24] 3445 	call	_enemyUpdate
                                   3446 ;src/stage_controller.c:12: enemyUpdate(&skulls[1]);
      000D71 11r24r00         [12] 3447 	ld	de, #(_skulls + 15)
      000D74 CDr22r0B         [24] 3448 	call	_enemyUpdate
                                   3449 ;src/stage_controller.c:13: enemyUpdate(&skulls[2]);
      000D77 11r33r00         [12] 3450 	ld	de, #(_skulls + 30)
      000D7A CDr22r0B         [24] 3451 	call	_enemyUpdate
                                   3452 ;src/stage_controller.c:14: enemyUpdate(&skulls[3]);
      000D7D 11r42r00         [12] 3453 	ld	de, #(_skulls + 45)
      000D80 CDr22r0B         [24] 3454 	call	_enemyUpdate
                                   3455 ;src/stage_controller.c:15: enemyUpdate(&skulls[4]);
      000D83 11r51r00         [12] 3456 	ld	de, #(_skulls + 60)
      000D86 CDr22r0B         [24] 3457 	call	_enemyUpdate
                                   3458 ;src/stage_controller.c:18: frameController();
      000D89 CDr56r0D         [24] 3459 	call	_frameController
                                   3460 ;src/stage_controller.c:21: if (seconds ==  2 && frame ==  0) { enemyInit(&skulls[0], 10, 170,  50, SKULL_SPRITE_TILE);  squarePattern(&skulls[0], 60); }
      000D8C FAr41r01         [16] 3461 	ld	a, (#_seconds)
      000D8F D6 02            [ 8] 3462 	sub	a, #0x02
      000D91 20 1E            [12] 3463 	jr	NZ, 00102$
      000D93 FAr42r01         [16] 3464 	ld	a, (#_frame)
      000D96 B7               [ 4] 3465 	or	a, a
      000D97 20 18            [12] 3466 	jr	NZ, 00102$
      000D99 21 32 03         [12] 3467 	ld	hl, #0x332
      000D9C E5               [16] 3468 	push	hl
      000D9D 3E AA            [ 8] 3469 	ld	a, #0xaa
      000D9F F5               [16] 3470 	push	af
      000DA0 33               [ 8] 3471 	inc	sp
      000DA1 3E 0A            [ 8] 3472 	ld	a, #0x0a
      000DA3 11r15r00         [12] 3473 	ld	de, #_skulls
      000DA6 CDrDAr0A         [24] 3474 	call	_enemyInit
      000DA9 3E 3C            [ 8] 3475 	ld	a, #0x3c
      000DAB 11r15r00         [12] 3476 	ld	de, #_skulls
      000DAE CDr10r0C         [24] 3477 	call	_squarePattern
      000DB1                       3478 00102$:
                                   3479 ;src/stage_controller.c:22: if (seconds ==  2 && frame == 20) { enemyInit(&skulls[1], 11, 170,  50, SKULL_SPRITE_TILE);  squarePattern(&skulls[1], 60); }
      000DB1 FAr41r01         [16] 3480 	ld	a, (#_seconds)
      000DB4 D6 02            [ 8] 3481 	sub	a, #0x02
      000DB6 20 1F            [12] 3482 	jr	NZ, 00105$
      000DB8 FAr42r01         [16] 3483 	ld	a, (#_frame)
      000DBB D6 14            [ 8] 3484 	sub	a, #0x14
      000DBD 20 18            [12] 3485 	jr	NZ, 00105$
      000DBF 21 32 03         [12] 3486 	ld	hl, #0x332
      000DC2 E5               [16] 3487 	push	hl
      000DC3 3E AA            [ 8] 3488 	ld	a, #0xaa
      000DC5 F5               [16] 3489 	push	af
      000DC6 33               [ 8] 3490 	inc	sp
      000DC7 3E 0B            [ 8] 3491 	ld	a, #0x0b
      000DC9 11r24r00         [12] 3492 	ld	de, #(_skulls + 15)
      000DCC CDrDAr0A         [24] 3493 	call	_enemyInit
      000DCF 3E 3C            [ 8] 3494 	ld	a, #0x3c
      000DD1 11r24r00         [12] 3495 	ld	de, #(_skulls + 15)
      000DD4 CDr10r0C         [24] 3496 	call	_squarePattern
      000DD7                       3497 00105$:
                                   3498 ;src/stage_controller.c:23: if (seconds ==  2 && frame == 40) {	enemyInit(&skulls[2], 12, 170,  50, SKULL_SPRITE_TILE);  squarePattern(&skulls[2], 60); }
      000DD7 FAr41r01         [16] 3499 	ld	a, (#_seconds)
      000DDA D6 02            [ 8] 3500 	sub	a, #0x02
      000DDC 20 1F            [12] 3501 	jr	NZ, 00108$
      000DDE FAr42r01         [16] 3502 	ld	a, (#_frame)
      000DE1 D6 28            [ 8] 3503 	sub	a, #0x28
      000DE3 20 18            [12] 3504 	jr	NZ, 00108$
      000DE5 21 32 03         [12] 3505 	ld	hl, #0x332
      000DE8 E5               [16] 3506 	push	hl
      000DE9 3E AA            [ 8] 3507 	ld	a, #0xaa
      000DEB F5               [16] 3508 	push	af
      000DEC 33               [ 8] 3509 	inc	sp
      000DED 3E 0C            [ 8] 3510 	ld	a, #0x0c
      000DEF 11r33r00         [12] 3511 	ld	de, #(_skulls + 30)
      000DF2 CDrDAr0A         [24] 3512 	call	_enemyInit
      000DF5 3E 3C            [ 8] 3513 	ld	a, #0x3c
      000DF7 11r33r00         [12] 3514 	ld	de, #(_skulls + 30)
      000DFA CDr10r0C         [24] 3515 	call	_squarePattern
      000DFD                       3516 00108$:
                                   3517 ;src/stage_controller.c:24: if (seconds ==  3 && frame ==  0) { enemyInit(&skulls[3], 13, 170,  50, SKULL_SPRITE_TILE);  squarePattern(&skulls[3], 60); }
      000DFD FAr41r01         [16] 3518 	ld	a, (#_seconds)
      000E00 D6 03            [ 8] 3519 	sub	a, #0x03
      000E02 20 1E            [12] 3520 	jr	NZ, 00111$
      000E04 FAr42r01         [16] 3521 	ld	a, (#_frame)
      000E07 B7               [ 4] 3522 	or	a, a
      000E08 20 18            [12] 3523 	jr	NZ, 00111$
      000E0A 21 32 03         [12] 3524 	ld	hl, #0x332
      000E0D E5               [16] 3525 	push	hl
      000E0E 3E AA            [ 8] 3526 	ld	a, #0xaa
      000E10 F5               [16] 3527 	push	af
      000E11 33               [ 8] 3528 	inc	sp
      000E12 3E 0D            [ 8] 3529 	ld	a, #0x0d
      000E14 11r42r00         [12] 3530 	ld	de, #(_skulls + 45)
      000E17 CDrDAr0A         [24] 3531 	call	_enemyInit
      000E1A 3E 3C            [ 8] 3532 	ld	a, #0x3c
      000E1C 11r42r00         [12] 3533 	ld	de, #(_skulls + 45)
      000E1F CDr10r0C         [24] 3534 	call	_squarePattern
      000E22                       3535 00111$:
                                   3536 ;src/stage_controller.c:25: if (seconds ==  3 && frame == 20) { enemyInit(&skulls[4], 14, 170,  50, SKULL_SPRITE_TILE);  squarePattern(&skulls[4], 60); }
      000E22 FAr41r01         [16] 3537 	ld	a, (#_seconds)
      000E25 D6 03            [ 8] 3538 	sub	a, #0x03
      000E27 20 1F            [12] 3539 	jr	NZ, 00114$
      000E29 FAr42r01         [16] 3540 	ld	a, (#_frame)
      000E2C D6 14            [ 8] 3541 	sub	a, #0x14
      000E2E 20 18            [12] 3542 	jr	NZ, 00114$
      000E30 21 32 03         [12] 3543 	ld	hl, #0x332
      000E33 E5               [16] 3544 	push	hl
      000E34 3E AA            [ 8] 3545 	ld	a, #0xaa
      000E36 F5               [16] 3546 	push	af
      000E37 33               [ 8] 3547 	inc	sp
      000E38 3E 0E            [ 8] 3548 	ld	a, #0x0e
      000E3A 11r51r00         [12] 3549 	ld	de, #(_skulls + 60)
      000E3D CDrDAr0A         [24] 3550 	call	_enemyInit
      000E40 3E 3C            [ 8] 3551 	ld	a, #0x3c
      000E42 11r51r00         [12] 3552 	ld	de, #(_skulls + 60)
      000E45 CDr10r0C         [24] 3553 	call	_squarePattern
      000E48                       3554 00114$:
                                   3555 ;src/stage_controller.c:42: if (seconds == 20) { seconds = 0; }
      000E48 FAr41r01         [16] 3556 	ld	a, (#_seconds)
      000E4B D6 14            [ 8] 3557 	sub	a, #0x14
      000E4D C0               [20] 3558 	ret	NZ
      000E4E 21r41r01         [12] 3559 	ld	hl, #_seconds
      000E51 36 00            [12] 3560 	ld	(hl), #0x00
                                   3561 ;src/stage_controller.c:43: }
      000E53 C9               [16] 3562 	ret
                                   3563 ;src/score.c:9: void scoreDisplay(uint8_t s, uint8_t id, uint8_t x) { 
                                   3564 ;	---------------------------------
                                   3565 ; Function scoreDisplay
                                   3566 ; ---------------------------------
      000E54                       3567 _scoreDisplay::
                                   3568 ;src/score.c:10: if (s == 0) { set_sprite_tile(id,100); }
      000E54 57               [ 4] 3569 	ld	d, a
      000E55 B7               [ 4] 3570 	or	a, a
      000E56 20 0D            [12] 3571 	jr	NZ, 00102$
                                   3572 ;c:/gbdk/include/gb/gb.h:1602: shadow_OAM[nb].tile=tile;
      000E58 01r00r00         [12] 3573 	ld	bc, #_shadow_OAM+0
      000E5B 6B               [ 4] 3574 	ld	l, e
                                   3575 ;	spillPairReg hl
                                   3576 ;	spillPairReg hl
      000E5C 26 00            [ 8] 3577 	ld	h, #0x00
                                   3578 ;	spillPairReg hl
                                   3579 ;	spillPairReg hl
      000E5E 29               [ 8] 3580 	add	hl, hl
      000E5F 29               [ 8] 3581 	add	hl, hl
      000E60 09               [ 8] 3582 	add	hl, bc
      000E61 23               [ 8] 3583 	inc	hl
      000E62 23               [ 8] 3584 	inc	hl
      000E63 36 64            [12] 3585 	ld	(hl), #0x64
                                   3586 ;src/score.c:10: if (s == 0) { set_sprite_tile(id,100); }
      000E65                       3587 00102$:
                                   3588 ;src/score.c:11: if (s == 1) { set_sprite_tile(id,101); }
      000E65 7A               [ 4] 3589 	ld	a, d
      000E66 3D               [ 4] 3590 	dec	a
      000E67 20 0D            [12] 3591 	jr	NZ, 00104$
                                   3592 ;c:/gbdk/include/gb/gb.h:1602: shadow_OAM[nb].tile=tile;
      000E69 01r00r00         [12] 3593 	ld	bc, #_shadow_OAM+0
      000E6C 6B               [ 4] 3594 	ld	l, e
                                   3595 ;	spillPairReg hl
                                   3596 ;	spillPairReg hl
      000E6D 26 00            [ 8] 3597 	ld	h, #0x00
                                   3598 ;	spillPairReg hl
                                   3599 ;	spillPairReg hl
      000E6F 29               [ 8] 3600 	add	hl, hl
      000E70 29               [ 8] 3601 	add	hl, hl
      000E71 09               [ 8] 3602 	add	hl, bc
      000E72 23               [ 8] 3603 	inc	hl
      000E73 23               [ 8] 3604 	inc	hl
      000E74 36 65            [12] 3605 	ld	(hl), #0x65
                                   3606 ;src/score.c:11: if (s == 1) { set_sprite_tile(id,101); }
      000E76                       3607 00104$:
                                   3608 ;src/score.c:12: if (s == 2) { set_sprite_tile(id,102); }
      000E76 7A               [ 4] 3609 	ld	a, d
      000E77 D6 02            [ 8] 3610 	sub	a, #0x02
      000E79 20 0D            [12] 3611 	jr	NZ, 00106$
                                   3612 ;c:/gbdk/include/gb/gb.h:1602: shadow_OAM[nb].tile=tile;
      000E7B 01r00r00         [12] 3613 	ld	bc, #_shadow_OAM+0
      000E7E 6B               [ 4] 3614 	ld	l, e
                                   3615 ;	spillPairReg hl
                                   3616 ;	spillPairReg hl
      000E7F 26 00            [ 8] 3617 	ld	h, #0x00
                                   3618 ;	spillPairReg hl
                                   3619 ;	spillPairReg hl
      000E81 29               [ 8] 3620 	add	hl, hl
      000E82 29               [ 8] 3621 	add	hl, hl
      000E83 09               [ 8] 3622 	add	hl, bc
      000E84 23               [ 8] 3623 	inc	hl
      000E85 23               [ 8] 3624 	inc	hl
      000E86 36 66            [12] 3625 	ld	(hl), #0x66
                                   3626 ;src/score.c:12: if (s == 2) { set_sprite_tile(id,102); }
      000E88                       3627 00106$:
                                   3628 ;src/score.c:13: if (s == 3) { set_sprite_tile(id,103); }
      000E88 7A               [ 4] 3629 	ld	a, d
      000E89 D6 03            [ 8] 3630 	sub	a, #0x03
      000E8B 20 0D            [12] 3631 	jr	NZ, 00108$
                                   3632 ;c:/gbdk/include/gb/gb.h:1602: shadow_OAM[nb].tile=tile;
      000E8D 01r00r00         [12] 3633 	ld	bc, #_shadow_OAM+0
      000E90 6B               [ 4] 3634 	ld	l, e
                                   3635 ;	spillPairReg hl
                                   3636 ;	spillPairReg hl
      000E91 26 00            [ 8] 3637 	ld	h, #0x00
                                   3638 ;	spillPairReg hl
                                   3639 ;	spillPairReg hl
      000E93 29               [ 8] 3640 	add	hl, hl
      000E94 29               [ 8] 3641 	add	hl, hl
      000E95 09               [ 8] 3642 	add	hl, bc
      000E96 23               [ 8] 3643 	inc	hl
      000E97 23               [ 8] 3644 	inc	hl
      000E98 36 67            [12] 3645 	ld	(hl), #0x67
                                   3646 ;src/score.c:13: if (s == 3) { set_sprite_tile(id,103); }
      000E9A                       3647 00108$:
                                   3648 ;src/score.c:14: if (s == 4) { set_sprite_tile(id,104); }
      000E9A 7A               [ 4] 3649 	ld	a, d
      000E9B D6 04            [ 8] 3650 	sub	a, #0x04
      000E9D 20 0D            [12] 3651 	jr	NZ, 00110$
                                   3652 ;c:/gbdk/include/gb/gb.h:1602: shadow_OAM[nb].tile=tile;
      000E9F 01r00r00         [12] 3653 	ld	bc, #_shadow_OAM+0
      000EA2 6B               [ 4] 3654 	ld	l, e
                                   3655 ;	spillPairReg hl
                                   3656 ;	spillPairReg hl
      000EA3 26 00            [ 8] 3657 	ld	h, #0x00
                                   3658 ;	spillPairReg hl
                                   3659 ;	spillPairReg hl
      000EA5 29               [ 8] 3660 	add	hl, hl
      000EA6 29               [ 8] 3661 	add	hl, hl
      000EA7 09               [ 8] 3662 	add	hl, bc
      000EA8 23               [ 8] 3663 	inc	hl
      000EA9 23               [ 8] 3664 	inc	hl
      000EAA 36 68            [12] 3665 	ld	(hl), #0x68
                                   3666 ;src/score.c:14: if (s == 4) { set_sprite_tile(id,104); }
      000EAC                       3667 00110$:
                                   3668 ;src/score.c:15: if (s == 5) { set_sprite_tile(id,105); }
      000EAC 7A               [ 4] 3669 	ld	a, d
      000EAD D6 05            [ 8] 3670 	sub	a, #0x05
      000EAF 20 0D            [12] 3671 	jr	NZ, 00112$
                                   3672 ;c:/gbdk/include/gb/gb.h:1602: shadow_OAM[nb].tile=tile;
      000EB1 01r00r00         [12] 3673 	ld	bc, #_shadow_OAM+0
      000EB4 6B               [ 4] 3674 	ld	l, e
                                   3675 ;	spillPairReg hl
                                   3676 ;	spillPairReg hl
      000EB5 26 00            [ 8] 3677 	ld	h, #0x00
                                   3678 ;	spillPairReg hl
                                   3679 ;	spillPairReg hl
      000EB7 29               [ 8] 3680 	add	hl, hl
      000EB8 29               [ 8] 3681 	add	hl, hl
      000EB9 09               [ 8] 3682 	add	hl, bc
      000EBA 23               [ 8] 3683 	inc	hl
      000EBB 23               [ 8] 3684 	inc	hl
      000EBC 36 69            [12] 3685 	ld	(hl), #0x69
                                   3686 ;src/score.c:15: if (s == 5) { set_sprite_tile(id,105); }
      000EBE                       3687 00112$:
                                   3688 ;src/score.c:16: if (s == 6) { set_sprite_tile(id,106); }
      000EBE 7A               [ 4] 3689 	ld	a, d
      000EBF D6 06            [ 8] 3690 	sub	a, #0x06
      000EC1 20 0D            [12] 3691 	jr	NZ, 00114$
                                   3692 ;c:/gbdk/include/gb/gb.h:1602: shadow_OAM[nb].tile=tile;
      000EC3 01r00r00         [12] 3693 	ld	bc, #_shadow_OAM+0
      000EC6 6B               [ 4] 3694 	ld	l, e
                                   3695 ;	spillPairReg hl
                                   3696 ;	spillPairReg hl
      000EC7 26 00            [ 8] 3697 	ld	h, #0x00
                                   3698 ;	spillPairReg hl
                                   3699 ;	spillPairReg hl
      000EC9 29               [ 8] 3700 	add	hl, hl
      000ECA 29               [ 8] 3701 	add	hl, hl
      000ECB 09               [ 8] 3702 	add	hl, bc
      000ECC 23               [ 8] 3703 	inc	hl
      000ECD 23               [ 8] 3704 	inc	hl
      000ECE 36 6A            [12] 3705 	ld	(hl), #0x6a
                                   3706 ;src/score.c:16: if (s == 6) { set_sprite_tile(id,106); }
      000ED0                       3707 00114$:
                                   3708 ;src/score.c:17: if (s == 7) { set_sprite_tile(id,107); }
      000ED0 7A               [ 4] 3709 	ld	a, d
      000ED1 D6 07            [ 8] 3710 	sub	a, #0x07
      000ED3 20 0D            [12] 3711 	jr	NZ, 00116$
                                   3712 ;c:/gbdk/include/gb/gb.h:1602: shadow_OAM[nb].tile=tile;
      000ED5 01r00r00         [12] 3713 	ld	bc, #_shadow_OAM+0
      000ED8 6B               [ 4] 3714 	ld	l, e
                                   3715 ;	spillPairReg hl
                                   3716 ;	spillPairReg hl
      000ED9 26 00            [ 8] 3717 	ld	h, #0x00
                                   3718 ;	spillPairReg hl
                                   3719 ;	spillPairReg hl
      000EDB 29               [ 8] 3720 	add	hl, hl
      000EDC 29               [ 8] 3721 	add	hl, hl
      000EDD 09               [ 8] 3722 	add	hl, bc
      000EDE 23               [ 8] 3723 	inc	hl
      000EDF 23               [ 8] 3724 	inc	hl
      000EE0 36 6B            [12] 3725 	ld	(hl), #0x6b
                                   3726 ;src/score.c:17: if (s == 7) { set_sprite_tile(id,107); }
      000EE2                       3727 00116$:
                                   3728 ;src/score.c:18: if (s == 8) { set_sprite_tile(id,108); }
      000EE2 7A               [ 4] 3729 	ld	a, d
      000EE3 D6 08            [ 8] 3730 	sub	a, #0x08
      000EE5 20 0D            [12] 3731 	jr	NZ, 00118$
                                   3732 ;c:/gbdk/include/gb/gb.h:1602: shadow_OAM[nb].tile=tile;
      000EE7 01r00r00         [12] 3733 	ld	bc, #_shadow_OAM+0
      000EEA 6B               [ 4] 3734 	ld	l, e
                                   3735 ;	spillPairReg hl
                                   3736 ;	spillPairReg hl
      000EEB 26 00            [ 8] 3737 	ld	h, #0x00
                                   3738 ;	spillPairReg hl
                                   3739 ;	spillPairReg hl
      000EED 29               [ 8] 3740 	add	hl, hl
      000EEE 29               [ 8] 3741 	add	hl, hl
      000EEF 09               [ 8] 3742 	add	hl, bc
      000EF0 23               [ 8] 3743 	inc	hl
      000EF1 23               [ 8] 3744 	inc	hl
      000EF2 36 6C            [12] 3745 	ld	(hl), #0x6c
                                   3746 ;src/score.c:18: if (s == 8) { set_sprite_tile(id,108); }
      000EF4                       3747 00118$:
                                   3748 ;src/score.c:19: if (s == 9) { set_sprite_tile(id,109); }
      000EF4 7A               [ 4] 3749 	ld	a, d
      000EF5 D6 09            [ 8] 3750 	sub	a, #0x09
      000EF7 20 0D            [12] 3751 	jr	NZ, 00120$
                                   3752 ;c:/gbdk/include/gb/gb.h:1602: shadow_OAM[nb].tile=tile;
      000EF9 01r00r00         [12] 3753 	ld	bc, #_shadow_OAM+0
      000EFC 6B               [ 4] 3754 	ld	l, e
                                   3755 ;	spillPairReg hl
                                   3756 ;	spillPairReg hl
      000EFD 26 00            [ 8] 3757 	ld	h, #0x00
                                   3758 ;	spillPairReg hl
                                   3759 ;	spillPairReg hl
      000EFF 29               [ 8] 3760 	add	hl, hl
      000F00 29               [ 8] 3761 	add	hl, hl
      000F01 09               [ 8] 3762 	add	hl, bc
      000F02 23               [ 8] 3763 	inc	hl
      000F03 23               [ 8] 3764 	inc	hl
      000F04 36 6D            [12] 3765 	ld	(hl), #0x6d
                                   3766 ;src/score.c:19: if (s == 9) { set_sprite_tile(id,109); }
      000F06                       3767 00120$:
                                   3768 ;src/score.c:20: move_sprite(id,x,152);
      000F06 F8 02            [12] 3769 	ldhl	sp,	#2
      000F08 4E               [ 8] 3770 	ld	c, (hl)
                                   3771 ;c:/gbdk/include/gb/gb.h:1675: OAM_item_t * itm = &shadow_OAM[nb];
      000F09 6B               [ 4] 3772 	ld	l, e
                                   3773 ;	spillPairReg hl
                                   3774 ;	spillPairReg hl
      000F0A 26 00            [ 8] 3775 	ld	h, #0x00
                                   3776 ;	spillPairReg hl
                                   3777 ;	spillPairReg hl
      000F0C 29               [ 8] 3778 	add	hl, hl
      000F0D 29               [ 8] 3779 	add	hl, hl
      000F0E 11r00r00         [12] 3780 	ld	de, #_shadow_OAM
      000F11 19               [ 8] 3781 	add	hl, de
                                   3782 ;c:/gbdk/include/gb/gb.h:1676: itm->y=y, itm->x=x;
      000F12 36 98            [12] 3783 	ld	(hl), #0x98
      000F14 23               [ 8] 3784 	inc	hl
      000F15 71               [ 8] 3785 	ld	(hl), c
                                   3786 ;src/score.c:20: move_sprite(id,x,152);
                                   3787 ;src/score.c:21: }
      000F16 E1               [12] 3788 	pop	hl
      000F17 33               [ 8] 3789 	inc	sp
      000F18 E9               [ 4] 3790 	jp	(hl)
                                   3791 ;src/score.c:23: void scoreUpdate() {
                                   3792 ;	---------------------------------
                                   3793 ; Function scoreUpdate
                                   3794 ; ---------------------------------
      000F19                       3795 _scoreUpdate::
                                   3796 ;src/score.c:24: scoreDisplay(score10000, 30,  8);
      000F19 3E 08            [ 8] 3797 	ld	a, #0x08
      000F1B F5               [16] 3798 	push	af
      000F1C 33               [ 8] 3799 	inc	sp
      000F1D 1E 1E            [ 8] 3800 	ld	e, #0x1e
      000F1F FAr47r01         [16] 3801 	ld	a, (#_score10000)
      000F22 CDr54r0E         [24] 3802 	call	_scoreDisplay
                                   3803 ;src/score.c:25: scoreDisplay(score1000,  31, 16);
      000F25 3E 10            [ 8] 3804 	ld	a, #0x10
      000F27 F5               [16] 3805 	push	af
      000F28 33               [ 8] 3806 	inc	sp
      000F29 1E 1F            [ 8] 3807 	ld	e, #0x1f
      000F2B FAr46r01         [16] 3808 	ld	a, (#_score1000)
      000F2E CDr54r0E         [24] 3809 	call	_scoreDisplay
                                   3810 ;src/score.c:26: scoreDisplay(score100,   32, 24);
      000F31 3E 18            [ 8] 3811 	ld	a, #0x18
      000F33 F5               [16] 3812 	push	af
      000F34 33               [ 8] 3813 	inc	sp
      000F35 1E 20            [ 8] 3814 	ld	e, #0x20
      000F37 FAr45r01         [16] 3815 	ld	a, (#_score100)
      000F3A CDr54r0E         [24] 3816 	call	_scoreDisplay
                                   3817 ;src/score.c:27: scoreDisplay(score10,    33, 32);
      000F3D 3E 20            [ 8] 3818 	ld	a, #0x20
      000F3F F5               [16] 3819 	push	af
      000F40 33               [ 8] 3820 	inc	sp
      000F41 1E 21            [ 8] 3821 	ld	e, #0x21
      000F43 FAr44r01         [16] 3822 	ld	a, (#_score10)
      000F46 CDr54r0E         [24] 3823 	call	_scoreDisplay
                                   3824 ;src/score.c:28: scoreDisplay(score1,     34, 40);
      000F49 3E 28            [ 8] 3825 	ld	a, #0x28
      000F4B F5               [16] 3826 	push	af
      000F4C 33               [ 8] 3827 	inc	sp
      000F4D 1E 22            [ 8] 3828 	ld	e, #0x22
      000F4F FAr43r01         [16] 3829 	ld	a, (#_score1)
      000F52 CDr54r0E         [24] 3830 	call	_scoreDisplay
                                   3831 ;c:/gbdk/include/gb/gb.h:1602: shadow_OAM[nb].tile=tile;
      000F55 21r8Er00         [12] 3832 	ld	hl, #(_shadow_OAM + 142)
      000F58 36 64            [12] 3833 	ld	(hl), #0x64
                                   3834 ;c:/gbdk/include/gb/gb.h:1675: OAM_item_t * itm = &shadow_OAM[nb];
      000F5A 21r8Cr00         [12] 3835 	ld	hl, #(_shadow_OAM + 140)
                                   3836 ;c:/gbdk/include/gb/gb.h:1676: itm->y=y, itm->x=x;
      000F5D 3E 98            [ 8] 3837 	ld	a, #0x98
      000F5F 22               [ 8] 3838 	ld	(hl+), a
      000F60 36 30            [12] 3839 	ld	(hl), #0x30
                                   3840 ;src/score.c:31: if (score1 >= 10) { score10 ++; score1 -= 10;}
      000F62 FAr43r01         [16] 3841 	ld	a, (#_score1)
      000F65 D6 0A            [ 8] 3842 	sub	a, #0x0a
      000F67 D8               [20] 3843 	ret	C
      000F68 21r44r01         [12] 3844 	ld	hl, #_score10
      000F6B 34               [12] 3845 	inc	(hl)
      000F6C 21r43r01         [12] 3846 	ld	hl, #_score1
      000F6F 7E               [ 8] 3847 	ld	a, (hl)
      000F70 C6 F6            [ 8] 3848 	add	a, #0xf6
      000F72 77               [ 8] 3849 	ld	(hl), a
                                   3850 ;src/score.c:32: }
      000F73 C9               [16] 3851 	ret
                                   3852 ;src/score.c:34: void scoreInit() {
                                   3853 ;	---------------------------------
                                   3854 ; Function scoreInit
                                   3855 ; ---------------------------------
      000F74                       3856 _scoreInit::
                                   3857 ;src/score.c:35: score10000 = 0;
      000F74 21r47r01         [12] 3858 	ld	hl, #_score10000
      000F77 36 00            [12] 3859 	ld	(hl), #0x00
                                   3860 ;src/score.c:36: score1000 = 0;
      000F79 21r46r01         [12] 3861 	ld	hl, #_score1000
      000F7C 36 00            [12] 3862 	ld	(hl), #0x00
                                   3863 ;src/score.c:37: score100 = 0;
      000F7E 21r45r01         [12] 3864 	ld	hl, #_score100
      000F81 36 00            [12] 3865 	ld	(hl), #0x00
                                   3866 ;src/score.c:38: score10 = 0;
      000F83 21r44r01         [12] 3867 	ld	hl, #_score10
      000F86 36 00            [12] 3868 	ld	(hl), #0x00
                                   3869 ;src/score.c:39: score1 = 0;
      000F88 21r43r01         [12] 3870 	ld	hl, #_score1
      000F8B 36 00            [12] 3871 	ld	(hl), #0x00
                                   3872 ;src/score.c:40: }
      000F8D C9               [16] 3873 	ret
                                   3874 ;src/game.c:3: uint8_t game() {
                                   3875 ;	---------------------------------
                                   3876 ; Function game
                                   3877 ; ---------------------------------
      000F8E                       3878 _game::
                                   3879 ;src/game.c:10: scoreInit();
      000F8E CDr74r0F         [24] 3880 	call	_scoreInit
                                   3881 ;src/game.c:11: playerInit();
      000F91 CDr8Dr08         [24] 3882 	call	_playerInit
                                   3883 ;src/game.c:13: while(currentlevel = 1) {
      000F94                       3884 00101$:
                                   3885 ;src/game.c:14: scoreUpdate();
      000F94 CDr19r0F         [24] 3886 	call	_scoreUpdate
                                   3887 ;src/game.c:15: level();
      000F97 CDr68r0D         [24] 3888 	call	_level
                                   3889 ;src/game.c:17: scoreUpdate();
      000F9A CDr19r0F         [24] 3890 	call	_scoreUpdate
                                   3891 ;src/game.c:18: wait_vbl_done();
      000F9D CDr00r00         [24] 3892 	call	_wait_vbl_done
                                   3893 ;src/game.c:20: }
      000FA0 18 F2            [12] 3894 	jr	00101$
                                   3895 ;src/main.c:10: void startup() {
                                   3896 ;	---------------------------------
                                   3897 ; Function startup
                                   3898 ; ---------------------------------
      000FA2                       3899 _startup::
                                   3900 ;src/main.c:11: state = 0;
      000FA2 21r48r01         [12] 3901 	ld	hl, #_state
      000FA5 36 00            [12] 3902 	ld	(hl), #0x00
                                   3903 ;src/main.c:12: set_sprite_data ( 0, 128, sprites);
      000FA7 11r8Dr00         [12] 3904 	ld	de, #_sprites
      000FAA D5               [16] 3905 	push	de
      000FAB 21 00 80         [12] 3906 	ld	hl, #0x8000
      000FAE E5               [16] 3907 	push	hl
      000FAF CDr00r00         [24] 3908 	call	_set_sprite_data
      000FB2 E8 04            [16] 3909 	add	sp, #4
                                   3910 ;src/main.c:13: }
      000FB4 C9               [16] 3911 	ret
                                   3912 ;src/main.c:16: void main() {
                                   3913 ;	---------------------------------
                                   3914 ; Function main
                                   3915 ; ---------------------------------
      000FB5                       3916 _main::
                                   3917 ;src/main.c:17: SHOW_BKG;
      000FB5 F0r00            [12] 3918 	ldh	a, (_LCDC_REG + 0)
      000FB7 F6 01            [ 8] 3919 	or	a, #0x01
      000FB9 E0r00            [12] 3920 	ldh	(_LCDC_REG + 0), a
                                   3921 ;src/main.c:18: SHOW_SPRITES;
      000FBB F0r00            [12] 3922 	ldh	a, (_LCDC_REG + 0)
      000FBD F6 02            [ 8] 3923 	or	a, #0x02
      000FBF E0r00            [12] 3924 	ldh	(_LCDC_REG + 0), a
                                   3925 ;src/main.c:19: DISPLAY_ON;	
      000FC1 F0r00            [12] 3926 	ldh	a, (_LCDC_REG + 0)
      000FC3 F6 80            [ 8] 3927 	or	a, #0x80
      000FC5 E0r00            [12] 3928 	ldh	(_LCDC_REG + 0), a
                                   3929 ;src/main.c:20: startup();
      000FC7 CDrA2r0F         [24] 3930 	call	_startup
                                   3931 ;src/main.c:22: if (state == 0) { state = mainMenu(); }
      000FCA FAr48r01         [16] 3932 	ld	a, (#_state)
      000FCD B7               [ 4] 3933 	or	a, a
      000FCE 20 06            [12] 3934 	jr	NZ, 00102$
      000FD0 CDr00r00         [24] 3935 	call	_mainMenu
      000FD3 EAr48r01         [16] 3936 	ld	(#_state),a
      000FD6                       3937 00102$:
                                   3938 ;src/main.c:25: if (state == 3) { state = game(); }
      000FD6 FAr48r01         [16] 3939 	ld	a, (#_state)
      000FD9 D6 03            [ 8] 3940 	sub	a, #0x03
      000FDB C0               [20] 3941 	ret	NZ
      000FDC CDr8Er0F         [24] 3942 	call	_game
      000FDF EAr48r01         [16] 3943 	ld	(#_state),a
                                   3944 ;src/main.c:27: }
      000FE2 C9               [16] 3945 	ret
                                   3946 	.area _CODE
                                   3947 	.area _INITIALIZER
      000000                       3948 __xinit__titleScreen:
      000000 7F                    3949 	.db #0x7f	; 127
      000001 7F                    3950 	.db #0x7f	; 127
      000002 7F                    3951 	.db #0x7f	; 127
      000003 7F                    3952 	.db #0x7f	; 127
      000004 7F                    3953 	.db #0x7f	; 127
      000005 7F                    3954 	.db #0x7f	; 127
      000006 7F                    3955 	.db #0x7f	; 127
      000007 7F                    3956 	.db #0x7f	; 127
      000008 7F                    3957 	.db #0x7f	; 127
      000009 7F                    3958 	.db #0x7f	; 127
      00000A 7F                    3959 	.db #0x7f	; 127
      00000B 7F                    3960 	.db #0x7f	; 127
      00000C 7F                    3961 	.db #0x7f	; 127
      00000D 7F                    3962 	.db #0x7f	; 127
      00000E 7F                    3963 	.db #0x7f	; 127
      00000F 7F                    3964 	.db #0x7f	; 127
      000010 7F                    3965 	.db #0x7f	; 127
      000011 7F                    3966 	.db #0x7f	; 127
      000012 7F                    3967 	.db #0x7f	; 127
      000013 7F                    3968 	.db #0x7f	; 127
      000014 7F                    3969 	.db #0x7f	; 127
      000015 7F                    3970 	.db #0x7f	; 127
      000016 7F                    3971 	.db #0x7f	; 127
      000017 7F                    3972 	.db #0x7f	; 127
      000018 5B                    3973 	.db #0x5b	; 91
      000019 5A                    3974 	.db #0x5a	; 90	'Z'
      00001A 5A                    3975 	.db #0x5a	; 90	'Z'
      00001B 5A                    3976 	.db #0x5a	; 90	'Z'
      00001C 5A                    3977 	.db #0x5a	; 90	'Z'
      00001D 5A                    3978 	.db #0x5a	; 90	'Z'
      00001E 5A                    3979 	.db #0x5a	; 90	'Z'
      00001F 5A                    3980 	.db #0x5a	; 90	'Z'
      000020 5A                    3981 	.db #0x5a	; 90	'Z'
      000021 5A                    3982 	.db #0x5a	; 90	'Z'
      000022 5A                    3983 	.db #0x5a	; 90	'Z'
      000023 59                    3984 	.db #0x59	; 89	'Y'
      000024 7F                    3985 	.db #0x7f	; 127
      000025 7F                    3986 	.db #0x7f	; 127
      000026 7F                    3987 	.db #0x7f	; 127
      000027 7F                    3988 	.db #0x7f	; 127
      000028 4D                    3989 	.db #0x4d	; 77	'M'
      000029 4E                    3990 	.db #0x4e	; 78	'N'
      00002A 4F                    3991 	.db #0x4f	; 79	'O'
      00002B 7F                    3992 	.db #0x7f	; 127
      00002C 7F                    3993 	.db #0x7f	; 127
      00002D 53                    3994 	.db #0x53	; 83	'S'
      00002E 54                    3995 	.db #0x54	; 84	'T'
      00002F 54                    3996 	.db #0x54	; 84	'T'
      000030 55                    3997 	.db #0x55	; 85	'U'
      000031 7F                    3998 	.db #0x7f	; 127
      000032 7F                    3999 	.db #0x7f	; 127
      000033 56                    4000 	.db #0x56	; 86	'V'
      000034 57                    4001 	.db #0x57	; 87	'W'
      000035 56                    4002 	.db #0x56	; 86	'V'
      000036 58                    4003 	.db #0x58	; 88	'X'
      000037 7F                    4004 	.db #0x7f	; 127
      000038 7F                    4005 	.db #0x7f	; 127
      000039 7F                    4006 	.db #0x7f	; 127
      00003A 7F                    4007 	.db #0x7f	; 127
      00003B 7F                    4008 	.db #0x7f	; 127
      00003C 40                    4009 	.db #0x40	; 64
      00003D 41                    4010 	.db #0x41	; 65	'A'
      00003E 42                    4011 	.db #0x42	; 66	'B'
      00003F 7F                    4012 	.db #0x7f	; 127
      000040 43                    4013 	.db #0x43	; 67	'C'
      000041 44                    4014 	.db #0x44	; 68	'D'
      000042 45                    4015 	.db #0x45	; 69	'E'
      000043 46                    4016 	.db #0x46	; 70	'F'
      000044 7F                    4017 	.db #0x7f	; 127
      000045 7F                    4018 	.db #0x7f	; 127
      000046 47                    4019 	.db #0x47	; 71	'G'
      000047 48                    4020 	.db #0x48	; 72	'H'
      000048 7F                    4021 	.db #0x7f	; 127
      000049 49                    4022 	.db #0x49	; 73	'I'
      00004A 48                    4023 	.db #0x48	; 72	'H'
      00004B 7F                    4024 	.db #0x7f	; 127
      00004C 4A                    4025 	.db #0x4a	; 74	'J'
      00004D 4B                    4026 	.db #0x4b	; 75	'K'
      00004E 4C                    4027 	.db #0x4c	; 76	'L'
      00004F 7F                    4028 	.db #0x7f	; 127
      000050 2C                    4029 	.db #0x2c	; 44
      000051 2D                    4030 	.db #0x2d	; 45
      000052 2E                    4031 	.db #0x2e	; 46
      000053 2F                    4032 	.db #0x2f	; 47
      000054 30                    4033 	.db #0x30	; 48	'0'
      000055 31                    4034 	.db #0x31	; 49	'1'
      000056 32                    4035 	.db #0x32	; 50	'2'
      000057 33                    4036 	.db #0x33	; 51	'3'
      000058 34                    4037 	.db #0x34	; 52	'4'
      000059 35                    4038 	.db #0x35	; 53	'5'
      00005A 36                    4039 	.db #0x36	; 54	'6'
      00005B 37                    4040 	.db #0x37	; 55	'7'
      00005C 38                    4041 	.db #0x38	; 56	'8'
      00005D 39                    4042 	.db #0x39	; 57	'9'
      00005E 3A                    4043 	.db #0x3a	; 58
      00005F 3B                    4044 	.db #0x3b	; 59
      000060 3C                    4045 	.db #0x3c	; 60
      000061 3D                    4046 	.db #0x3d	; 61
      000062 3E                    4047 	.db #0x3e	; 62
      000063 3F                    4048 	.db #0x3f	; 63
      000064 18                    4049 	.db #0x18	; 24
      000065 19                    4050 	.db #0x19	; 25
      000066 1A                    4051 	.db #0x1a	; 26
      000067 1B                    4052 	.db #0x1b	; 27
      000068 1C                    4053 	.db #0x1c	; 28
      000069 1D                    4054 	.db #0x1d	; 29
      00006A 1E                    4055 	.db #0x1e	; 30
      00006B 1F                    4056 	.db #0x1f	; 31
      00006C 20                    4057 	.db #0x20	; 32
      00006D 21                    4058 	.db #0x21	; 33
      00006E 22                    4059 	.db #0x22	; 34
      00006F 23                    4060 	.db #0x23	; 35
      000070 24                    4061 	.db #0x24	; 36
      000071 25                    4062 	.db #0x25	; 37
      000072 26                    4063 	.db #0x26	; 38
      000073 27                    4064 	.db #0x27	; 39
      000074 28                    4065 	.db #0x28	; 40
      000075 29                    4066 	.db #0x29	; 41
      000076 2A                    4067 	.db #0x2a	; 42
      000077 2B                    4068 	.db #0x2b	; 43
      000078 04                    4069 	.db #0x04	; 4
      000079 05                    4070 	.db #0x05	; 5
      00007A 06                    4071 	.db #0x06	; 6
      00007B 07                    4072 	.db #0x07	; 7
      00007C 08                    4073 	.db #0x08	; 8
      00007D 09                    4074 	.db #0x09	; 9
      00007E 0A                    4075 	.db #0x0a	; 10
      00007F 0B                    4076 	.db #0x0b	; 11
      000080 0C                    4077 	.db #0x0c	; 12
      000081 0D                    4078 	.db #0x0d	; 13
      000082 0E                    4079 	.db #0x0e	; 14
      000083 0F                    4080 	.db #0x0f	; 15
      000084 10                    4081 	.db #0x10	; 16
      000085 11                    4082 	.db #0x11	; 17
      000086 12                    4083 	.db #0x12	; 18
      000087 13                    4084 	.db #0x13	; 19
      000088 14                    4085 	.db #0x14	; 20
      000089 15                    4086 	.db #0x15	; 21
      00008A 16                    4087 	.db #0x16	; 22
      00008B 17                    4088 	.db #0x17	; 23
      00008C 00                    4089 	.db #0x00	; 0
      00008D 01                    4090 	.db #0x01	; 1
      00008E 51                    4091 	.db #0x51	; 81	'Q'
      00008F 50                    4092 	.db #0x50	; 80	'P'
      000090 50                    4093 	.db #0x50	; 80	'P'
      000091 50                    4094 	.db #0x50	; 80	'P'
      000092 50                    4095 	.db #0x50	; 80	'P'
      000093 50                    4096 	.db #0x50	; 80	'P'
      000094 50                    4097 	.db #0x50	; 80	'P'
      000095 50                    4098 	.db #0x50	; 80	'P'
      000096 50                    4099 	.db #0x50	; 80	'P'
      000097 50                    4100 	.db #0x50	; 80	'P'
      000098 50                    4101 	.db #0x50	; 80	'P'
      000099 50                    4102 	.db #0x50	; 80	'P'
      00009A 50                    4103 	.db #0x50	; 80	'P'
      00009B 50                    4104 	.db #0x50	; 80	'P'
      00009C 50                    4105 	.db #0x50	; 80	'P'
      00009D 50                    4106 	.db #0x50	; 80	'P'
      00009E 50                    4107 	.db #0x50	; 80	'P'
      00009F 52                    4108 	.db #0x52	; 82	'R'
      0000A0 7F                    4109 	.db #0x7f	; 127
      0000A1 7F                    4110 	.db #0x7f	; 127
      0000A2 7F                    4111 	.db #0x7f	; 127
      0000A3 7F                    4112 	.db #0x7f	; 127
      0000A4 7F                    4113 	.db #0x7f	; 127
      0000A5 7F                    4114 	.db #0x7f	; 127
      0000A6 7F                    4115 	.db #0x7f	; 127
      0000A7 7F                    4116 	.db #0x7f	; 127
      0000A8 7F                    4117 	.db #0x7f	; 127
      0000A9 7F                    4118 	.db #0x7f	; 127
      0000AA 7F                    4119 	.db #0x7f	; 127
      0000AB 7F                    4120 	.db #0x7f	; 127
      0000AC 7F                    4121 	.db #0x7f	; 127
      0000AD 7F                    4122 	.db #0x7f	; 127
      0000AE 7F                    4123 	.db #0x7f	; 127
      0000AF 7F                    4124 	.db #0x7f	; 127
      0000B0 7F                    4125 	.db #0x7f	; 127
      0000B1 7F                    4126 	.db #0x7f	; 127
      0000B2 7F                    4127 	.db #0x7f	; 127
      0000B3 7F                    4128 	.db #0x7f	; 127
      0000B4 7F                    4129 	.db #0x7f	; 127
      0000B5 7F                    4130 	.db #0x7f	; 127
      0000B6 7F                    4131 	.db #0x7f	; 127
      0000B7 7F                    4132 	.db #0x7f	; 127
      0000B8 7F                    4133 	.db #0x7f	; 127
      0000B9 7F                    4134 	.db #0x7f	; 127
      0000BA 7F                    4135 	.db #0x7f	; 127
      0000BB 7F                    4136 	.db #0x7f	; 127
      0000BC 7F                    4137 	.db #0x7f	; 127
      0000BD 7F                    4138 	.db #0x7f	; 127
      0000BE 7F                    4139 	.db #0x7f	; 127
      0000BF 7F                    4140 	.db #0x7f	; 127
      0000C0 7F                    4141 	.db #0x7f	; 127
      0000C1 7F                    4142 	.db #0x7f	; 127
      0000C2 7F                    4143 	.db #0x7f	; 127
      0000C3 7F                    4144 	.db #0x7f	; 127
      0000C4 7F                    4145 	.db #0x7f	; 127
      0000C5 7F                    4146 	.db #0x7f	; 127
      0000C6 7F                    4147 	.db #0x7f	; 127
      0000C7 7F                    4148 	.db #0x7f	; 127
      0000C8 7F                    4149 	.db #0x7f	; 127
      0000C9 7F                    4150 	.db #0x7f	; 127
      0000CA 7F                    4151 	.db #0x7f	; 127
      0000CB 7F                    4152 	.db #0x7f	; 127
      0000CC 7F                    4153 	.db #0x7f	; 127
      0000CD 7F                    4154 	.db #0x7f	; 127
      0000CE 7F                    4155 	.db #0x7f	; 127
      0000CF 7F                    4156 	.db #0x7f	; 127
      0000D0 7F                    4157 	.db #0x7f	; 127
      0000D1 7F                    4158 	.db #0x7f	; 127
      0000D2 7F                    4159 	.db #0x7f	; 127
      0000D3 7F                    4160 	.db #0x7f	; 127
      0000D4 7F                    4161 	.db #0x7f	; 127
      0000D5 7F                    4162 	.db #0x7f	; 127
      0000D6 7F                    4163 	.db #0x7f	; 127
      0000D7 7F                    4164 	.db #0x7f	; 127
      0000D8 7F                    4165 	.db #0x7f	; 127
      0000D9 7F                    4166 	.db #0x7f	; 127
      0000DA 7F                    4167 	.db #0x7f	; 127
      0000DB 7F                    4168 	.db #0x7f	; 127
      0000DC 7F                    4169 	.db #0x7f	; 127
      0000DD 7F                    4170 	.db #0x7f	; 127
      0000DE 7F                    4171 	.db #0x7f	; 127
      0000DF 7F                    4172 	.db #0x7f	; 127
      0000E0 7F                    4173 	.db #0x7f	; 127
      0000E1 7F                    4174 	.db #0x7f	; 127
      0000E2 7F                    4175 	.db #0x7f	; 127
      0000E3 7F                    4176 	.db #0x7f	; 127
      0000E4 7F                    4177 	.db #0x7f	; 127
      0000E5 7F                    4178 	.db #0x7f	; 127
      0000E6 7F                    4179 	.db #0x7f	; 127
      0000E7 7F                    4180 	.db #0x7f	; 127
      0000E8 7F                    4181 	.db #0x7f	; 127
      0000E9 7F                    4182 	.db #0x7f	; 127
      0000EA 7F                    4183 	.db #0x7f	; 127
      0000EB 7F                    4184 	.db #0x7f	; 127
      0000EC 7F                    4185 	.db #0x7f	; 127
      0000ED 7F                    4186 	.db #0x7f	; 127
      0000EE 7F                    4187 	.db #0x7f	; 127
      0000EF 7F                    4188 	.db #0x7f	; 127
      0000F0 7F                    4189 	.db #0x7f	; 127
      0000F1 7F                    4190 	.db #0x7f	; 127
      0000F2 7F                    4191 	.db #0x7f	; 127
      0000F3 7F                    4192 	.db #0x7f	; 127
      0000F4 7F                    4193 	.db #0x7f	; 127
      0000F5 7F                    4194 	.db #0x7f	; 127
      0000F6 7F                    4195 	.db #0x7f	; 127
      0000F7 7F                    4196 	.db #0x7f	; 127
      0000F8 7F                    4197 	.db #0x7f	; 127
      0000F9 7F                    4198 	.db #0x7f	; 127
      0000FA 7F                    4199 	.db #0x7f	; 127
      0000FB 7F                    4200 	.db #0x7f	; 127
      0000FC 7F                    4201 	.db #0x7f	; 127
      0000FD 5C                    4202 	.db #0x5c	; 92
      0000FE 5D                    4203 	.db #0x5d	; 93
      0000FF 5E                    4204 	.db #0x5e	; 94
      000100 5F                    4205 	.db #0x5f	; 95
      000101 5D                    4206 	.db #0x5d	; 93
      000102 7F                    4207 	.db #0x7f	; 127
      000103 7F                    4208 	.db #0x7f	; 127
      000104 7F                    4209 	.db #0x7f	; 127
      000105 7F                    4210 	.db #0x7f	; 127
      000106 7F                    4211 	.db #0x7f	; 127
      000107 7F                    4212 	.db #0x7f	; 127
      000108 7F                    4213 	.db #0x7f	; 127
      000109 7F                    4214 	.db #0x7f	; 127
      00010A 7F                    4215 	.db #0x7f	; 127
      00010B 7F                    4216 	.db #0x7f	; 127
      00010C 7F                    4217 	.db #0x7f	; 127
      00010D 7F                    4218 	.db #0x7f	; 127
      00010E 7F                    4219 	.db #0x7f	; 127
      00010F 7F                    4220 	.db #0x7f	; 127
      000110 7F                    4221 	.db #0x7f	; 127
      000111 7F                    4222 	.db #0x7f	; 127
      000112 7F                    4223 	.db #0x7f	; 127
      000113 7F                    4224 	.db #0x7f	; 127
      000114 7F                    4225 	.db #0x7f	; 127
      000115 7F                    4226 	.db #0x7f	; 127
      000116 7F                    4227 	.db #0x7f	; 127
      000117 7F                    4228 	.db #0x7f	; 127
      000118 7F                    4229 	.db #0x7f	; 127
      000119 7F                    4230 	.db #0x7f	; 127
      00011A 7F                    4231 	.db #0x7f	; 127
      00011B 7F                    4232 	.db #0x7f	; 127
      00011C 7F                    4233 	.db #0x7f	; 127
      00011D 7F                    4234 	.db #0x7f	; 127
      00011E 7F                    4235 	.db #0x7f	; 127
      00011F 7F                    4236 	.db #0x7f	; 127
      000120 7F                    4237 	.db #0x7f	; 127
      000121 7F                    4238 	.db #0x7f	; 127
      000122 7F                    4239 	.db #0x7f	; 127
      000123 7F                    4240 	.db #0x7f	; 127
      000124 7F                    4241 	.db #0x7f	; 127
      000125 5C                    4242 	.db #0x5c	; 92
      000126 64                    4243 	.db #0x64	; 100	'd'
      000127 60                    4244 	.db #0x60	; 96
      000128 5F                    4245 	.db #0x5f	; 95
      000129 65                    4246 	.db #0x65	; 101	'e'
      00012A 7F                    4247 	.db #0x7f	; 127
      00012B 7F                    4248 	.db #0x7f	; 127
      00012C 7F                    4249 	.db #0x7f	; 127
      00012D 7F                    4250 	.db #0x7f	; 127
      00012E 7F                    4251 	.db #0x7f	; 127
      00012F 7F                    4252 	.db #0x7f	; 127
      000130 7F                    4253 	.db #0x7f	; 127
      000131 7F                    4254 	.db #0x7f	; 127
      000132 7F                    4255 	.db #0x7f	; 127
      000133 7F                    4256 	.db #0x7f	; 127
      000134 7F                    4257 	.db #0x7f	; 127
      000135 7F                    4258 	.db #0x7f	; 127
      000136 7F                    4259 	.db #0x7f	; 127
      000137 7F                    4260 	.db #0x7f	; 127
      000138 7F                    4261 	.db #0x7f	; 127
      000139 7F                    4262 	.db #0x7f	; 127
      00013A 7F                    4263 	.db #0x7f	; 127
      00013B 7F                    4264 	.db #0x7f	; 127
      00013C 7F                    4265 	.db #0x7f	; 127
      00013D 7F                    4266 	.db #0x7f	; 127
      00013E 7F                    4267 	.db #0x7f	; 127
      00013F 7F                    4268 	.db #0x7f	; 127
      000140 7F                    4269 	.db #0x7f	; 127
      000141 7F                    4270 	.db #0x7f	; 127
      000142 7F                    4271 	.db #0x7f	; 127
      000143 7F                    4272 	.db #0x7f	; 127
      000144 7F                    4273 	.db #0x7f	; 127
      000145 7F                    4274 	.db #0x7f	; 127
      000146 7F                    4275 	.db #0x7f	; 127
      000147 7F                    4276 	.db #0x7f	; 127
      000148 7F                    4277 	.db #0x7f	; 127
      000149 7F                    4278 	.db #0x7f	; 127
      00014A 7F                    4279 	.db #0x7f	; 127
      00014B 7F                    4280 	.db #0x7f	; 127
      00014C 7F                    4281 	.db #0x7f	; 127
      00014D 60                    4282 	.db #0x60	; 96
      00014E 61                    4283 	.db #0x61	; 97	'a'
      00014F 5D                    4284 	.db #0x5d	; 93
      000150 62                    4285 	.db #0x62	; 98	'b'
      000151 60                    4286 	.db #0x60	; 96
      000152 63                    4287 	.db #0x63	; 99	'c'
      000153 5C                    4288 	.db #0x5c	; 92
      000154 7F                    4289 	.db #0x7f	; 127
      000155 7F                    4290 	.db #0x7f	; 127
      000156 7F                    4291 	.db #0x7f	; 127
      000157 7F                    4292 	.db #0x7f	; 127
      000158 7F                    4293 	.db #0x7f	; 127
      000159 7F                    4294 	.db #0x7f	; 127
      00015A 7F                    4295 	.db #0x7f	; 127
      00015B 7F                    4296 	.db #0x7f	; 127
      00015C 7F                    4297 	.db #0x7f	; 127
      00015D 7F                    4298 	.db #0x7f	; 127
      00015E 7F                    4299 	.db #0x7f	; 127
      00015F 7F                    4300 	.db #0x7f	; 127
      000160 7F                    4301 	.db #0x7f	; 127
      000161 7F                    4302 	.db #0x7f	; 127
      000162 7F                    4303 	.db #0x7f	; 127
      000163 7F                    4304 	.db #0x7f	; 127
      000164 7F                    4305 	.db #0x7f	; 127
      000165 7F                    4306 	.db #0x7f	; 127
      000166 7F                    4307 	.db #0x7f	; 127
      000167 7F                    4308 	.db #0x7f	; 127
      000168                       4309 __xinit__titleSprites:
      000168 00                    4310 	.db #0x00	; 0
      000169 80                    4311 	.db #0x80	; 128
      00016A 80                    4312 	.db #0x80	; 128
      00016B E0                    4313 	.db #0xe0	; 224
      00016C 80                    4314 	.db #0x80	; 128
      00016D FF                    4315 	.db #0xff	; 255
      00016E 40                    4316 	.db #0x40	; 64
      00016F 7F                    4317 	.db #0x7f	; 127
      000170 70                    4318 	.db #0x70	; 112	'p'
      000171 7F                    4319 	.db #0x7f	; 127
      000172 3E                    4320 	.db #0x3e	; 62
      000173 3F                    4321 	.db #0x3f	; 63
      000174 0F                    4322 	.db #0x0f	; 15
      000175 0F                    4323 	.db #0x0f	; 15
      000176 01                    4324 	.db #0x01	; 1
      000177 01                    4325 	.db #0x01	; 1
      000178 41                    4326 	.db #0x41	; 65	'A'
      000179 43                    4327 	.db #0x43	; 67	'C'
      00017A 00                    4328 	.db #0x00	; 0
      00017B 06                    4329 	.db #0x06	; 6
      00017C 02                    4330 	.db #0x02	; 2
      00017D FE                    4331 	.db #0xfe	; 254
      00017E 06                    4332 	.db #0x06	; 6
      00017F FE                    4333 	.db #0xfe	; 254
      000180 0C                    4334 	.db #0x0c	; 12
      000181 FC                    4335 	.db #0xfc	; 252
      000182 38                    4336 	.db #0x38	; 56	'8'
      000183 F8                    4337 	.db #0xf8	; 248
      000184 F0                    4338 	.db #0xf0	; 240
      000185 F0                    4339 	.db #0xf0	; 240
      000186 C0                    4340 	.db #0xc0	; 192
      000187 C0                    4341 	.db #0xc0	; 192
      000188 03                    4342 	.db #0x03	; 3
      000189 03                    4343 	.db #0x03	; 3
      00018A 00                    4344 	.db #0x00	; 0
      00018B 00                    4345 	.db #0x00	; 0
      00018C 00                    4346 	.db #0x00	; 0
      00018D 00                    4347 	.db #0x00	; 0
      00018E 00                    4348 	.db #0x00	; 0
      00018F 00                    4349 	.db #0x00	; 0
      000190 00                    4350 	.db #0x00	; 0
      000191 00                    4351 	.db #0x00	; 0
      000192 00                    4352 	.db #0x00	; 0
      000193 00                    4353 	.db #0x00	; 0
      000194 00                    4354 	.db #0x00	; 0
      000195 00                    4355 	.db #0x00	; 0
      000196 00                    4356 	.db #0x00	; 0
      000197 00                    4357 	.db #0x00	; 0
      000198 80                    4358 	.db #0x80	; 128
      000199 80                    4359 	.db #0x80	; 128
      00019A 00                    4360 	.db #0x00	; 0
      00019B 00                    4361 	.db #0x00	; 0
      00019C 00                    4362 	.db #0x00	; 0
      00019D 00                    4363 	.db #0x00	; 0
      00019E 00                    4364 	.db #0x00	; 0
      00019F 00                    4365 	.db #0x00	; 0
      0001A0 00                    4366 	.db #0x00	; 0
      0001A1 00                    4367 	.db #0x00	; 0
      0001A2 00                    4368 	.db #0x00	; 0
      0001A3 00                    4369 	.db #0x00	; 0
      0001A4 00                    4370 	.db #0x00	; 0
      0001A5 00                    4371 	.db #0x00	; 0
      0001A6 00                    4372 	.db #0x00	; 0
      0001A7 00                    4373 	.db #0x00	; 0
      0001A8 00                    4374 	.db #0x00	; 0
      0001A9 3F                    4375 	.db #0x3f	; 63
      0001AA 00                    4376 	.db #0x00	; 0
      0001AB 7F                    4377 	.db #0x7f	; 127
      0001AC 00                    4378 	.db #0x00	; 0
      0001AD 7F                    4379 	.db #0x7f	; 127
      0001AE 00                    4380 	.db #0x00	; 0
      0001AF FF                    4381 	.db #0xff	; 255
      0001B0 3E                    4382 	.db #0x3e	; 62
      0001B1 FF                    4383 	.db #0xff	; 255
      0001B2 7F                    4384 	.db #0x7f	; 127
      0001B3 FF                    4385 	.db #0xff	; 255
      0001B4 41                    4386 	.db #0x41	; 65	'A'
      0001B5 C1                    4387 	.db #0xc1	; 193
      0001B6 00                    4388 	.db #0x00	; 0
      0001B7 80                    4389 	.db #0x80	; 128
      0001B8 00                    4390 	.db #0x00	; 0
      0001B9 FA                    4391 	.db #0xfa	; 250
      0001BA 01                    4392 	.db #0x01	; 1
      0001BB FD                    4393 	.db #0xfd	; 253
      0001BC 02                    4394 	.db #0x02	; 2
      0001BD FA                    4395 	.db #0xfa	; 250
      0001BE 04                    4396 	.db #0x04	; 4
      0001BF FC                    4397 	.db #0xfc	; 252
      0001C0 08                    4398 	.db #0x08	; 8
      0001C1 F8                    4399 	.db #0xf8	; 248
      0001C2 18                    4400 	.db #0x18	; 24
      0001C3 F8                    4401 	.db #0xf8	; 248
      0001C4 B0                    4402 	.db #0xb0	; 176
      0001C5 F0                    4403 	.db #0xf0	; 240
      0001C6 E0                    4404 	.db #0xe0	; 224
      0001C7 E0                    4405 	.db #0xe0	; 224
      0001C8 40                    4406 	.db #0x40	; 64
      0001C9 7F                    4407 	.db #0x7f	; 127
      0001CA 00                    4408 	.db #0x00	; 0
      0001CB 3F                    4409 	.db #0x3f	; 63
      0001CC 00                    4410 	.db #0x00	; 0
      0001CD 3F                    4411 	.db #0x3f	; 63
      0001CE 20                    4412 	.db #0x20	; 32
      0001CF 3F                    4413 	.db #0x3f	; 63
      0001D0 20                    4414 	.db #0x20	; 32
      0001D1 3F                    4415 	.db #0x3f	; 63
      0001D2 10                    4416 	.db #0x10	; 16
      0001D3 1F                    4417 	.db #0x1f	; 31
      0001D4 1C                    4418 	.db #0x1c	; 28
      0001D5 1F                    4419 	.db #0x1f	; 31
      0001D6 0F                    4420 	.db #0x0f	; 15
      0001D7 0F                    4421 	.db #0x0f	; 15
      0001D8 00                    4422 	.db #0x00	; 0
      0001D9 DB                    4423 	.db #0xdb	; 219
      0001DA 08                    4424 	.db #0x08	; 8
      0001DB FF                    4425 	.db #0xff	; 255
      0001DC 13                    4426 	.db #0x13	; 19
      0001DD FF                    4427 	.db #0xff	; 255
      0001DE 17                    4428 	.db #0x17	; 23
      0001DF F7                    4429 	.db #0xf7	; 247
      0001E0 2C                    4430 	.db #0x2c	; 44
      0001E1 EC                    4431 	.db #0xec	; 236
      0001E2 60                    4432 	.db #0x60	; 96
      0001E3 E0                    4433 	.db #0xe0	; 224
      0001E4 40                    4434 	.db #0x40	; 64
      0001E5 C0                    4435 	.db #0xc0	; 192
      0001E6 80                    4436 	.db #0x80	; 128
      0001E7 80                    4437 	.db #0x80	; 128
      0001E8 00                    4438 	.db #0x00	; 0
      0001E9 FF                    4439 	.db #0xff	; 255
      0001EA 00                    4440 	.db #0x00	; 0
      0001EB FF                    4441 	.db #0xff	; 255
      0001EC 00                    4442 	.db #0x00	; 0
      0001ED FF                    4443 	.db #0xff	; 255
      0001EE C1                    4444 	.db #0xc1	; 193
      0001EF FF                    4445 	.db #0xff	; 255
      0001F0 F1                    4446 	.db #0xf1	; 241
      0001F1 FF                    4447 	.db #0xff	; 255
      0001F2 3A                    4448 	.db #0x3a	; 58
      0001F3 3E                    4449 	.db #0x3e	; 62
      0001F4 0E                    4450 	.db #0x0e	; 14
      0001F5 0E                    4451 	.db #0x0e	; 14
      0001F6 04                    4452 	.db #0x04	; 4
      0001F7 04                    4453 	.db #0x04	; 4
      0001F8 20                    4454 	.db #0x20	; 32
      0001F9 E7                    4455 	.db #0xe7	; 231
      0001FA 40                    4456 	.db #0x40	; 64
      0001FB C7                    4457 	.db #0xc7	; 199
      0001FC C7                    4458 	.db #0xc7	; 199
      0001FD CF                    4459 	.db #0xcf	; 207
      0001FE 87                    4460 	.db #0x87	; 135
      0001FF 87                    4461 	.db #0x87	; 135
      000200 08                    4462 	.db #0x08	; 8
      000201 08                    4463 	.db #0x08	; 8
      000202 00                    4464 	.db #0x00	; 0
      000203 00                    4465 	.db #0x00	; 0
      000204 00                    4466 	.db #0x00	; 0
      000205 00                    4467 	.db #0x00	; 0
      000206 00                    4468 	.db #0x00	; 0
      000207 00                    4469 	.db #0x00	; 0
      000208 00                    4470 	.db #0x00	; 0
      000209 FF                    4471 	.db #0xff	; 255
      00020A 00                    4472 	.db #0x00	; 0
      00020B FF                    4473 	.db #0xff	; 255
      00020C 00                    4474 	.db #0x00	; 0
      00020D FF                    4475 	.db #0xff	; 255
      00020E 81                    4476 	.db #0x81	; 129
      00020F FF                    4477 	.db #0xff	; 255
      000210 E3                    4478 	.db #0xe3	; 227
      000211 FF                    4479 	.db #0xff	; 255
      000212 7E                    4480 	.db #0x7e	; 126
      000213 7E                    4481 	.db #0x7e	; 126
      000214 1C                    4482 	.db #0x1c	; 28
      000215 1C                    4483 	.db #0x1c	; 28
      000216 00                    4484 	.db #0x00	; 0
      000217 00                    4485 	.db #0x00	; 0
      000218 60                    4486 	.db #0x60	; 96
      000219 E3                    4487 	.db #0xe3	; 227
      00021A 40                    4488 	.db #0x40	; 64
      00021B 43                    4489 	.db #0x43	; 67	'C'
      00021C 80                    4490 	.db #0x80	; 128
      00021D 87                    4491 	.db #0x87	; 135
      00021E 03                    4492 	.db #0x03	; 3
      00021F 0B                    4493 	.db #0x0b	; 11
      000220 07                    4494 	.db #0x07	; 7
      000221 07                    4495 	.db #0x07	; 7
      000222 08                    4496 	.db #0x08	; 8
      000223 08                    4497 	.db #0x08	; 8
      000224 00                    4498 	.db #0x00	; 0
      000225 00                    4499 	.db #0x00	; 0
      000226 00                    4500 	.db #0x00	; 0
      000227 00                    4501 	.db #0x00	; 0
      000228 00                    4502 	.db #0x00	; 0
      000229 FD                    4503 	.db #0xfd	; 253
      00022A 00                    4504 	.db #0x00	; 0
      00022B FE                    4505 	.db #0xfe	; 254
      00022C 01                    4506 	.db #0x01	; 1
      00022D FD                    4507 	.db #0xfd	; 253
      00022E 06                    4508 	.db #0x06	; 6
      00022F FE                    4509 	.db #0xfe	; 254
      000230 8C                    4510 	.db #0x8c	; 140
      000231 FC                    4511 	.db #0xfc	; 252
      000232 D8                    4512 	.db #0xd8	; 216
      000233 F8                    4513 	.db #0xf8	; 248
      000234 70                    4514 	.db #0x70	; 112	'p'
      000235 70                    4515 	.db #0x70	; 112	'p'
      000236 20                    4516 	.db #0x20	; 32
      000237 20                    4517 	.db #0x20	; 32
      000238 00                    4518 	.db #0x00	; 0
      000239 7F                    4519 	.db #0x7f	; 127
      00023A 80                    4520 	.db #0x80	; 128
      00023B FF                    4521 	.db #0xff	; 255
      00023C 00                    4522 	.db #0x00	; 0
      00023D 7F                    4523 	.db #0x7f	; 127
      00023E 40                    4524 	.db #0x40	; 64
      00023F 7F                    4525 	.db #0x7f	; 127
      000240 61                    4526 	.db #0x61	; 97	'a'
      000241 7F                    4527 	.db #0x7f	; 127
      000242 33                    4528 	.db #0x33	; 51	'3'
      000243 3F                    4529 	.db #0x3f	; 63
      000244 1E                    4530 	.db #0x1e	; 30
      000245 1E                    4531 	.db #0x1e	; 30
      000246 0C                    4532 	.db #0x0c	; 12
      000247 0C                    4533 	.db #0x0c	; 12
      000248 00                    4534 	.db #0x00	; 0
      000249 43                    4535 	.db #0x43	; 67	'C'
      00024A 00                    4536 	.db #0x00	; 0
      00024B C7                    4537 	.db #0xc7	; 199
      00024C 43                    4538 	.db #0x43	; 67	'C'
      00024D CF                    4539 	.db #0xcf	; 207
      00024E C7                    4540 	.db #0xc7	; 199
      00024F C7                    4541 	.db #0xc7	; 199
      000250 8C                    4542 	.db #0x8c	; 140
      000251 8C                    4543 	.db #0x8c	; 140
      000252 00                    4544 	.db #0x00	; 0
      000253 00                    4545 	.db #0x00	; 0
      000254 00                    4546 	.db #0x00	; 0
      000255 00                    4547 	.db #0x00	; 0
      000256 00                    4548 	.db #0x00	; 0
      000257 00                    4549 	.db #0x00	; 0
      000258 00                    4550 	.db #0x00	; 0
      000259 FF                    4551 	.db #0xff	; 255
      00025A 00                    4552 	.db #0x00	; 0
      00025B FF                    4553 	.db #0xff	; 255
      00025C 00                    4554 	.db #0x00	; 0
      00025D FF                    4555 	.db #0xff	; 255
      00025E 81                    4556 	.db #0x81	; 129
      00025F FF                    4557 	.db #0xff	; 255
      000260 E3                    4558 	.db #0xe3	; 227
      000261 FF                    4559 	.db #0xff	; 255
      000262 76                    4560 	.db #0x76	; 118	'v'
      000263 7E                    4561 	.db #0x7e	; 126
      000264 1C                    4562 	.db #0x1c	; 28
      000265 1C                    4563 	.db #0x1c	; 28
      000266 08                    4564 	.db #0x08	; 8
      000267 08                    4565 	.db #0x08	; 8
      000268 00                    4566 	.db #0x00	; 0
      000269 C7                    4567 	.db #0xc7	; 199
      00026A 60                    4568 	.db #0x60	; 96
      00026B E3                    4569 	.db #0xe3	; 227
      00026C C7                    4570 	.db #0xc7	; 199
      00026D C7                    4571 	.db #0xc7	; 199
      00026E 83                    4572 	.db #0x83	; 131
      00026F 83                    4573 	.db #0x83	; 131
      000270 00                    4574 	.db #0x00	; 0
      000271 00                    4575 	.db #0x00	; 0
      000272 00                    4576 	.db #0x00	; 0
      000273 00                    4577 	.db #0x00	; 0
      000274 00                    4578 	.db #0x00	; 0
      000275 00                    4579 	.db #0x00	; 0
      000276 00                    4580 	.db #0x00	; 0
      000277 00                    4581 	.db #0x00	; 0
      000278 00                    4582 	.db #0x00	; 0
      000279 FF                    4583 	.db #0xff	; 255
      00027A 00                    4584 	.db #0x00	; 0
      00027B FF                    4585 	.db #0xff	; 255
      00027C 80                    4586 	.db #0x80	; 128
      00027D FF                    4587 	.db #0xff	; 255
      00027E F0                    4588 	.db #0xf0	; 240
      00027F FF                    4589 	.db #0xff	; 255
      000280 7C                    4590 	.db #0x7c	; 124
      000281 7F                    4591 	.db #0x7f	; 127
      000282 0F                    4592 	.db #0x0f	; 15
      000283 0F                    4593 	.db #0x0f	; 15
      000284 03                    4594 	.db #0x03	; 3
      000285 03                    4595 	.db #0x03	; 3
      000286 00                    4596 	.db #0x00	; 0
      000287 00                    4597 	.db #0x00	; 0
      000288 03                    4598 	.db #0x03	; 3
      000289 BF                    4599 	.db #0xbf	; 191
      00028A 02                    4600 	.db #0x02	; 2
      00028B FE                    4601 	.db #0xfe	; 254
      00028C 04                    4602 	.db #0x04	; 4
      00028D FC                    4603 	.db #0xfc	; 252
      00028E 0C                    4604 	.db #0x0c	; 12
      00028F FC                    4605 	.db #0xfc	; 252
      000290 18                    4606 	.db #0x18	; 24
      000291 F8                    4607 	.db #0xf8	; 248
      000292 30                    4608 	.db #0x30	; 48	'0'
      000293 F0                    4609 	.db #0xf0	; 240
      000294 E0                    4610 	.db #0xe0	; 224
      000295 E0                    4611 	.db #0xe0	; 224
      000296 C0                    4612 	.db #0xc0	; 192
      000297 C0                    4613 	.db #0xc0	; 192
      000298 00                    4614 	.db #0x00	; 0
      000299 3F                    4615 	.db #0x3f	; 63
      00029A 00                    4616 	.db #0x00	; 0
      00029B 3F                    4617 	.db #0x3f	; 63
      00029C 30                    4618 	.db #0x30	; 48	'0'
      00029D 7F                    4619 	.db #0x7f	; 127
      00029E 3C                    4620 	.db #0x3c	; 60
      00029F 3F                    4621 	.db #0x3f	; 63
      0002A0 4F                    4622 	.db #0x4f	; 79	'O'
      0002A1 4F                    4623 	.db #0x4f	; 79	'O'
      0002A2 03                    4624 	.db #0x03	; 3
      0002A3 03                    4625 	.db #0x03	; 3
      0002A4 00                    4626 	.db #0x00	; 0
      0002A5 00                    4627 	.db #0x00	; 0
      0002A6 00                    4628 	.db #0x00	; 0
      0002A7 00                    4629 	.db #0x00	; 0
      0002A8 01                    4630 	.db #0x01	; 1
      0002A9 FF                    4631 	.db #0xff	; 255
      0002AA 03                    4632 	.db #0x03	; 3
      0002AB FF                    4633 	.db #0xff	; 255
      0002AC 06                    4634 	.db #0x06	; 6
      0002AD FE                    4635 	.db #0xfe	; 254
      0002AE 0C                    4636 	.db #0x0c	; 12
      0002AF FC                    4637 	.db #0xfc	; 252
      0002B0 08                    4638 	.db #0x08	; 8
      0002B1 F8                    4639 	.db #0xf8	; 248
      0002B2 D0                    4640 	.db #0xd0	; 208
      0002B3 F0                    4641 	.db #0xf0	; 240
      0002B4 F0                    4642 	.db #0xf0	; 240
      0002B5 F0                    4643 	.db #0xf0	; 240
      0002B6 20                    4644 	.db #0x20	; 32
      0002B7 20                    4645 	.db #0x20	; 32
      0002B8 00                    4646 	.db #0x00	; 0
      0002B9 3F                    4647 	.db #0x3f	; 63
      0002BA 18                    4648 	.db #0x18	; 24
      0002BB 1F                    4649 	.db #0x1f	; 31
      0002BC 3C                    4650 	.db #0x3c	; 60
      0002BD 3F                    4651 	.db #0x3f	; 63
      0002BE 07                    4652 	.db #0x07	; 7
      0002BF 07                    4653 	.db #0x07	; 7
      0002C0 03                    4654 	.db #0x03	; 3
      0002C1 03                    4655 	.db #0x03	; 3
      0002C2 00                    4656 	.db #0x00	; 0
      0002C3 00                    4657 	.db #0x00	; 0
      0002C4 00                    4658 	.db #0x00	; 0
      0002C5 00                    4659 	.db #0x00	; 0
      0002C6 00                    4660 	.db #0x00	; 0
      0002C7 00                    4661 	.db #0x00	; 0
      0002C8 00                    4662 	.db #0x00	; 0
      0002C9 FB                    4663 	.db #0xfb	; 251
      0002CA 00                    4664 	.db #0x00	; 0
      0002CB FF                    4665 	.db #0xff	; 255
      0002CC 01                    4666 	.db #0x01	; 1
      0002CD FF                    4667 	.db #0xff	; 255
      0002CE 07                    4668 	.db #0x07	; 7
      0002CF FF                    4669 	.db #0xff	; 255
      0002D0 8E                    4670 	.db #0x8e	; 142
      0002D1 FE                    4671 	.db #0xfe	; 254
      0002D2 D8                    4672 	.db #0xd8	; 216
      0002D3 F8                    4673 	.db #0xf8	; 248
      0002D4 70                    4674 	.db #0x70	; 112	'p'
      0002D5 70                    4675 	.db #0x70	; 112	'p'
      0002D6 20                    4676 	.db #0x20	; 32
      0002D7 20                    4677 	.db #0x20	; 32
      0002D8 00                    4678 	.db #0x00	; 0
      0002D9 F0                    4679 	.db #0xf0	; 240
      0002DA 00                    4680 	.db #0x00	; 0
      0002DB F0                    4681 	.db #0xf0	; 240
      0002DC F0                    4682 	.db #0xf0	; 240
      0002DD F0                    4683 	.db #0xf0	; 240
      0002DE F0                    4684 	.db #0xf0	; 240
      0002DF F0                    4685 	.db #0xf0	; 240
      0002E0 00                    4686 	.db #0x00	; 0
      0002E1 00                    4687 	.db #0x00	; 0
      0002E2 00                    4688 	.db #0x00	; 0
      0002E3 00                    4689 	.db #0x00	; 0
      0002E4 00                    4690 	.db #0x00	; 0
      0002E5 00                    4691 	.db #0x00	; 0
      0002E6 00                    4692 	.db #0x00	; 0
      0002E7 00                    4693 	.db #0x00	; 0
      0002E8 00                    4694 	.db #0x00	; 0
      0002E9 00                    4695 	.db #0x00	; 0
      0002EA 00                    4696 	.db #0x00	; 0
      0002EB 00                    4697 	.db #0x00	; 0
      0002EC 00                    4698 	.db #0x00	; 0
      0002ED 01                    4699 	.db #0x01	; 1
      0002EE 00                    4700 	.db #0x00	; 0
      0002EF 01                    4701 	.db #0x01	; 1
      0002F0 00                    4702 	.db #0x00	; 0
      0002F1 01                    4703 	.db #0x01	; 1
      0002F2 00                    4704 	.db #0x00	; 0
      0002F3 01                    4705 	.db #0x01	; 1
      0002F4 00                    4706 	.db #0x00	; 0
      0002F5 07                    4707 	.db #0x07	; 7
      0002F6 00                    4708 	.db #0x00	; 0
      0002F7 1F                    4709 	.db #0x1f	; 31
      0002F8 00                    4710 	.db #0x00	; 0
      0002F9 FF                    4711 	.db #0xff	; 255
      0002FA 00                    4712 	.db #0x00	; 0
      0002FB FF                    4713 	.db #0xff	; 255
      0002FC 00                    4714 	.db #0x00	; 0
      0002FD FF                    4715 	.db #0xff	; 255
      0002FE 7F                    4716 	.db #0x7f	; 127
      0002FF FF                    4717 	.db #0xff	; 255
      000300 FF                    4718 	.db #0xff	; 255
      000301 FF                    4719 	.db #0xff	; 255
      000302 80                    4720 	.db #0x80	; 128
      000303 80                    4721 	.db #0x80	; 128
      000304 00                    4722 	.db #0x00	; 0
      000305 C0                    4723 	.db #0xc0	; 192
      000306 00                    4724 	.db #0x00	; 0
      000307 F1                    4725 	.db #0xf1	; 241
      000308 00                    4726 	.db #0x00	; 0
      000309 FE                    4727 	.db #0xfe	; 254
      00030A 00                    4728 	.db #0x00	; 0
      00030B FF                    4729 	.db #0xff	; 255
      00030C 00                    4730 	.db #0x00	; 0
      00030D FF                    4731 	.db #0xff	; 255
      00030E 00                    4732 	.db #0x00	; 0
      00030F FF                    4733 	.db #0xff	; 255
      000310 80                    4734 	.db #0x80	; 128
      000311 FF                    4735 	.db #0xff	; 255
      000312 80                    4736 	.db #0x80	; 128
      000313 FF                    4737 	.db #0xff	; 255
      000314 00                    4738 	.db #0x00	; 0
      000315 7F                    4739 	.db #0x7f	; 127
      000316 40                    4740 	.db #0x40	; 64
      000317 7F                    4741 	.db #0x7f	; 127
      000318 00                    4742 	.db #0x00	; 0
      000319 03                    4743 	.db #0x03	; 3
      00031A 00                    4744 	.db #0x00	; 0
      00031B 03                    4745 	.db #0x03	; 3
      00031C 00                    4746 	.db #0x00	; 0
      00031D 03                    4747 	.db #0x03	; 3
      00031E 00                    4748 	.db #0x00	; 0
      00031F 03                    4749 	.db #0x03	; 3
      000320 00                    4750 	.db #0x00	; 0
      000321 03                    4751 	.db #0x03	; 3
      000322 00                    4752 	.db #0x00	; 0
      000323 83                    4753 	.db #0x83	; 131
      000324 00                    4754 	.db #0x00	; 0
      000325 83                    4755 	.db #0x83	; 131
      000326 00                    4756 	.db #0x00	; 0
      000327 8B                    4757 	.db #0x8b	; 139
      000328 00                    4758 	.db #0x00	; 0
      000329 F0                    4759 	.db #0xf0	; 240
      00032A 00                    4760 	.db #0x00	; 0
      00032B F0                    4761 	.db #0xf0	; 240
      00032C 00                    4762 	.db #0x00	; 0
      00032D F0                    4763 	.db #0xf0	; 240
      00032E 00                    4764 	.db #0x00	; 0
      00032F F0                    4765 	.db #0xf0	; 240
      000330 00                    4766 	.db #0x00	; 0
      000331 F0                    4767 	.db #0xf0	; 240
      000332 00                    4768 	.db #0x00	; 0
      000333 F0                    4769 	.db #0xf0	; 240
      000334 00                    4770 	.db #0x00	; 0
      000335 F8                    4771 	.db #0xf8	; 248
      000336 00                    4772 	.db #0x00	; 0
      000337 FC                    4773 	.db #0xfc	; 252
      000338 00                    4774 	.db #0x00	; 0
      000339 03                    4775 	.db #0x03	; 3
      00033A 00                    4776 	.db #0x00	; 0
      00033B 03                    4777 	.db #0x03	; 3
      00033C 00                    4778 	.db #0x00	; 0
      00033D 03                    4779 	.db #0x03	; 3
      00033E 00                    4780 	.db #0x00	; 0
      00033F 03                    4781 	.db #0x03	; 3
      000340 00                    4782 	.db #0x00	; 0
      000341 03                    4783 	.db #0x03	; 3
      000342 00                    4784 	.db #0x00	; 0
      000343 03                    4785 	.db #0x03	; 3
      000344 00                    4786 	.db #0x00	; 0
      000345 23                    4787 	.db #0x23	; 35
      000346 00                    4788 	.db #0x00	; 0
      000347 43                    4789 	.db #0x43	; 67	'C'
      000348 00                    4790 	.db #0x00	; 0
      000349 F0                    4791 	.db #0xf0	; 240
      00034A 00                    4792 	.db #0x00	; 0
      00034B F0                    4793 	.db #0xf0	; 240
      00034C 00                    4794 	.db #0x00	; 0
      00034D F0                    4795 	.db #0xf0	; 240
      00034E 00                    4796 	.db #0x00	; 0
      00034F F0                    4797 	.db #0xf0	; 240
      000350 00                    4798 	.db #0x00	; 0
      000351 F0                    4799 	.db #0xf0	; 240
      000352 00                    4800 	.db #0x00	; 0
      000353 F0                    4801 	.db #0xf0	; 240
      000354 00                    4802 	.db #0x00	; 0
      000355 F8                    4803 	.db #0xf8	; 248
      000356 00                    4804 	.db #0x00	; 0
      000357 FC                    4805 	.db #0xfc	; 252
      000358 00                    4806 	.db #0x00	; 0
      000359 01                    4807 	.db #0x01	; 1
      00035A 00                    4808 	.db #0x00	; 0
      00035B 01                    4809 	.db #0x01	; 1
      00035C 00                    4810 	.db #0x00	; 0
      00035D 01                    4811 	.db #0x01	; 1
      00035E 00                    4812 	.db #0x00	; 0
      00035F 01                    4813 	.db #0x01	; 1
      000360 00                    4814 	.db #0x00	; 0
      000361 01                    4815 	.db #0x01	; 1
      000362 00                    4816 	.db #0x00	; 0
      000363 01                    4817 	.db #0x01	; 1
      000364 00                    4818 	.db #0x00	; 0
      000365 61                    4819 	.db #0x61	; 97	'a'
      000366 00                    4820 	.db #0x00	; 0
      000367 41                    4821 	.db #0x41	; 65	'A'
      000368 00                    4822 	.db #0x00	; 0
      000369 F8                    4823 	.db #0xf8	; 248
      00036A 00                    4824 	.db #0x00	; 0
      00036B F8                    4825 	.db #0xf8	; 248
      00036C 00                    4826 	.db #0x00	; 0
      00036D F8                    4827 	.db #0xf8	; 248
      00036E 00                    4828 	.db #0x00	; 0
      00036F F8                    4829 	.db #0xf8	; 248
      000370 00                    4830 	.db #0x00	; 0
      000371 F8                    4831 	.db #0xf8	; 248
      000372 00                    4832 	.db #0x00	; 0
      000373 F8                    4833 	.db #0xf8	; 248
      000374 00                    4834 	.db #0x00	; 0
      000375 F8                    4835 	.db #0xf8	; 248
      000376 00                    4836 	.db #0x00	; 0
      000377 F8                    4837 	.db #0xf8	; 248
      000378 00                    4838 	.db #0x00	; 0
      000379 7E                    4839 	.db #0x7e	; 126
      00037A 00                    4840 	.db #0x00	; 0
      00037B 7E                    4841 	.db #0x7e	; 126
      00037C 00                    4842 	.db #0x00	; 0
      00037D 7E                    4843 	.db #0x7e	; 126
      00037E 00                    4844 	.db #0x00	; 0
      00037F 7E                    4845 	.db #0x7e	; 126
      000380 00                    4846 	.db #0x00	; 0
      000381 7E                    4847 	.db #0x7e	; 126
      000382 00                    4848 	.db #0x00	; 0
      000383 7E                    4849 	.db #0x7e	; 126
      000384 00                    4850 	.db #0x00	; 0
      000385 7E                    4851 	.db #0x7e	; 126
      000386 00                    4852 	.db #0x00	; 0
      000387 FE                    4853 	.db #0xfe	; 254
      000388 00                    4854 	.db #0x00	; 0
      000389 01                    4855 	.db #0x01	; 1
      00038A 00                    4856 	.db #0x00	; 0
      00038B 01                    4857 	.db #0x01	; 1
      00038C 00                    4858 	.db #0x00	; 0
      00038D 01                    4859 	.db #0x01	; 1
      00038E 00                    4860 	.db #0x00	; 0
      00038F 01                    4861 	.db #0x01	; 1
      000390 00                    4862 	.db #0x00	; 0
      000391 01                    4863 	.db #0x01	; 1
      000392 00                    4864 	.db #0x00	; 0
      000393 01                    4865 	.db #0x01	; 1
      000394 00                    4866 	.db #0x00	; 0
      000395 03                    4867 	.db #0x03	; 3
      000396 00                    4868 	.db #0x00	; 0
      000397 03                    4869 	.db #0x03	; 3
      000398 00                    4870 	.db #0x00	; 0
      000399 F8                    4871 	.db #0xf8	; 248
      00039A 00                    4872 	.db #0x00	; 0
      00039B F8                    4873 	.db #0xf8	; 248
      00039C 00                    4874 	.db #0x00	; 0
      00039D F8                    4875 	.db #0xf8	; 248
      00039E 00                    4876 	.db #0x00	; 0
      00039F F8                    4877 	.db #0xf8	; 248
      0003A0 00                    4878 	.db #0x00	; 0
      0003A1 F8                    4879 	.db #0xf8	; 248
      0003A2 00                    4880 	.db #0x00	; 0
      0003A3 F8                    4881 	.db #0xf8	; 248
      0003A4 00                    4882 	.db #0x00	; 0
      0003A5 F8                    4883 	.db #0xf8	; 248
      0003A6 00                    4884 	.db #0x00	; 0
      0003A7 FC                    4885 	.db #0xfc	; 252
      0003A8 42                    4886 	.db #0x42	; 66	'B'
      0003A9 43                    4887 	.db #0x43	; 67	'C'
      0003AA 01                    4888 	.db #0x01	; 1
      0003AB 01                    4889 	.db #0x01	; 1
      0003AC 01                    4890 	.db #0x01	; 1
      0003AD 01                    4891 	.db #0x01	; 1
      0003AE 00                    4892 	.db #0x00	; 0
      0003AF 00                    4893 	.db #0x00	; 0
      0003B0 00                    4894 	.db #0x00	; 0
      0003B1 00                    4895 	.db #0x00	; 0
      0003B2 00                    4896 	.db #0x00	; 0
      0003B3 00                    4897 	.db #0x00	; 0
      0003B4 00                    4898 	.db #0x00	; 0
      0003B5 01                    4899 	.db #0x01	; 1
      0003B6 00                    4900 	.db #0x00	; 0
      0003B7 63                    4901 	.db #0x63	; 99	'c'
      0003B8 00                    4902 	.db #0x00	; 0
      0003B9 FF                    4903 	.db #0xff	; 255
      0003BA 00                    4904 	.db #0x00	; 0
      0003BB FF                    4905 	.db #0xff	; 255
      0003BC 01                    4906 	.db #0x01	; 1
      0003BD FF                    4907 	.db #0xff	; 255
      0003BE 83                    4908 	.db #0x83	; 131
      0003BF FF                    4909 	.db #0xff	; 255
      0003C0 86                    4910 	.db #0x86	; 134
      0003C1 FE                    4911 	.db #0xfe	; 254
      0003C2 04                    4912 	.db #0x04	; 4
      0003C3 FC                    4913 	.db #0xfc	; 252
      0003C4 00                    4914 	.db #0x00	; 0
      0003C5 F8                    4915 	.db #0xf8	; 248
      0003C6 00                    4916 	.db #0x00	; 0
      0003C7 FE                    4917 	.db #0xfe	; 254
      0003C8 00                    4918 	.db #0x00	; 0
      0003C9 FE                    4919 	.db #0xfe	; 254
      0003CA 00                    4920 	.db #0x00	; 0
      0003CB FE                    4921 	.db #0xfe	; 254
      0003CC 80                    4922 	.db #0x80	; 128
      0003CD FF                    4923 	.db #0xff	; 255
      0003CE 80                    4924 	.db #0x80	; 128
      0003CF FF                    4925 	.db #0xff	; 255
      0003D0 40                    4926 	.db #0x40	; 64
      0003D1 7F                    4927 	.db #0x7f	; 127
      0003D2 40                    4928 	.db #0x40	; 64
      0003D3 7F                    4929 	.db #0x7f	; 127
      0003D4 00                    4930 	.db #0x00	; 0
      0003D5 3F                    4931 	.db #0x3f	; 63
      0003D6 01                    4932 	.db #0x01	; 1
      0003D7 3F                    4933 	.db #0x3f	; 63
      0003D8 00                    4934 	.db #0x00	; 0
      0003D9 1F                    4935 	.db #0x1f	; 31
      0003DA 00                    4936 	.db #0x00	; 0
      0003DB 1F                    4937 	.db #0x1f	; 31
      0003DC 00                    4938 	.db #0x00	; 0
      0003DD 1F                    4939 	.db #0x1f	; 31
      0003DE 00                    4940 	.db #0x00	; 0
      0003DF 1F                    4941 	.db #0x1f	; 31
      0003E0 00                    4942 	.db #0x00	; 0
      0003E1 1F                    4943 	.db #0x1f	; 31
      0003E2 00                    4944 	.db #0x00	; 0
      0003E3 1F                    4945 	.db #0x1f	; 31
      0003E4 00                    4946 	.db #0x00	; 0
      0003E5 1F                    4947 	.db #0x1f	; 31
      0003E6 00                    4948 	.db #0x00	; 0
      0003E7 1F                    4949 	.db #0x1f	; 31
      0003E8 03                    4950 	.db #0x03	; 3
      0003E9 8F                    4951 	.db #0x8f	; 143
      0003EA 0F                    4952 	.db #0x0f	; 15
      0003EB BF                    4953 	.db #0xbf	; 191
      0003EC 0C                    4954 	.db #0x0c	; 12
      0003ED CC                    4955 	.db #0xcc	; 204
      0003EE 30                    4956 	.db #0x30	; 48	'0'
      0003EF B0                    4957 	.db #0xb0	; 176
      0003F0 40                    4958 	.db #0x40	; 64
      0003F1 C0                    4959 	.db #0xc0	; 192
      0003F2 00                    4960 	.db #0x00	; 0
      0003F3 80                    4961 	.db #0x80	; 128
      0003F4 00                    4962 	.db #0x00	; 0
      0003F5 C1                    4963 	.db #0xc1	; 193
      0003F6 00                    4964 	.db #0x00	; 0
      0003F7 F3                    4965 	.db #0xf3	; 243
      0003F8 88                    4966 	.db #0x88	; 136
      0003F9 8F                    4967 	.db #0x8f	; 143
      0003FA 08                    4968 	.db #0x08	; 8
      0003FB 0F                    4969 	.db #0x0f	; 15
      0003FC 00                    4970 	.db #0x00	; 0
      0003FD 07                    4971 	.db #0x07	; 7
      0003FE 00                    4972 	.db #0x00	; 0
      0003FF 0F                    4973 	.db #0x0f	; 15
      000400 00                    4974 	.db #0x00	; 0
      000401 0F                    4975 	.db #0x0f	; 15
      000402 00                    4976 	.db #0x00	; 0
      000403 0F                    4977 	.db #0x0f	; 15
      000404 00                    4978 	.db #0x00	; 0
      000405 0F                    4979 	.db #0x0f	; 15
      000406 00                    4980 	.db #0x00	; 0
      000407 1F                    4981 	.db #0x1f	; 31
      000408 00                    4982 	.db #0x00	; 0
      000409 E3                    4983 	.db #0xe3	; 227
      00040A 00                    4984 	.db #0x00	; 0
      00040B E3                    4985 	.db #0xe3	; 227
      00040C 00                    4986 	.db #0x00	; 0
      00040D E3                    4987 	.db #0xe3	; 227
      00040E 00                    4988 	.db #0x00	; 0
      00040F E3                    4989 	.db #0xe3	; 227
      000410 00                    4990 	.db #0x00	; 0
      000411 E3                    4991 	.db #0xe3	; 227
      000412 00                    4992 	.db #0x00	; 0
      000413 E3                    4993 	.db #0xe3	; 227
      000414 00                    4994 	.db #0x00	; 0
      000415 E3                    4995 	.db #0xe3	; 227
      000416 00                    4996 	.db #0x00	; 0
      000417 F3                    4997 	.db #0xf3	; 243
      000418 00                    4998 	.db #0x00	; 0
      000419 F0                    4999 	.db #0xf0	; 240
      00041A 00                    5000 	.db #0x00	; 0
      00041B F0                    5001 	.db #0xf0	; 240
      00041C 00                    5002 	.db #0x00	; 0
      00041D F0                    5003 	.db #0xf0	; 240
      00041E 00                    5004 	.db #0x00	; 0
      00041F F0                    5005 	.db #0xf0	; 240
      000420 00                    5006 	.db #0x00	; 0
      000421 F0                    5007 	.db #0xf0	; 240
      000422 00                    5008 	.db #0x00	; 0
      000423 F0                    5009 	.db #0xf0	; 240
      000424 00                    5010 	.db #0x00	; 0
      000425 F0                    5011 	.db #0xf0	; 240
      000426 00                    5012 	.db #0x00	; 0
      000427 F0                    5013 	.db #0xf0	; 240
      000428 0F                    5014 	.db #0x0f	; 15
      000429 0F                    5015 	.db #0x0f	; 15
      00042A 0F                    5016 	.db #0x0f	; 15
      00042B 0F                    5017 	.db #0x0f	; 15
      00042C 00                    5018 	.db #0x00	; 0
      00042D 00                    5019 	.db #0x00	; 0
      00042E 00                    5020 	.db #0x00	; 0
      00042F 00                    5021 	.db #0x00	; 0
      000430 00                    5022 	.db #0x00	; 0
      000431 00                    5023 	.db #0x00	; 0
      000432 00                    5024 	.db #0x00	; 0
      000433 00                    5025 	.db #0x00	; 0
      000434 00                    5026 	.db #0x00	; 0
      000435 00                    5027 	.db #0x00	; 0
      000436 00                    5028 	.db #0x00	; 0
      000437 00                    5029 	.db #0x00	; 0
      000438 CC                    5030 	.db #0xcc	; 204
      000439 DF                    5031 	.db #0xdf	; 223
      00043A 80                    5032 	.db #0x80	; 128
      00043B 93                    5033 	.db #0x93	; 147
      00043C 10                    5034 	.db #0x10	; 16
      00043D 33                    5035 	.db #0x33	; 51	'3'
      00043E 12                    5036 	.db #0x12	; 18
      00043F 33                    5037 	.db #0x33	; 51	'3'
      000440 02                    5038 	.db #0x02	; 2
      000441 23                    5039 	.db #0x23	; 35
      000442 20                    5040 	.db #0x20	; 32
      000443 61                    5041 	.db #0x61	; 97	'a'
      000444 20                    5042 	.db #0x20	; 32
      000445 61                    5043 	.db #0x61	; 97	'a'
      000446 00                    5044 	.db #0x00	; 0
      000447 7F                    5045 	.db #0x7f	; 127
      000448 00                    5046 	.db #0x00	; 0
      000449 F8                    5047 	.db #0xf8	; 248
      00044A 00                    5048 	.db #0x00	; 0
      00044B FC                    5049 	.db #0xfc	; 252
      00044C 00                    5050 	.db #0x00	; 0
      00044D FC                    5051 	.db #0xfc	; 252
      00044E 00                    5052 	.db #0x00	; 0
      00044F FC                    5053 	.db #0xfc	; 252
      000450 00                    5054 	.db #0x00	; 0
      000451 FC                    5055 	.db #0xfc	; 252
      000452 00                    5056 	.db #0x00	; 0
      000453 FE                    5057 	.db #0xfe	; 254
      000454 00                    5058 	.db #0x00	; 0
      000455 FE                    5059 	.db #0xfe	; 254
      000456 00                    5060 	.db #0x00	; 0
      000457 FE                    5061 	.db #0xfe	; 254
      000458 00                    5062 	.db #0x00	; 0
      000459 00                    5063 	.db #0x00	; 0
      00045A 00                    5064 	.db #0x00	; 0
      00045B 00                    5065 	.db #0x00	; 0
      00045C 00                    5066 	.db #0x00	; 0
      00045D 03                    5067 	.db #0x03	; 3
      00045E 00                    5068 	.db #0x00	; 0
      00045F 03                    5069 	.db #0x03	; 3
      000460 00                    5070 	.db #0x00	; 0
      000461 03                    5071 	.db #0x03	; 3
      000462 00                    5072 	.db #0x00	; 0
      000463 03                    5073 	.db #0x03	; 3
      000464 00                    5074 	.db #0x00	; 0
      000465 03                    5075 	.db #0x03	; 3
      000466 00                    5076 	.db #0x00	; 0
      000467 03                    5077 	.db #0x03	; 3
      000468 00                    5078 	.db #0x00	; 0
      000469 07                    5079 	.db #0x07	; 7
      00046A 00                    5080 	.db #0x00	; 0
      00046B 7F                    5081 	.db #0x7f	; 127
      00046C 00                    5082 	.db #0x00	; 0
      00046D F7                    5083 	.db #0xf7	; 247
      00046E 0C                    5084 	.db #0x0c	; 12
      00046F FF                    5085 	.db #0xff	; 255
      000470 07                    5086 	.db #0x07	; 7
      000471 F7                    5087 	.db #0xf7	; 247
      000472 03                    5088 	.db #0x03	; 3
      000473 F3                    5089 	.db #0xf3	; 243
      000474 00                    5090 	.db #0x00	; 0
      000475 F0                    5091 	.db #0xf0	; 240
      000476 00                    5092 	.db #0x00	; 0
      000477 F0                    5093 	.db #0xf0	; 240
      000478 00                    5094 	.db #0x00	; 0
      000479 E0                    5095 	.db #0xe0	; 224
      00047A 00                    5096 	.db #0x00	; 0
      00047B E0                    5097 	.db #0xe0	; 224
      00047C 20                    5098 	.db #0x20	; 32
      00047D E3                    5099 	.db #0xe3	; 227
      00047E 20                    5100 	.db #0x20	; 32
      00047F E3                    5101 	.db #0xe3	; 227
      000480 C0                    5102 	.db #0xc0	; 192
      000481 C3                    5103 	.db #0xc3	; 195
      000482 C0                    5104 	.db #0xc0	; 192
      000483 C3                    5105 	.db #0xc3	; 195
      000484 00                    5106 	.db #0x00	; 0
      000485 03                    5107 	.db #0x03	; 3
      000486 00                    5108 	.db #0x00	; 0
      000487 03                    5109 	.db #0x03	; 3
      000488 00                    5110 	.db #0x00	; 0
      000489 0F                    5111 	.db #0x0f	; 15
      00048A 00                    5112 	.db #0x00	; 0
      00048B 7F                    5113 	.db #0x7f	; 127
      00048C 00                    5114 	.db #0x00	; 0
      00048D FF                    5115 	.db #0xff	; 255
      00048E 08                    5116 	.db #0x08	; 8
      00048F FF                    5117 	.db #0xff	; 255
      000490 0F                    5118 	.db #0x0f	; 15
      000491 FF                    5119 	.db #0xff	; 255
      000492 07                    5120 	.db #0x07	; 7
      000493 F7                    5121 	.db #0xf7	; 247
      000494 00                    5122 	.db #0x00	; 0
      000495 F0                    5123 	.db #0xf0	; 240
      000496 00                    5124 	.db #0x00	; 0
      000497 F0                    5125 	.db #0xf0	; 240
      000498 00                    5126 	.db #0x00	; 0
      000499 E1                    5127 	.db #0xe1	; 225
      00049A 20                    5128 	.db #0x20	; 32
      00049B E3                    5129 	.db #0xe3	; 227
      00049C 20                    5130 	.db #0x20	; 32
      00049D E7                    5131 	.db #0xe7	; 231
      00049E 40                    5132 	.db #0x40	; 64
      00049F CF                    5133 	.db #0xcf	; 207
      0004A0 C0                    5134 	.db #0xc0	; 192
      0004A1 DF                    5135 	.db #0xdf	; 223
      0004A2 8E                    5136 	.db #0x8e	; 142
      0004A3 8F                    5137 	.db #0x8f	; 143
      0004A4 1E                    5138 	.db #0x1e	; 30
      0004A5 1F                    5139 	.db #0x1f	; 31
      0004A6 00                    5140 	.db #0x00	; 0
      0004A7 01                    5141 	.db #0x01	; 1
      0004A8 00                    5142 	.db #0x00	; 0
      0004A9 C0                    5143 	.db #0xc0	; 192
      0004AA 00                    5144 	.db #0x00	; 0
      0004AB E0                    5145 	.db #0xe0	; 224
      0004AC 00                    5146 	.db #0x00	; 0
      0004AD F8                    5147 	.db #0xf8	; 248
      0004AE 00                    5148 	.db #0x00	; 0
      0004AF F9                    5149 	.db #0xf9	; 249
      0004B0 00                    5150 	.db #0x00	; 0
      0004B1 F9                    5151 	.db #0xf9	; 249
      0004B2 01                    5152 	.db #0x01	; 1
      0004B3 F9                    5153 	.db #0xf9	; 249
      0004B4 01                    5154 	.db #0x01	; 1
      0004B5 F9                    5155 	.db #0xf9	; 249
      0004B6 00                    5156 	.db #0x00	; 0
      0004B7 F8                    5157 	.db #0xf8	; 248
      0004B8 00                    5158 	.db #0x00	; 0
      0004B9 70                    5159 	.db #0x70	; 112	'p'
      0004BA 00                    5160 	.db #0x00	; 0
      0004BB F8                    5161 	.db #0xf8	; 248
      0004BC 00                    5162 	.db #0x00	; 0
      0004BD FD                    5163 	.db #0xfd	; 253
      0004BE 00                    5164 	.db #0x00	; 0
      0004BF FF                    5165 	.db #0xff	; 255
      0004C0 01                    5166 	.db #0x01	; 1
      0004C1 FF                    5167 	.db #0xff	; 255
      0004C2 01                    5168 	.db #0x01	; 1
      0004C3 FF                    5169 	.db #0xff	; 255
      0004C4 80                    5170 	.db #0x80	; 128
      0004C5 FE                    5171 	.db #0xfe	; 254
      0004C6 80                    5172 	.db #0x80	; 128
      0004C7 FE                    5173 	.db #0xfe	; 254
      0004C8 00                    5174 	.db #0x00	; 0
      0004C9 03                    5175 	.db #0x03	; 3
      0004CA 00                    5176 	.db #0x00	; 0
      0004CB 03                    5177 	.db #0x03	; 3
      0004CC 00                    5178 	.db #0x00	; 0
      0004CD 87                    5179 	.db #0x87	; 135
      0004CE 00                    5180 	.db #0x00	; 0
      0004CF 0F                    5181 	.db #0x0f	; 15
      0004D0 84                    5182 	.db #0x84	; 132
      0004D1 97                    5183 	.db #0x97	; 151
      0004D2 0E                    5184 	.db #0x0e	; 14
      0004D3 0F                    5185 	.db #0x0f	; 15
      0004D4 12                    5186 	.db #0x12	; 18
      0004D5 13                    5187 	.db #0x13	; 19
      0004D6 00                    5188 	.db #0x00	; 0
      0004D7 01                    5189 	.db #0x01	; 1
      0004D8 00                    5190 	.db #0x00	; 0
      0004D9 E0                    5191 	.db #0xe0	; 224
      0004DA 00                    5192 	.db #0x00	; 0
      0004DB F0                    5193 	.db #0xf0	; 240
      0004DC 00                    5194 	.db #0x00	; 0
      0004DD F9                    5195 	.db #0xf9	; 249
      0004DE 00                    5196 	.db #0x00	; 0
      0004DF FB                    5197 	.db #0xfb	; 251
      0004E0 00                    5198 	.db #0x00	; 0
      0004E1 FF                    5199 	.db #0xff	; 255
      0004E2 02                    5200 	.db #0x02	; 2
      0004E3 FB                    5201 	.db #0xfb	; 251
      0004E4 07                    5202 	.db #0x07	; 7
      0004E5 FF                    5203 	.db #0xff	; 255
      0004E6 01                    5204 	.db #0x01	; 1
      0004E7 F9                    5205 	.db #0xf9	; 249
      0004E8 00                    5206 	.db #0x00	; 0
      0004E9 64                    5207 	.db #0x64	; 100	'd'
      0004EA 00                    5208 	.db #0x00	; 0
      0004EB E4                    5209 	.db #0xe4	; 228
      0004EC 00                    5210 	.db #0x00	; 0
      0004ED FC                    5211 	.db #0xfc	; 252
      0004EE 00                    5212 	.db #0x00	; 0
      0004EF FD                    5213 	.db #0xfd	; 253
      0004F0 04                    5214 	.db #0x04	; 4
      0004F1 FF                    5215 	.db #0xff	; 255
      0004F2 0C                    5216 	.db #0x0c	; 12
      0004F3 FF                    5217 	.db #0xff	; 255
      0004F4 B8                    5218 	.db #0xb8	; 184
      0004F5 FB                    5219 	.db #0xfb	; 251
      0004F6 F2                    5220 	.db #0xf2	; 242
      0004F7 F3                    5221 	.db #0xf3	; 243
      0004F8 00                    5222 	.db #0x00	; 0
      0004F9 1F                    5223 	.db #0x1f	; 31
      0004FA 00                    5224 	.db #0x00	; 0
      0004FB 7F                    5225 	.db #0x7f	; 127
      0004FC 06                    5226 	.db #0x06	; 6
      0004FD 7F                    5227 	.db #0x7f	; 127
      0004FE 07                    5228 	.db #0x07	; 7
      0004FF FF                    5229 	.db #0xff	; 255
      000500 01                    5230 	.db #0x01	; 1
      000501 F9                    5231 	.db #0xf9	; 249
      000502 00                    5232 	.db #0x00	; 0
      000503 F8                    5233 	.db #0xf8	; 248
      000504 00                    5234 	.db #0x00	; 0
      000505 F8                    5235 	.db #0xf8	; 248
      000506 00                    5236 	.db #0x00	; 0
      000507 F9                    5237 	.db #0xf9	; 249
      000508 00                    5238 	.db #0x00	; 0
      000509 FF                    5239 	.db #0xff	; 255
      00050A 00                    5240 	.db #0x00	; 0
      00050B FE                    5241 	.db #0xfe	; 254
      00050C 03                    5242 	.db #0x03	; 3
      00050D FF                    5243 	.db #0xff	; 255
      00050E 06                    5244 	.db #0x06	; 6
      00050F FE                    5245 	.db #0xfe	; 254
      000510 8C                    5246 	.db #0x8c	; 140
      000511 FC                    5247 	.db #0xfc	; 252
      000512 80                    5248 	.db #0x80	; 128
      000513 F8                    5249 	.db #0xf8	; 248
      000514 00                    5250 	.db #0x00	; 0
      000515 FC                    5251 	.db #0xfc	; 252
      000516 00                    5252 	.db #0x00	; 0
      000517 FC                    5253 	.db #0xfc	; 252
      000518 00                    5254 	.db #0x00	; 0
      000519 00                    5255 	.db #0x00	; 0
      00051A 00                    5256 	.db #0x00	; 0
      00051B 11                    5257 	.db #0x11	; 17
      00051C 00                    5258 	.db #0x00	; 0
      00051D 1F                    5259 	.db #0x1f	; 31
      00051E 00                    5260 	.db #0x00	; 0
      00051F 1F                    5261 	.db #0x1f	; 31
      000520 00                    5262 	.db #0x00	; 0
      000521 1F                    5263 	.db #0x1f	; 31
      000522 00                    5264 	.db #0x00	; 0
      000523 1F                    5265 	.db #0x1f	; 31
      000524 00                    5266 	.db #0x00	; 0
      000525 1F                    5267 	.db #0x1f	; 31
      000526 00                    5268 	.db #0x00	; 0
      000527 1F                    5269 	.db #0x1f	; 31
      000528 00                    5270 	.db #0x00	; 0
      000529 3E                    5271 	.db #0x3e	; 62
      00052A 00                    5272 	.db #0x00	; 0
      00052B FE                    5273 	.db #0xfe	; 254
      00052C 00                    5274 	.db #0x00	; 0
      00052D FF                    5275 	.db #0xff	; 255
      00052E 40                    5276 	.db #0x40	; 64
      00052F FF                    5277 	.db #0xff	; 255
      000530 40                    5278 	.db #0x40	; 64
      000531 FF                    5279 	.db #0xff	; 255
      000532 20                    5280 	.db #0x20	; 32
      000533 BF                    5281 	.db #0xbf	; 191
      000534 30                    5282 	.db #0x30	; 48	'0'
      000535 BF                    5283 	.db #0xbf	; 191
      000536 10                    5284 	.db #0x10	; 16
      000537 9F                    5285 	.db #0x9f	; 159
      000538 1C                    5286 	.db #0x1c	; 28
      000539 1F                    5287 	.db #0x1f	; 31
      00053A 0E                    5288 	.db #0x0e	; 14
      00053B 0F                    5289 	.db #0x0f	; 15
      00053C 03                    5290 	.db #0x03	; 3
      00053D 03                    5291 	.db #0x03	; 3
      00053E 01                    5292 	.db #0x01	; 1
      00053F 01                    5293 	.db #0x01	; 1
      000540 00                    5294 	.db #0x00	; 0
      000541 8F                    5295 	.db #0x8f	; 143
      000542 00                    5296 	.db #0x00	; 0
      000543 8F                    5297 	.db #0x8f	; 143
      000544 00                    5298 	.db #0x00	; 0
      000545 8F                    5299 	.db #0x8f	; 143
      000546 80                    5300 	.db #0x80	; 128
      000547 8F                    5301 	.db #0x8f	; 143
      000548 00                    5302 	.db #0x00	; 0
      000549 FF                    5303 	.db #0xff	; 255
      00054A 00                    5304 	.db #0x00	; 0
      00054B FF                    5305 	.db #0xff	; 255
      00054C 80                    5306 	.db #0x80	; 128
      00054D FF                    5307 	.db #0xff	; 255
      00054E 00                    5308 	.db #0x00	; 0
      00054F FF                    5309 	.db #0xff	; 255
      000550 00                    5310 	.db #0x00	; 0
      000551 FF                    5311 	.db #0xff	; 255
      000552 18                    5312 	.db #0x18	; 24
      000553 FF                    5313 	.db #0xff	; 255
      000554 1C                    5314 	.db #0x1c	; 28
      000555 FF                    5315 	.db #0xff	; 255
      000556 04                    5316 	.db #0x04	; 4
      000557 E7                    5317 	.db #0xe7	; 231
      000558 00                    5318 	.db #0x00	; 0
      000559 00                    5319 	.db #0x00	; 0
      00055A 00                    5320 	.db #0x00	; 0
      00055B 80                    5321 	.db #0x80	; 128
      00055C 00                    5322 	.db #0x00	; 0
      00055D E4                    5323 	.db #0xe4	; 228
      00055E 00                    5324 	.db #0x00	; 0
      00055F F8                    5325 	.db #0xf8	; 248
      000560 04                    5326 	.db #0x04	; 4
      000561 FC                    5327 	.db #0xfc	; 252
      000562 08                    5328 	.db #0x08	; 8
      000563 F8                    5329 	.db #0xf8	; 248
      000564 08                    5330 	.db #0x08	; 8
      000565 F8                    5331 	.db #0xf8	; 248
      000566 00                    5332 	.db #0x00	; 0
      000567 F0                    5333 	.db #0xf0	; 240
      000568 01                    5334 	.db #0x01	; 1
      000569 0D                    5335 	.db #0x0d	; 13
      00056A 07                    5336 	.db #0x07	; 7
      00056B 0F                    5337 	.db #0x0f	; 15
      00056C 0C                    5338 	.db #0x0c	; 12
      00056D 1C                    5339 	.db #0x1c	; 28
      00056E 08                    5340 	.db #0x08	; 8
      00056F 18                    5341 	.db #0x18	; 24
      000570 00                    5342 	.db #0x00	; 0
      000571 18                    5343 	.db #0x18	; 24
      000572 00                    5344 	.db #0x00	; 0
      000573 1C                    5345 	.db #0x1c	; 28
      000574 10                    5346 	.db #0x10	; 16
      000575 1F                    5347 	.db #0x1f	; 31
      000576 10                    5348 	.db #0x10	; 16
      000577 1F                    5349 	.db #0x1f	; 31
      000578 C0                    5350 	.db #0xc0	; 192
      000579 FF                    5351 	.db #0xff	; 255
      00057A E0                    5352 	.db #0xe0	; 224
      00057B FF                    5353 	.db #0xff	; 255
      00057C 30                    5354 	.db #0x30	; 48	'0'
      00057D 3F                    5355 	.db #0x3f	; 63
      00057E 10                    5356 	.db #0x10	; 16
      00057F 3F                    5357 	.db #0x3f	; 63
      000580 00                    5358 	.db #0x00	; 0
      000581 6F                    5359 	.db #0x6f	; 111	'o'
      000582 20                    5360 	.db #0x20	; 32
      000583 EF                    5361 	.db #0xef	; 239
      000584 20                    5362 	.db #0x20	; 32
      000585 EF                    5363 	.db #0xef	; 239
      000586 4C                    5364 	.db #0x4c	; 76	'L'
      000587 DF                    5365 	.db #0xdf	; 223
      000588 00                    5366 	.db #0x00	; 0
      000589 C4                    5367 	.db #0xc4	; 196
      00058A 04                    5368 	.db #0x04	; 4
      00058B EC                    5369 	.db #0xec	; 236
      00058C 04                    5370 	.db #0x04	; 4
      00058D EC                    5371 	.db #0xec	; 236
      00058E 00                    5372 	.db #0x00	; 0
      00058F F8                    5373 	.db #0xf8	; 248
      000590 00                    5374 	.db #0x00	; 0
      000591 F8                    5375 	.db #0xf8	; 248
      000592 00                    5376 	.db #0x00	; 0
      000593 F8                    5377 	.db #0xf8	; 248
      000594 00                    5378 	.db #0x00	; 0
      000595 F8                    5379 	.db #0xf8	; 248
      000596 00                    5380 	.db #0x00	; 0
      000597 F8                    5381 	.db #0xf8	; 248
      000598 00                    5382 	.db #0x00	; 0
      000599 00                    5383 	.db #0x00	; 0
      00059A 00                    5384 	.db #0x00	; 0
      00059B 00                    5385 	.db #0x00	; 0
      00059C 00                    5386 	.db #0x00	; 0
      00059D 00                    5387 	.db #0x00	; 0
      00059E 00                    5388 	.db #0x00	; 0
      00059F 00                    5389 	.db #0x00	; 0
      0005A0 00                    5390 	.db #0x00	; 0
      0005A1 00                    5391 	.db #0x00	; 0
      0005A2 00                    5392 	.db #0x00	; 0
      0005A3 00                    5393 	.db #0x00	; 0
      0005A4 00                    5394 	.db #0x00	; 0
      0005A5 01                    5395 	.db #0x01	; 1
      0005A6 00                    5396 	.db #0x00	; 0
      0005A7 03                    5397 	.db #0x03	; 3
      0005A8 00                    5398 	.db #0x00	; 0
      0005A9 00                    5399 	.db #0x00	; 0
      0005AA 00                    5400 	.db #0x00	; 0
      0005AB 00                    5401 	.db #0x00	; 0
      0005AC 00                    5402 	.db #0x00	; 0
      0005AD 00                    5403 	.db #0x00	; 0
      0005AE 00                    5404 	.db #0x00	; 0
      0005AF 00                    5405 	.db #0x00	; 0
      0005B0 00                    5406 	.db #0x00	; 0
      0005B1 00                    5407 	.db #0x00	; 0
      0005B2 00                    5408 	.db #0x00	; 0
      0005B3 00                    5409 	.db #0x00	; 0
      0005B4 00                    5410 	.db #0x00	; 0
      0005B5 00                    5411 	.db #0x00	; 0
      0005B6 00                    5412 	.db #0x00	; 0
      0005B7 A0                    5413 	.db #0xa0	; 160
      0005B8 00                    5414 	.db #0x00	; 0
      0005B9 00                    5415 	.db #0x00	; 0
      0005BA 00                    5416 	.db #0x00	; 0
      0005BB 00                    5417 	.db #0x00	; 0
      0005BC 00                    5418 	.db #0x00	; 0
      0005BD 00                    5419 	.db #0x00	; 0
      0005BE 00                    5420 	.db #0x00	; 0
      0005BF 00                    5421 	.db #0x00	; 0
      0005C0 00                    5422 	.db #0x00	; 0
      0005C1 00                    5423 	.db #0x00	; 0
      0005C2 00                    5424 	.db #0x00	; 0
      0005C3 00                    5425 	.db #0x00	; 0
      0005C4 00                    5426 	.db #0x00	; 0
      0005C5 03                    5427 	.db #0x03	; 3
      0005C6 00                    5428 	.db #0x00	; 0
      0005C7 07                    5429 	.db #0x07	; 7
      0005C8 00                    5430 	.db #0x00	; 0
      0005C9 00                    5431 	.db #0x00	; 0
      0005CA 00                    5432 	.db #0x00	; 0
      0005CB 00                    5433 	.db #0x00	; 0
      0005CC 00                    5434 	.db #0x00	; 0
      0005CD 00                    5435 	.db #0x00	; 0
      0005CE 00                    5436 	.db #0x00	; 0
      0005CF 00                    5437 	.db #0x00	; 0
      0005D0 00                    5438 	.db #0x00	; 0
      0005D1 00                    5439 	.db #0x00	; 0
      0005D2 00                    5440 	.db #0x00	; 0
      0005D3 00                    5441 	.db #0x00	; 0
      0005D4 00                    5442 	.db #0x00	; 0
      0005D5 00                    5443 	.db #0x00	; 0
      0005D6 00                    5444 	.db #0x00	; 0
      0005D7 20                    5445 	.db #0x20	; 32
      0005D8 00                    5446 	.db #0x00	; 0
      0005D9 00                    5447 	.db #0x00	; 0
      0005DA 00                    5448 	.db #0x00	; 0
      0005DB 00                    5449 	.db #0x00	; 0
      0005DC 00                    5450 	.db #0x00	; 0
      0005DD 00                    5451 	.db #0x00	; 0
      0005DE 00                    5452 	.db #0x00	; 0
      0005DF 00                    5453 	.db #0x00	; 0
      0005E0 00                    5454 	.db #0x00	; 0
      0005E1 00                    5455 	.db #0x00	; 0
      0005E2 00                    5456 	.db #0x00	; 0
      0005E3 00                    5457 	.db #0x00	; 0
      0005E4 00                    5458 	.db #0x00	; 0
      0005E5 00                    5459 	.db #0x00	; 0
      0005E6 00                    5460 	.db #0x00	; 0
      0005E7 01                    5461 	.db #0x01	; 1
      0005E8 00                    5462 	.db #0x00	; 0
      0005E9 00                    5463 	.db #0x00	; 0
      0005EA 00                    5464 	.db #0x00	; 0
      0005EB 00                    5465 	.db #0x00	; 0
      0005EC 00                    5466 	.db #0x00	; 0
      0005ED 00                    5467 	.db #0x00	; 0
      0005EE 00                    5468 	.db #0x00	; 0
      0005EF 00                    5469 	.db #0x00	; 0
      0005F0 00                    5470 	.db #0x00	; 0
      0005F1 00                    5471 	.db #0x00	; 0
      0005F2 00                    5472 	.db #0x00	; 0
      0005F3 00                    5473 	.db #0x00	; 0
      0005F4 00                    5474 	.db #0x00	; 0
      0005F5 00                    5475 	.db #0x00	; 0
      0005F6 00                    5476 	.db #0x00	; 0
      0005F7 80                    5477 	.db #0x80	; 128
      0005F8 00                    5478 	.db #0x00	; 0
      0005F9 00                    5479 	.db #0x00	; 0
      0005FA 00                    5480 	.db #0x00	; 0
      0005FB 00                    5481 	.db #0x00	; 0
      0005FC 00                    5482 	.db #0x00	; 0
      0005FD 00                    5483 	.db #0x00	; 0
      0005FE 00                    5484 	.db #0x00	; 0
      0005FF 00                    5485 	.db #0x00	; 0
      000600 00                    5486 	.db #0x00	; 0
      000601 00                    5487 	.db #0x00	; 0
      000602 00                    5488 	.db #0x00	; 0
      000603 00                    5489 	.db #0x00	; 0
      000604 00                    5490 	.db #0x00	; 0
      000605 00                    5491 	.db #0x00	; 0
      000606 00                    5492 	.db #0x00	; 0
      000607 0F                    5493 	.db #0x0f	; 15
      000608 00                    5494 	.db #0x00	; 0
      000609 00                    5495 	.db #0x00	; 0
      00060A 00                    5496 	.db #0x00	; 0
      00060B 00                    5497 	.db #0x00	; 0
      00060C 00                    5498 	.db #0x00	; 0
      00060D 00                    5499 	.db #0x00	; 0
      00060E 00                    5500 	.db #0x00	; 0
      00060F 00                    5501 	.db #0x00	; 0
      000610 00                    5502 	.db #0x00	; 0
      000611 00                    5503 	.db #0x00	; 0
      000612 00                    5504 	.db #0x00	; 0
      000613 00                    5505 	.db #0x00	; 0
      000614 00                    5506 	.db #0x00	; 0
      000615 00                    5507 	.db #0x00	; 0
      000616 00                    5508 	.db #0x00	; 0
      000617 0C                    5509 	.db #0x0c	; 12
      000618 00                    5510 	.db #0x00	; 0
      000619 18                    5511 	.db #0x18	; 24
      00061A 00                    5512 	.db #0x00	; 0
      00061B 1E                    5513 	.db #0x1e	; 30
      00061C 00                    5514 	.db #0x00	; 0
      00061D 1F                    5515 	.db #0x1f	; 31
      00061E 00                    5516 	.db #0x00	; 0
      00061F 1F                    5517 	.db #0x1f	; 31
      000620 00                    5518 	.db #0x00	; 0
      000621 1F                    5519 	.db #0x1f	; 31
      000622 00                    5520 	.db #0x00	; 0
      000623 1F                    5521 	.db #0x1f	; 31
      000624 00                    5522 	.db #0x00	; 0
      000625 1F                    5523 	.db #0x1f	; 31
      000626 10                    5524 	.db #0x10	; 16
      000627 1F                    5525 	.db #0x1f	; 31
      000628 00                    5526 	.db #0x00	; 0
      000629 00                    5527 	.db #0x00	; 0
      00062A 00                    5528 	.db #0x00	; 0
      00062B 00                    5529 	.db #0x00	; 0
      00062C 00                    5530 	.db #0x00	; 0
      00062D 00                    5531 	.db #0x00	; 0
      00062E 00                    5532 	.db #0x00	; 0
      00062F 80                    5533 	.db #0x80	; 128
      000630 00                    5534 	.db #0x00	; 0
      000631 E0                    5535 	.db #0xe0	; 224
      000632 00                    5536 	.db #0x00	; 0
      000633 F0                    5537 	.db #0xf0	; 240
      000634 00                    5538 	.db #0x00	; 0
      000635 F8                    5539 	.db #0xf8	; 248
      000636 00                    5540 	.db #0x00	; 0
      000637 FE                    5541 	.db #0xfe	; 254
      000638 00                    5542 	.db #0x00	; 0
      000639 00                    5543 	.db #0x00	; 0
      00063A 00                    5544 	.db #0x00	; 0
      00063B 00                    5545 	.db #0x00	; 0
      00063C 00                    5546 	.db #0x00	; 0
      00063D 00                    5547 	.db #0x00	; 0
      00063E 00                    5548 	.db #0x00	; 0
      00063F 00                    5549 	.db #0x00	; 0
      000640 00                    5550 	.db #0x00	; 0
      000641 00                    5551 	.db #0x00	; 0
      000642 00                    5552 	.db #0x00	; 0
      000643 00                    5553 	.db #0x00	; 0
      000644 00                    5554 	.db #0x00	; 0
      000645 01                    5555 	.db #0x01	; 1
      000646 00                    5556 	.db #0x00	; 0
      000647 07                    5557 	.db #0x07	; 7
      000648 00                    5558 	.db #0x00	; 0
      000649 00                    5559 	.db #0x00	; 0
      00064A 00                    5560 	.db #0x00	; 0
      00064B 00                    5561 	.db #0x00	; 0
      00064C 00                    5562 	.db #0x00	; 0
      00064D 00                    5563 	.db #0x00	; 0
      00064E 00                    5564 	.db #0x00	; 0
      00064F 00                    5565 	.db #0x00	; 0
      000650 00                    5566 	.db #0x00	; 0
      000651 00                    5567 	.db #0x00	; 0
      000652 00                    5568 	.db #0x00	; 0
      000653 00                    5569 	.db #0x00	; 0
      000654 00                    5570 	.db #0x00	; 0
      000655 FC                    5571 	.db #0xfc	; 252
      000656 00                    5572 	.db #0x00	; 0
      000657 FF                    5573 	.db #0xff	; 255
      000658 00                    5574 	.db #0x00	; 0
      000659 00                    5575 	.db #0x00	; 0
      00065A 00                    5576 	.db #0x00	; 0
      00065B 00                    5577 	.db #0x00	; 0
      00065C 00                    5578 	.db #0x00	; 0
      00065D 00                    5579 	.db #0x00	; 0
      00065E 00                    5580 	.db #0x00	; 0
      00065F 00                    5581 	.db #0x00	; 0
      000660 00                    5582 	.db #0x00	; 0
      000661 00                    5583 	.db #0x00	; 0
      000662 00                    5584 	.db #0x00	; 0
      000663 00                    5585 	.db #0x00	; 0
      000664 00                    5586 	.db #0x00	; 0
      000665 00                    5587 	.db #0x00	; 0
      000666 00                    5588 	.db #0x00	; 0
      000667 04                    5589 	.db #0x04	; 4
      000668 00                    5590 	.db #0x00	; 0
      000669 00                    5591 	.db #0x00	; 0
      00066A 00                    5592 	.db #0x00	; 0
      00066B 00                    5593 	.db #0x00	; 0
      00066C 00                    5594 	.db #0x00	; 0
      00066D FF                    5595 	.db #0xff	; 255
      00066E 00                    5596 	.db #0x00	; 0
      00066F FF                    5597 	.db #0xff	; 255
      000670 FF                    5598 	.db #0xff	; 255
      000671 FF                    5599 	.db #0xff	; 255
      000672 00                    5600 	.db #0x00	; 0
      000673 00                    5601 	.db #0x00	; 0
      000674 00                    5602 	.db #0x00	; 0
      000675 00                    5603 	.db #0x00	; 0
      000676 00                    5604 	.db #0x00	; 0
      000677 00                    5605 	.db #0x00	; 0
      000678 00                    5606 	.db #0x00	; 0
      000679 40                    5607 	.db #0x40	; 64
      00067A 00                    5608 	.db #0x00	; 0
      00067B 60                    5609 	.db #0x60	; 96
      00067C 40                    5610 	.db #0x40	; 64
      00067D 7F                    5611 	.db #0x7f	; 127
      00067E 20                    5612 	.db #0x20	; 32
      00067F 3F                    5613 	.db #0x3f	; 63
      000680 1F                    5614 	.db #0x1f	; 31
      000681 1F                    5615 	.db #0x1f	; 31
      000682 00                    5616 	.db #0x00	; 0
      000683 00                    5617 	.db #0x00	; 0
      000684 00                    5618 	.db #0x00	; 0
      000685 00                    5619 	.db #0x00	; 0
      000686 00                    5620 	.db #0x00	; 0
      000687 00                    5621 	.db #0x00	; 0
      000688 00                    5622 	.db #0x00	; 0
      000689 02                    5623 	.db #0x02	; 2
      00068A 00                    5624 	.db #0x00	; 0
      00068B 06                    5625 	.db #0x06	; 6
      00068C 02                    5626 	.db #0x02	; 2
      00068D FE                    5627 	.db #0xfe	; 254
      00068E 04                    5628 	.db #0x04	; 4
      00068F FC                    5629 	.db #0xfc	; 252
      000690 F8                    5630 	.db #0xf8	; 248
      000691 F8                    5631 	.db #0xf8	; 248
      000692 00                    5632 	.db #0x00	; 0
      000693 00                    5633 	.db #0x00	; 0
      000694 00                    5634 	.db #0x00	; 0
      000695 00                    5635 	.db #0x00	; 0
      000696 00                    5636 	.db #0x00	; 0
      000697 00                    5637 	.db #0x00	; 0
      000698 00                    5638 	.db #0x00	; 0
      000699 77                    5639 	.db #0x77	; 119	'w'
      00069A 00                    5640 	.db #0x00	; 0
      00069B 7F                    5641 	.db #0x7f	; 127
      00069C 00                    5642 	.db #0x00	; 0
      00069D 7F                    5643 	.db #0x7f	; 127
      00069E 14                    5644 	.db #0x14	; 20
      00069F 7F                    5645 	.db #0x7f	; 127
      0006A0 08                    5646 	.db #0x08	; 8
      0006A1 6B                    5647 	.db #0x6b	; 107	'k'
      0006A2 00                    5648 	.db #0x00	; 0
      0006A3 63                    5649 	.db #0x63	; 99	'c'
      0006A4 00                    5650 	.db #0x00	; 0
      0006A5 63                    5651 	.db #0x63	; 99	'c'
      0006A6 63                    5652 	.db #0x63	; 99	'c'
      0006A7 63                    5653 	.db #0x63	; 99	'c'
      0006A8 00                    5654 	.db #0x00	; 0
      0006A9 3E                    5655 	.db #0x3e	; 62
      0006AA 00                    5656 	.db #0x00	; 0
      0006AB 7F                    5657 	.db #0x7f	; 127
      0006AC 1C                    5658 	.db #0x1c	; 28
      0006AD 7F                    5659 	.db #0x7f	; 127
      0006AE 00                    5660 	.db #0x00	; 0
      0006AF 63                    5661 	.db #0x63	; 99	'c'
      0006B0 00                    5662 	.db #0x00	; 0
      0006B1 63                    5663 	.db #0x63	; 99	'c'
      0006B2 00                    5664 	.db #0x00	; 0
      0006B3 7F                    5665 	.db #0x7f	; 127
      0006B4 41                    5666 	.db #0x41	; 65	'A'
      0006B5 7F                    5667 	.db #0x7f	; 127
      0006B6 3E                    5668 	.db #0x3e	; 62
      0006B7 3E                    5669 	.db #0x3e	; 62
      0006B8 00                    5670 	.db #0x00	; 0
      0006B9 63                    5671 	.db #0x63	; 99	'c'
      0006BA 00                    5672 	.db #0x00	; 0
      0006BB 73                    5673 	.db #0x73	; 115	's'
      0006BC 00                    5674 	.db #0x00	; 0
      0006BD 73                    5675 	.db #0x73	; 115	's'
      0006BE 10                    5676 	.db #0x10	; 16
      0006BF 7B                    5677 	.db #0x7b	; 123
      0006C0 00                    5678 	.db #0x00	; 0
      0006C1 6B                    5679 	.db #0x6b	; 107	'k'
      0006C2 08                    5680 	.db #0x08	; 8
      0006C3 6F                    5681 	.db #0x6f	; 111	'o'
      0006C4 00                    5682 	.db #0x00	; 0
      0006C5 67                    5683 	.db #0x67	; 103	'g'
      0006C6 67                    5684 	.db #0x67	; 103	'g'
      0006C7 67                    5685 	.db #0x67	; 103	'g'
      0006C8 00                    5686 	.db #0x00	; 0
      0006C9 3E                    5687 	.db #0x3e	; 62
      0006CA 00                    5688 	.db #0x00	; 0
      0006CB 7F                    5689 	.db #0x7f	; 127
      0006CC 1C                    5690 	.db #0x1c	; 28
      0006CD 7F                    5691 	.db #0x7f	; 127
      0006CE 61                    5692 	.db #0x61	; 97	'a'
      0006CF 6F                    5693 	.db #0x6f	; 111	'o'
      0006D0 06                    5694 	.db #0x06	; 6
      0006D1 1E                    5695 	.db #0x1e	; 30
      0006D2 00                    5696 	.db #0x00	; 0
      0006D3 7F                    5697 	.db #0x7f	; 127
      0006D4 00                    5698 	.db #0x00	; 0
      0006D5 7F                    5699 	.db #0x7f	; 127
      0006D6 7F                    5700 	.db #0x7f	; 127
      0006D7 7F                    5701 	.db #0x7f	; 127
      0006D8 00                    5702 	.db #0x00	; 0
      0006D9 3E                    5703 	.db #0x3e	; 62
      0006DA 00                    5704 	.db #0x00	; 0
      0006DB 7F                    5705 	.db #0x7f	; 127
      0006DC 0C                    5706 	.db #0x0c	; 12
      0006DD 7F                    5707 	.db #0x7f	; 127
      0006DE 10                    5708 	.db #0x10	; 16
      0006DF 7B                    5709 	.db #0x7b	; 123
      0006E0 08                    5710 	.db #0x08	; 8
      0006E1 6F                    5711 	.db #0x6f	; 111	'o'
      0006E2 00                    5712 	.db #0x00	; 0
      0006E3 7F                    5713 	.db #0x7f	; 127
      0006E4 41                    5714 	.db #0x41	; 65	'A'
      0006E5 7F                    5715 	.db #0x7f	; 127
      0006E6 3E                    5716 	.db #0x3e	; 62
      0006E7 3E                    5717 	.db #0x3e	; 62
      0006E8 00                    5718 	.db #0x00	; 0
      0006E9 3E                    5719 	.db #0x3e	; 62
      0006EA 00                    5720 	.db #0x00	; 0
      0006EB 7F                    5721 	.db #0x7f	; 127
      0006EC 78                    5722 	.db #0x78	; 120	'x'
      0006ED 7F                    5723 	.db #0x7f	; 127
      0006EE 01                    5724 	.db #0x01	; 1
      0006EF 1F                    5725 	.db #0x1f	; 31
      0006F0 18                    5726 	.db #0x18	; 24
      0006F1 1F                    5727 	.db #0x1f	; 31
      0006F2 00                    5728 	.db #0x00	; 0
      0006F3 7F                    5729 	.db #0x7f	; 127
      0006F4 41                    5730 	.db #0x41	; 65	'A'
      0006F5 7F                    5731 	.db #0x7f	; 127
      0006F6 3E                    5732 	.db #0x3e	; 62
      0006F7 3E                    5733 	.db #0x3e	; 62
      0006F8 00                    5734 	.db #0x00	; 0
      0006F9 00                    5735 	.db #0x00	; 0
      0006FA 00                    5736 	.db #0x00	; 0
      0006FB 00                    5737 	.db #0x00	; 0
      0006FC 00                    5738 	.db #0x00	; 0
      0006FD 00                    5739 	.db #0x00	; 0
      0006FE 00                    5740 	.db #0x00	; 0
      0006FF F8                    5741 	.db #0xf8	; 248
      000700 00                    5742 	.db #0x00	; 0
      000701 FC                    5743 	.db #0xfc	; 252
      000702 F8                    5744 	.db #0xf8	; 248
      000703 FE                    5745 	.db #0xfe	; 254
      000704 04                    5746 	.db #0x04	; 4
      000705 06                    5747 	.db #0x06	; 6
      000706 02                    5748 	.db #0x02	; 2
      000707 02                    5749 	.db #0x02	; 2
      000708 00                    5750 	.db #0x00	; 0
      000709 00                    5751 	.db #0x00	; 0
      00070A 00                    5752 	.db #0x00	; 0
      00070B 00                    5753 	.db #0x00	; 0
      00070C 00                    5754 	.db #0x00	; 0
      00070D 00                    5755 	.db #0x00	; 0
      00070E 00                    5756 	.db #0x00	; 0
      00070F FF                    5757 	.db #0xff	; 255
      000710 00                    5758 	.db #0x00	; 0
      000711 FF                    5759 	.db #0xff	; 255
      000712 FF                    5760 	.db #0xff	; 255
      000713 FF                    5761 	.db #0xff	; 255
      000714 00                    5762 	.db #0x00	; 0
      000715 00                    5763 	.db #0x00	; 0
      000716 00                    5764 	.db #0x00	; 0
      000717 00                    5765 	.db #0x00	; 0
      000718 00                    5766 	.db #0x00	; 0
      000719 00                    5767 	.db #0x00	; 0
      00071A 00                    5768 	.db #0x00	; 0
      00071B 00                    5769 	.db #0x00	; 0
      00071C 00                    5770 	.db #0x00	; 0
      00071D 00                    5771 	.db #0x00	; 0
      00071E 00                    5772 	.db #0x00	; 0
      00071F 1F                    5773 	.db #0x1f	; 31
      000720 00                    5774 	.db #0x00	; 0
      000721 3F                    5775 	.db #0x3f	; 63
      000722 1F                    5776 	.db #0x1f	; 31
      000723 7F                    5777 	.db #0x7f	; 127
      000724 20                    5778 	.db #0x20	; 32
      000725 60                    5779 	.db #0x60	; 96
      000726 40                    5780 	.db #0x40	; 64
      000727 40                    5781 	.db #0x40	; 64
      000728 1E                    5782 	.db #0x1e	; 30
      000729 1E                    5783 	.db #0x1e	; 30
      00072A 3F                    5784 	.db #0x3f	; 63
      00072B 3F                    5785 	.db #0x3f	; 63
      00072C 70                    5786 	.db #0x70	; 112	'p'
      00072D 70                    5787 	.db #0x70	; 112	'p'
      00072E 3C                    5788 	.db #0x3c	; 60
      00072F 3C                    5789 	.db #0x3c	; 60
      000730 1E                    5790 	.db #0x1e	; 30
      000731 1E                    5791 	.db #0x1e	; 30
      000732 07                    5792 	.db #0x07	; 7
      000733 07                    5793 	.db #0x07	; 7
      000734 7E                    5794 	.db #0x7e	; 126
      000735 7E                    5795 	.db #0x7e	; 126
      000736 3C                    5796 	.db #0x3c	; 60
      000737 3C                    5797 	.db #0x3c	; 60
      000738 3F                    5798 	.db #0x3f	; 63
      000739 3F                    5799 	.db #0x3f	; 63
      00073A 7F                    5800 	.db #0x7f	; 127
      00073B 7F                    5801 	.db #0x7f	; 127
      00073C 0C                    5802 	.db #0x0c	; 12
      00073D 0C                    5803 	.db #0x0c	; 12
      00073E 0C                    5804 	.db #0x0c	; 12
      00073F 0C                    5805 	.db #0x0c	; 12
      000740 0C                    5806 	.db #0x0c	; 12
      000741 0C                    5807 	.db #0x0c	; 12
      000742 0C                    5808 	.db #0x0c	; 12
      000743 0C                    5809 	.db #0x0c	; 12
      000744 0C                    5810 	.db #0x0c	; 12
      000745 0C                    5811 	.db #0x0c	; 12
      000746 0C                    5812 	.db #0x0c	; 12
      000747 0C                    5813 	.db #0x0c	; 12
      000748 03                    5814 	.db #0x03	; 3
      000749 03                    5815 	.db #0x03	; 3
      00074A 07                    5816 	.db #0x07	; 7
      00074B 07                    5817 	.db #0x07	; 7
      00074C 0F                    5818 	.db #0x0f	; 15
      00074D 0F                    5819 	.db #0x0f	; 15
      00074E 1B                    5820 	.db #0x1b	; 27
      00074F 1B                    5821 	.db #0x1b	; 27
      000750 33                    5822 	.db #0x33	; 51	'3'
      000751 33                    5823 	.db #0x33	; 51	'3'
      000752 7F                    5824 	.db #0x7f	; 127
      000753 7F                    5825 	.db #0x7f	; 127
      000754 63                    5826 	.db #0x63	; 99	'c'
      000755 63                    5827 	.db #0x63	; 99	'c'
      000756 63                    5828 	.db #0x63	; 99	'c'
      000757 63                    5829 	.db #0x63	; 99	'c'
      000758 3C                    5830 	.db #0x3c	; 60
      000759 3C                    5831 	.db #0x3c	; 60
      00075A 7E                    5832 	.db #0x7e	; 126
      00075B 7E                    5833 	.db #0x7e	; 126
      00075C 63                    5834 	.db #0x63	; 99	'c'
      00075D 63                    5835 	.db #0x63	; 99	'c'
      00075E 63                    5836 	.db #0x63	; 99	'c'
      00075F 63                    5837 	.db #0x63	; 99	'c'
      000760 66                    5838 	.db #0x66	; 102	'f'
      000761 66                    5839 	.db #0x66	; 102	'f'
      000762 7C                    5840 	.db #0x7c	; 124
      000763 7C                    5841 	.db #0x7c	; 124
      000764 66                    5842 	.db #0x66	; 102	'f'
      000765 66                    5843 	.db #0x66	; 102	'f'
      000766 63                    5844 	.db #0x63	; 99	'c'
      000767 63                    5845 	.db #0x63	; 99	'c'
      000768 3E                    5846 	.db #0x3e	; 62
      000769 3E                    5847 	.db #0x3e	; 62
      00076A 7F                    5848 	.db #0x7f	; 127
      00076B 7F                    5849 	.db #0x7f	; 127
      00076C 63                    5850 	.db #0x63	; 99	'c'
      00076D 63                    5851 	.db #0x63	; 99	'c'
      00076E 63                    5852 	.db #0x63	; 99	'c'
      00076F 63                    5853 	.db #0x63	; 99	'c'
      000770 63                    5854 	.db #0x63	; 99	'c'
      000771 63                    5855 	.db #0x63	; 99	'c'
      000772 63                    5856 	.db #0x63	; 99	'c'
      000773 63                    5857 	.db #0x63	; 99	'c'
      000774 7F                    5858 	.db #0x7f	; 127
      000775 7F                    5859 	.db #0x7f	; 127
      000776 3E                    5860 	.db #0x3e	; 62
      000777 3E                    5861 	.db #0x3e	; 62
      000778 3C                    5862 	.db #0x3c	; 60
      000779 3C                    5863 	.db #0x3c	; 60
      00077A 7E                    5864 	.db #0x7e	; 126
      00077B 7E                    5865 	.db #0x7e	; 126
      00077C 63                    5866 	.db #0x63	; 99	'c'
      00077D 63                    5867 	.db #0x63	; 99	'c'
      00077E 63                    5868 	.db #0x63	; 99	'c'
      00077F 63                    5869 	.db #0x63	; 99	'c'
      000780 66                    5870 	.db #0x66	; 102	'f'
      000781 66                    5871 	.db #0x66	; 102	'f'
      000782 7C                    5872 	.db #0x7c	; 124
      000783 7C                    5873 	.db #0x7c	; 124
      000784 60                    5874 	.db #0x60	; 96
      000785 60                    5875 	.db #0x60	; 96
      000786 60                    5876 	.db #0x60	; 96
      000787 60                    5877 	.db #0x60	; 96
      000788 3F                    5878 	.db #0x3f	; 63
      000789 3F                    5879 	.db #0x3f	; 63
      00078A 7F                    5880 	.db #0x7f	; 127
      00078B 7F                    5881 	.db #0x7f	; 127
      00078C 0C                    5882 	.db #0x0c	; 12
      00078D 0C                    5883 	.db #0x0c	; 12
      00078E 0C                    5884 	.db #0x0c	; 12
      00078F 0C                    5885 	.db #0x0c	; 12
      000790 0C                    5886 	.db #0x0c	; 12
      000791 0C                    5887 	.db #0x0c	; 12
      000792 0C                    5888 	.db #0x0c	; 12
      000793 0C                    5889 	.db #0x0c	; 12
      000794 3F                    5890 	.db #0x3f	; 63
      000795 3F                    5891 	.db #0x3f	; 63
      000796 7F                    5892 	.db #0x7f	; 127
      000797 7F                    5893 	.db #0x7f	; 127
      000798 23                    5894 	.db #0x23	; 35
      000799 23                    5895 	.db #0x23	; 35
      00079A 73                    5896 	.db #0x73	; 115	's'
      00079B 73                    5897 	.db #0x73	; 115	's'
      00079C 73                    5898 	.db #0x73	; 115	's'
      00079D 73                    5899 	.db #0x73	; 115	's'
      00079E 6B                    5900 	.db #0x6b	; 107	'k'
      00079F 6B                    5901 	.db #0x6b	; 107	'k'
      0007A0 6B                    5902 	.db #0x6b	; 107	'k'
      0007A1 6B                    5903 	.db #0x6b	; 107	'k'
      0007A2 67                    5904 	.db #0x67	; 103	'g'
      0007A3 67                    5905 	.db #0x67	; 103	'g'
      0007A4 67                    5906 	.db #0x67	; 103	'g'
      0007A5 67                    5907 	.db #0x67	; 103	'g'
      0007A6 63                    5908 	.db #0x63	; 99	'c'
      0007A7 63                    5909 	.db #0x63	; 99	'c'
      0007A8 3E                    5910 	.db #0x3e	; 62
      0007A9 3E                    5911 	.db #0x3e	; 62
      0007AA 7F                    5912 	.db #0x7f	; 127
      0007AB 7F                    5913 	.db #0x7f	; 127
      0007AC 61                    5914 	.db #0x61	; 97	'a'
      0007AD 61                    5915 	.db #0x61	; 97	'a'
      0007AE 60                    5916 	.db #0x60	; 96
      0007AF 60                    5917 	.db #0x60	; 96
      0007B0 60                    5918 	.db #0x60	; 96
      0007B1 60                    5919 	.db #0x60	; 96
      0007B2 61                    5920 	.db #0x61	; 97	'a'
      0007B3 61                    5921 	.db #0x61	; 97	'a'
      0007B4 7F                    5922 	.db #0x7f	; 127
      0007B5 7F                    5923 	.db #0x7f	; 127
      0007B6 3E                    5924 	.db #0x3e	; 62
      0007B7 3E                    5925 	.db #0x3e	; 62
      0007B8 3E                    5926 	.db #0x3e	; 62
      0007B9 3E                    5927 	.db #0x3e	; 62
      0007BA 7F                    5928 	.db #0x7f	; 127
      0007BB 7F                    5929 	.db #0x7f	; 127
      0007BC 61                    5930 	.db #0x61	; 97	'a'
      0007BD 61                    5931 	.db #0x61	; 97	'a'
      0007BE 7C                    5932 	.db #0x7c	; 124
      0007BF 7C                    5933 	.db #0x7c	; 124
      0007C0 7C                    5934 	.db #0x7c	; 124
      0007C1 7C                    5935 	.db #0x7c	; 124
      0007C2 61                    5936 	.db #0x61	; 97	'a'
      0007C3 61                    5937 	.db #0x61	; 97	'a'
      0007C4 7F                    5938 	.db #0x7f	; 127
      0007C5 7F                    5939 	.db #0x7f	; 127
      0007C6 3E                    5940 	.db #0x3e	; 62
      0007C7 3E                    5941 	.db #0x3e	; 62
      0007C8 00                    5942 	.db #0x00	; 0
      0007C9 00                    5943 	.db #0x00	; 0
      0007CA 00                    5944 	.db #0x00	; 0
      0007CB 00                    5945 	.db #0x00	; 0
      0007CC 00                    5946 	.db #0x00	; 0
      0007CD 00                    5947 	.db #0x00	; 0
      0007CE 00                    5948 	.db #0x00	; 0
      0007CF 00                    5949 	.db #0x00	; 0
      0007D0 00                    5950 	.db #0x00	; 0
      0007D1 00                    5951 	.db #0x00	; 0
      0007D2 00                    5952 	.db #0x00	; 0
      0007D3 00                    5953 	.db #0x00	; 0
      0007D4 00                    5954 	.db #0x00	; 0
      0007D5 00                    5955 	.db #0x00	; 0
      0007D6 00                    5956 	.db #0x00	; 0
      0007D7 00                    5957 	.db #0x00	; 0
      0007D8 00                    5958 	.db #0x00	; 0
      0007D9 00                    5959 	.db #0x00	; 0
      0007DA 00                    5960 	.db #0x00	; 0
      0007DB 00                    5961 	.db #0x00	; 0
      0007DC 00                    5962 	.db #0x00	; 0
      0007DD 00                    5963 	.db #0x00	; 0
      0007DE 00                    5964 	.db #0x00	; 0
      0007DF 00                    5965 	.db #0x00	; 0
      0007E0 00                    5966 	.db #0x00	; 0
      0007E1 00                    5967 	.db #0x00	; 0
      0007E2 00                    5968 	.db #0x00	; 0
      0007E3 00                    5969 	.db #0x00	; 0
      0007E4 00                    5970 	.db #0x00	; 0
      0007E5 00                    5971 	.db #0x00	; 0
      0007E6 00                    5972 	.db #0x00	; 0
      0007E7 00                    5973 	.db #0x00	; 0
      0007E8 00                    5974 	.db #0x00	; 0
      0007E9 00                    5975 	.db #0x00	; 0
      0007EA 00                    5976 	.db #0x00	; 0
      0007EB 00                    5977 	.db #0x00	; 0
      0007EC 00                    5978 	.db #0x00	; 0
      0007ED 00                    5979 	.db #0x00	; 0
      0007EE 00                    5980 	.db #0x00	; 0
      0007EF 00                    5981 	.db #0x00	; 0
      0007F0 00                    5982 	.db #0x00	; 0
      0007F1 00                    5983 	.db #0x00	; 0
      0007F2 00                    5984 	.db #0x00	; 0
      0007F3 00                    5985 	.db #0x00	; 0
      0007F4 00                    5986 	.db #0x00	; 0
      0007F5 00                    5987 	.db #0x00	; 0
      0007F6 00                    5988 	.db #0x00	; 0
      0007F7 00                    5989 	.db #0x00	; 0
      0007F8 00                    5990 	.db #0x00	; 0
      0007F9 00                    5991 	.db #0x00	; 0
      0007FA 00                    5992 	.db #0x00	; 0
      0007FB 00                    5993 	.db #0x00	; 0
      0007FC 00                    5994 	.db #0x00	; 0
      0007FD 00                    5995 	.db #0x00	; 0
      0007FE 00                    5996 	.db #0x00	; 0
      0007FF 00                    5997 	.db #0x00	; 0
      000800 00                    5998 	.db #0x00	; 0
      000801 00                    5999 	.db #0x00	; 0
      000802 00                    6000 	.db #0x00	; 0
      000803 00                    6001 	.db #0x00	; 0
      000804 00                    6002 	.db #0x00	; 0
      000805 00                    6003 	.db #0x00	; 0
      000806 00                    6004 	.db #0x00	; 0
      000807 00                    6005 	.db #0x00	; 0
      000808 00                    6006 	.db #0x00	; 0
      000809 00                    6007 	.db #0x00	; 0
      00080A 00                    6008 	.db #0x00	; 0
      00080B 00                    6009 	.db #0x00	; 0
      00080C 00                    6010 	.db #0x00	; 0
      00080D 00                    6011 	.db #0x00	; 0
      00080E 00                    6012 	.db #0x00	; 0
      00080F 00                    6013 	.db #0x00	; 0
      000810 00                    6014 	.db #0x00	; 0
      000811 00                    6015 	.db #0x00	; 0
      000812 00                    6016 	.db #0x00	; 0
      000813 00                    6017 	.db #0x00	; 0
      000814 00                    6018 	.db #0x00	; 0
      000815 00                    6019 	.db #0x00	; 0
      000816 00                    6020 	.db #0x00	; 0
      000817 00                    6021 	.db #0x00	; 0
      000818 00                    6022 	.db #0x00	; 0
      000819 00                    6023 	.db #0x00	; 0
      00081A 00                    6024 	.db #0x00	; 0
      00081B 00                    6025 	.db #0x00	; 0
      00081C 00                    6026 	.db #0x00	; 0
      00081D 00                    6027 	.db #0x00	; 0
      00081E 00                    6028 	.db #0x00	; 0
      00081F 00                    6029 	.db #0x00	; 0
      000820 00                    6030 	.db #0x00	; 0
      000821 00                    6031 	.db #0x00	; 0
      000822 00                    6032 	.db #0x00	; 0
      000823 00                    6033 	.db #0x00	; 0
      000824 00                    6034 	.db #0x00	; 0
      000825 00                    6035 	.db #0x00	; 0
      000826 00                    6036 	.db #0x00	; 0
      000827 00                    6037 	.db #0x00	; 0
      000828 00                    6038 	.db #0x00	; 0
      000829 00                    6039 	.db #0x00	; 0
      00082A 00                    6040 	.db #0x00	; 0
      00082B 00                    6041 	.db #0x00	; 0
      00082C 00                    6042 	.db #0x00	; 0
      00082D 00                    6043 	.db #0x00	; 0
      00082E 00                    6044 	.db #0x00	; 0
      00082F 00                    6045 	.db #0x00	; 0
      000830 00                    6046 	.db #0x00	; 0
      000831 00                    6047 	.db #0x00	; 0
      000832 00                    6048 	.db #0x00	; 0
      000833 00                    6049 	.db #0x00	; 0
      000834 00                    6050 	.db #0x00	; 0
      000835 00                    6051 	.db #0x00	; 0
      000836 00                    6052 	.db #0x00	; 0
      000837 00                    6053 	.db #0x00	; 0
      000838 00                    6054 	.db #0x00	; 0
      000839 00                    6055 	.db #0x00	; 0
      00083A 00                    6056 	.db #0x00	; 0
      00083B 00                    6057 	.db #0x00	; 0
      00083C 00                    6058 	.db #0x00	; 0
      00083D 00                    6059 	.db #0x00	; 0
      00083E 00                    6060 	.db #0x00	; 0
      00083F 00                    6061 	.db #0x00	; 0
      000840 00                    6062 	.db #0x00	; 0
      000841 00                    6063 	.db #0x00	; 0
      000842 00                    6064 	.db #0x00	; 0
      000843 00                    6065 	.db #0x00	; 0
      000844 00                    6066 	.db #0x00	; 0
      000845 00                    6067 	.db #0x00	; 0
      000846 00                    6068 	.db #0x00	; 0
      000847 00                    6069 	.db #0x00	; 0
      000848 00                    6070 	.db #0x00	; 0
      000849 00                    6071 	.db #0x00	; 0
      00084A 00                    6072 	.db #0x00	; 0
      00084B 00                    6073 	.db #0x00	; 0
      00084C 00                    6074 	.db #0x00	; 0
      00084D 00                    6075 	.db #0x00	; 0
      00084E 00                    6076 	.db #0x00	; 0
      00084F 00                    6077 	.db #0x00	; 0
      000850 00                    6078 	.db #0x00	; 0
      000851 00                    6079 	.db #0x00	; 0
      000852 00                    6080 	.db #0x00	; 0
      000853 00                    6081 	.db #0x00	; 0
      000854 00                    6082 	.db #0x00	; 0
      000855 00                    6083 	.db #0x00	; 0
      000856 00                    6084 	.db #0x00	; 0
      000857 00                    6085 	.db #0x00	; 0
      000858 00                    6086 	.db #0x00	; 0
      000859 00                    6087 	.db #0x00	; 0
      00085A 00                    6088 	.db #0x00	; 0
      00085B 00                    6089 	.db #0x00	; 0
      00085C 00                    6090 	.db #0x00	; 0
      00085D 00                    6091 	.db #0x00	; 0
      00085E 00                    6092 	.db #0x00	; 0
      00085F 00                    6093 	.db #0x00	; 0
      000860 00                    6094 	.db #0x00	; 0
      000861 00                    6095 	.db #0x00	; 0
      000862 00                    6096 	.db #0x00	; 0
      000863 00                    6097 	.db #0x00	; 0
      000864 00                    6098 	.db #0x00	; 0
      000865 00                    6099 	.db #0x00	; 0
      000866 00                    6100 	.db #0x00	; 0
      000867 00                    6101 	.db #0x00	; 0
      000868 00                    6102 	.db #0x00	; 0
      000869 00                    6103 	.db #0x00	; 0
      00086A 00                    6104 	.db #0x00	; 0
      00086B 00                    6105 	.db #0x00	; 0
      00086C 00                    6106 	.db #0x00	; 0
      00086D 00                    6107 	.db #0x00	; 0
      00086E 00                    6108 	.db #0x00	; 0
      00086F 00                    6109 	.db #0x00	; 0
      000870 00                    6110 	.db #0x00	; 0
      000871 00                    6111 	.db #0x00	; 0
      000872 00                    6112 	.db #0x00	; 0
      000873 00                    6113 	.db #0x00	; 0
      000874 00                    6114 	.db #0x00	; 0
      000875 00                    6115 	.db #0x00	; 0
      000876 00                    6116 	.db #0x00	; 0
      000877 00                    6117 	.db #0x00	; 0
      000878 00                    6118 	.db #0x00	; 0
      000879 00                    6119 	.db #0x00	; 0
      00087A 00                    6120 	.db #0x00	; 0
      00087B 00                    6121 	.db #0x00	; 0
      00087C 00                    6122 	.db #0x00	; 0
      00087D 00                    6123 	.db #0x00	; 0
      00087E 00                    6124 	.db #0x00	; 0
      00087F 00                    6125 	.db #0x00	; 0
      000880 00                    6126 	.db #0x00	; 0
      000881 00                    6127 	.db #0x00	; 0
      000882 00                    6128 	.db #0x00	; 0
      000883 00                    6129 	.db #0x00	; 0
      000884 00                    6130 	.db #0x00	; 0
      000885 00                    6131 	.db #0x00	; 0
      000886 00                    6132 	.db #0x00	; 0
      000887 00                    6133 	.db #0x00	; 0
      000888 00                    6134 	.db #0x00	; 0
      000889 00                    6135 	.db #0x00	; 0
      00088A 00                    6136 	.db #0x00	; 0
      00088B 00                    6137 	.db #0x00	; 0
      00088C 00                    6138 	.db #0x00	; 0
      00088D 00                    6139 	.db #0x00	; 0
      00088E 00                    6140 	.db #0x00	; 0
      00088F 00                    6141 	.db #0x00	; 0
      000890 00                    6142 	.db #0x00	; 0
      000891 00                    6143 	.db #0x00	; 0
      000892 00                    6144 	.db #0x00	; 0
      000893 00                    6145 	.db #0x00	; 0
      000894 00                    6146 	.db #0x00	; 0
      000895 00                    6147 	.db #0x00	; 0
      000896 00                    6148 	.db #0x00	; 0
      000897 00                    6149 	.db #0x00	; 0
      000898 00                    6150 	.db #0x00	; 0
      000899 00                    6151 	.db #0x00	; 0
      00089A 00                    6152 	.db #0x00	; 0
      00089B 00                    6153 	.db #0x00	; 0
      00089C 00                    6154 	.db #0x00	; 0
      00089D 00                    6155 	.db #0x00	; 0
      00089E 00                    6156 	.db #0x00	; 0
      00089F 00                    6157 	.db #0x00	; 0
      0008A0 00                    6158 	.db #0x00	; 0
      0008A1 00                    6159 	.db #0x00	; 0
      0008A2 00                    6160 	.db #0x00	; 0
      0008A3 00                    6161 	.db #0x00	; 0
      0008A4 00                    6162 	.db #0x00	; 0
      0008A5 00                    6163 	.db #0x00	; 0
      0008A6 00                    6164 	.db #0x00	; 0
      0008A7 00                    6165 	.db #0x00	; 0
      0008A8 00                    6166 	.db #0x00	; 0
      0008A9 00                    6167 	.db #0x00	; 0
      0008AA 00                    6168 	.db #0x00	; 0
      0008AB 00                    6169 	.db #0x00	; 0
      0008AC 00                    6170 	.db #0x00	; 0
      0008AD 00                    6171 	.db #0x00	; 0
      0008AE 00                    6172 	.db #0x00	; 0
      0008AF 00                    6173 	.db #0x00	; 0
      0008B0 00                    6174 	.db #0x00	; 0
      0008B1 00                    6175 	.db #0x00	; 0
      0008B2 00                    6176 	.db #0x00	; 0
      0008B3 00                    6177 	.db #0x00	; 0
      0008B4 00                    6178 	.db #0x00	; 0
      0008B5 00                    6179 	.db #0x00	; 0
      0008B6 00                    6180 	.db #0x00	; 0
      0008B7 00                    6181 	.db #0x00	; 0
      0008B8 00                    6182 	.db #0x00	; 0
      0008B9 00                    6183 	.db #0x00	; 0
      0008BA 00                    6184 	.db #0x00	; 0
      0008BB 00                    6185 	.db #0x00	; 0
      0008BC 00                    6186 	.db #0x00	; 0
      0008BD 00                    6187 	.db #0x00	; 0
      0008BE 00                    6188 	.db #0x00	; 0
      0008BF 00                    6189 	.db #0x00	; 0
      0008C0 00                    6190 	.db #0x00	; 0
      0008C1 00                    6191 	.db #0x00	; 0
      0008C2 00                    6192 	.db #0x00	; 0
      0008C3 00                    6193 	.db #0x00	; 0
      0008C4 00                    6194 	.db #0x00	; 0
      0008C5 00                    6195 	.db #0x00	; 0
      0008C6 00                    6196 	.db #0x00	; 0
      0008C7 00                    6197 	.db #0x00	; 0
      0008C8 00                    6198 	.db #0x00	; 0
      0008C9 00                    6199 	.db #0x00	; 0
      0008CA 00                    6200 	.db #0x00	; 0
      0008CB 00                    6201 	.db #0x00	; 0
      0008CC 00                    6202 	.db #0x00	; 0
      0008CD 00                    6203 	.db #0x00	; 0
      0008CE 00                    6204 	.db #0x00	; 0
      0008CF 00                    6205 	.db #0x00	; 0
      0008D0 00                    6206 	.db #0x00	; 0
      0008D1 00                    6207 	.db #0x00	; 0
      0008D2 00                    6208 	.db #0x00	; 0
      0008D3 00                    6209 	.db #0x00	; 0
      0008D4 00                    6210 	.db #0x00	; 0
      0008D5 00                    6211 	.db #0x00	; 0
      0008D6 00                    6212 	.db #0x00	; 0
      0008D7 00                    6213 	.db #0x00	; 0
      0008D8 00                    6214 	.db #0x00	; 0
      0008D9 00                    6215 	.db #0x00	; 0
      0008DA 00                    6216 	.db #0x00	; 0
      0008DB 00                    6217 	.db #0x00	; 0
      0008DC 00                    6218 	.db #0x00	; 0
      0008DD 00                    6219 	.db #0x00	; 0
      0008DE 00                    6220 	.db #0x00	; 0
      0008DF 00                    6221 	.db #0x00	; 0
      0008E0 00                    6222 	.db #0x00	; 0
      0008E1 00                    6223 	.db #0x00	; 0
      0008E2 00                    6224 	.db #0x00	; 0
      0008E3 00                    6225 	.db #0x00	; 0
      0008E4 00                    6226 	.db #0x00	; 0
      0008E5 00                    6227 	.db #0x00	; 0
      0008E6 00                    6228 	.db #0x00	; 0
      0008E7 00                    6229 	.db #0x00	; 0
      0008E8 00                    6230 	.db #0x00	; 0
      0008E9 00                    6231 	.db #0x00	; 0
      0008EA 00                    6232 	.db #0x00	; 0
      0008EB 00                    6233 	.db #0x00	; 0
      0008EC 00                    6234 	.db #0x00	; 0
      0008ED 00                    6235 	.db #0x00	; 0
      0008EE 00                    6236 	.db #0x00	; 0
      0008EF 00                    6237 	.db #0x00	; 0
      0008F0 00                    6238 	.db #0x00	; 0
      0008F1 00                    6239 	.db #0x00	; 0
      0008F2 00                    6240 	.db #0x00	; 0
      0008F3 00                    6241 	.db #0x00	; 0
      0008F4 00                    6242 	.db #0x00	; 0
      0008F5 00                    6243 	.db #0x00	; 0
      0008F6 00                    6244 	.db #0x00	; 0
      0008F7 00                    6245 	.db #0x00	; 0
      0008F8 00                    6246 	.db #0x00	; 0
      0008F9 00                    6247 	.db #0x00	; 0
      0008FA 00                    6248 	.db #0x00	; 0
      0008FB 00                    6249 	.db #0x00	; 0
      0008FC 00                    6250 	.db #0x00	; 0
      0008FD 00                    6251 	.db #0x00	; 0
      0008FE 00                    6252 	.db #0x00	; 0
      0008FF 00                    6253 	.db #0x00	; 0
      000900 00                    6254 	.db #0x00	; 0
      000901 00                    6255 	.db #0x00	; 0
      000902 00                    6256 	.db #0x00	; 0
      000903 00                    6257 	.db #0x00	; 0
      000904 00                    6258 	.db #0x00	; 0
      000905 00                    6259 	.db #0x00	; 0
      000906 00                    6260 	.db #0x00	; 0
      000907 00                    6261 	.db #0x00	; 0
      000908 00                    6262 	.db #0x00	; 0
      000909 00                    6263 	.db #0x00	; 0
      00090A 00                    6264 	.db #0x00	; 0
      00090B 00                    6265 	.db #0x00	; 0
      00090C 00                    6266 	.db #0x00	; 0
      00090D 00                    6267 	.db #0x00	; 0
      00090E 00                    6268 	.db #0x00	; 0
      00090F 00                    6269 	.db #0x00	; 0
      000910 00                    6270 	.db #0x00	; 0
      000911 00                    6271 	.db #0x00	; 0
      000912 00                    6272 	.db #0x00	; 0
      000913 00                    6273 	.db #0x00	; 0
      000914 00                    6274 	.db #0x00	; 0
      000915 00                    6275 	.db #0x00	; 0
      000916 00                    6276 	.db #0x00	; 0
      000917 00                    6277 	.db #0x00	; 0
      000918 00                    6278 	.db #0x00	; 0
      000919 00                    6279 	.db #0x00	; 0
      00091A 00                    6280 	.db #0x00	; 0
      00091B 00                    6281 	.db #0x00	; 0
      00091C 00                    6282 	.db #0x00	; 0
      00091D 00                    6283 	.db #0x00	; 0
      00091E 00                    6284 	.db #0x00	; 0
      00091F 00                    6285 	.db #0x00	; 0
      000920 00                    6286 	.db #0x00	; 0
      000921 00                    6287 	.db #0x00	; 0
      000922 00                    6288 	.db #0x00	; 0
      000923 00                    6289 	.db #0x00	; 0
      000924 00                    6290 	.db #0x00	; 0
      000925 00                    6291 	.db #0x00	; 0
      000926 00                    6292 	.db #0x00	; 0
      000927 00                    6293 	.db #0x00	; 0
      000928 00                    6294 	.db #0x00	; 0
      000929 00                    6295 	.db #0x00	; 0
      00092A 00                    6296 	.db #0x00	; 0
      00092B 00                    6297 	.db #0x00	; 0
      00092C 00                    6298 	.db #0x00	; 0
      00092D 00                    6299 	.db #0x00	; 0
      00092E 00                    6300 	.db #0x00	; 0
      00092F 00                    6301 	.db #0x00	; 0
      000930 00                    6302 	.db #0x00	; 0
      000931 00                    6303 	.db #0x00	; 0
      000932 00                    6304 	.db #0x00	; 0
      000933 00                    6305 	.db #0x00	; 0
      000934 00                    6306 	.db #0x00	; 0
      000935 00                    6307 	.db #0x00	; 0
      000936 00                    6308 	.db #0x00	; 0
      000937 00                    6309 	.db #0x00	; 0
      000938 00                    6310 	.db #0x00	; 0
      000939 00                    6311 	.db #0x00	; 0
      00093A 00                    6312 	.db #0x00	; 0
      00093B 00                    6313 	.db #0x00	; 0
      00093C 00                    6314 	.db #0x00	; 0
      00093D 00                    6315 	.db #0x00	; 0
      00093E 00                    6316 	.db #0x00	; 0
      00093F 00                    6317 	.db #0x00	; 0
      000940 00                    6318 	.db #0x00	; 0
      000941 00                    6319 	.db #0x00	; 0
      000942 00                    6320 	.db #0x00	; 0
      000943 00                    6321 	.db #0x00	; 0
      000944 00                    6322 	.db #0x00	; 0
      000945 00                    6323 	.db #0x00	; 0
      000946 00                    6324 	.db #0x00	; 0
      000947 00                    6325 	.db #0x00	; 0
      000948 00                    6326 	.db #0x00	; 0
      000949 00                    6327 	.db #0x00	; 0
      00094A 00                    6328 	.db #0x00	; 0
      00094B 00                    6329 	.db #0x00	; 0
      00094C 00                    6330 	.db #0x00	; 0
      00094D 00                    6331 	.db #0x00	; 0
      00094E 00                    6332 	.db #0x00	; 0
      00094F 00                    6333 	.db #0x00	; 0
      000950 00                    6334 	.db #0x00	; 0
      000951 00                    6335 	.db #0x00	; 0
      000952 00                    6336 	.db #0x00	; 0
      000953 00                    6337 	.db #0x00	; 0
      000954 00                    6338 	.db #0x00	; 0
      000955 00                    6339 	.db #0x00	; 0
      000956 00                    6340 	.db #0x00	; 0
      000957 00                    6341 	.db #0x00	; 0
      000958 00                    6342 	.db #0x00	; 0
      000959 00                    6343 	.db #0x00	; 0
      00095A 00                    6344 	.db #0x00	; 0
      00095B 00                    6345 	.db #0x00	; 0
      00095C 00                    6346 	.db #0x00	; 0
      00095D 00                    6347 	.db #0x00	; 0
      00095E 00                    6348 	.db #0x00	; 0
      00095F 00                    6349 	.db #0x00	; 0
      000960 00                    6350 	.db #0x00	; 0
      000961 00                    6351 	.db #0x00	; 0
      000962 00                    6352 	.db #0x00	; 0
      000963 00                    6353 	.db #0x00	; 0
      000964 00                    6354 	.db #0x00	; 0
      000965 00                    6355 	.db #0x00	; 0
      000966 00                    6356 	.db #0x00	; 0
      000967 00                    6357 	.db #0x00	; 0
                                   6358 	.area _CABS (ABS)
